
main.elf:     file format elf32-littlearm


Disassembly of section .isr_vector:

08000000 <g_pfnVectors>:
 8000000:	20005000 	andcs	r5, r0, r0
 8000004:	080097e1 	stmdaeq	r0, {r0, r5, r6, r7, r8, r9, sl, ip, pc}
 8000008:	08009821 	stmdaeq	r0, {r0, r5, fp, ip, pc}
 800000c:	08009821 	stmdaeq	r0, {r0, r5, fp, ip, pc}
 8000010:	08009821 	stmdaeq	r0, {r0, r5, fp, ip, pc}
 8000014:	08009821 	stmdaeq	r0, {r0, r5, fp, ip, pc}
 8000018:	08009821 	stmdaeq	r0, {r0, r5, fp, ip, pc}
	...
 800002c:	08009821 	stmdaeq	r0, {r0, r5, fp, ip, pc}
 8000030:	08009821 	stmdaeq	r0, {r0, r5, fp, ip, pc}
 8000034:	00000000 	andeq	r0, r0, r0
 8000038:	08009821 	stmdaeq	r0, {r0, r5, fp, ip, pc}
 800003c:	08004511 	stmdaeq	r0, {r0, r4, r8, sl, lr}
 8000040:	08009821 	stmdaeq	r0, {r0, r5, fp, ip, pc}
 8000044:	08009821 	stmdaeq	r0, {r0, r5, fp, ip, pc}
 8000048:	08009821 	stmdaeq	r0, {r0, r5, fp, ip, pc}
 800004c:	08009821 	stmdaeq	r0, {r0, r5, fp, ip, pc}
 8000050:	08009821 	stmdaeq	r0, {r0, r5, fp, ip, pc}
 8000054:	08009821 	stmdaeq	r0, {r0, r5, fp, ip, pc}
 8000058:	08001fc1 	stmdaeq	r0, {r0, r6, r7, r8, r9, sl, fp, ip}
 800005c:	08009821 	stmdaeq	r0, {r0, r5, fp, ip, pc}
 8000060:	08009821 	stmdaeq	r0, {r0, r5, fp, ip, pc}
 8000064:	08009821 	stmdaeq	r0, {r0, r5, fp, ip, pc}
 8000068:	08009821 	stmdaeq	r0, {r0, r5, fp, ip, pc}
 800006c:	08009821 	stmdaeq	r0, {r0, r5, fp, ip, pc}
 8000070:	08001eb5 	stmdaeq	r0, {r0, r2, r4, r5, r7, r9, sl, fp, ip}
 8000074:	08001efd 	stmdaeq	r0, {r0, r2, r3, r4, r5, r6, r7, r9, sl, fp, ip}
 8000078:	08009821 	stmdaeq	r0, {r0, r5, fp, ip, pc}
 800007c:	08009821 	stmdaeq	r0, {r0, r5, fp, ip, pc}
 8000080:	08009821 	stmdaeq	r0, {r0, r5, fp, ip, pc}
 8000084:	08009821 	stmdaeq	r0, {r0, r5, fp, ip, pc}
 8000088:	0800423d 	stmdaeq	r0, {r0, r2, r3, r4, r5, r9, lr}
 800008c:	08004235 	stmdaeq	r0, {r0, r2, r4, r5, r9, lr}
 8000090:	0800422d 	stmdaeq	r0, {r0, r2, r3, r5, r9, lr}
 8000094:	08009821 	stmdaeq	r0, {r0, r5, fp, ip, pc}
 8000098:	08009821 	stmdaeq	r0, {r0, r5, fp, ip, pc}
 800009c:	08009821 	stmdaeq	r0, {r0, r5, fp, ip, pc}
 80000a0:	08009821 	stmdaeq	r0, {r0, r5, fp, ip, pc}
 80000a4:	08009821 	stmdaeq	r0, {r0, r5, fp, ip, pc}
 80000a8:	08009821 	stmdaeq	r0, {r0, r5, fp, ip, pc}
 80000ac:	08009821 	stmdaeq	r0, {r0, r5, fp, ip, pc}
 80000b0:	08009821 	stmdaeq	r0, {r0, r5, fp, ip, pc}
 80000b4:	08009821 	stmdaeq	r0, {r0, r5, fp, ip, pc}
 80000b8:	08009821 	stmdaeq	r0, {r0, r5, fp, ip, pc}
 80000bc:	08004b89 	stmdaeq	r0, {r0, r3, r7, r8, r9, fp, lr}
 80000c0:	08004a79 	stmdaeq	r0, {r0, r3, r4, r5, r6, r9, fp, lr}
 80000c4:	08009821 	stmdaeq	r0, {r0, r5, fp, ip, pc}
 80000c8:	08009821 	stmdaeq	r0, {r0, r5, fp, ip, pc}
 80000cc:	08009821 	stmdaeq	r0, {r0, r5, fp, ip, pc}
 80000d0:	08009821 	stmdaeq	r0, {r0, r5, fp, ip, pc}
 80000d4:	080089e5 	stmdaeq	r0, {r0, r2, r5, r6, r7, r8, fp, pc}
 80000d8:	08009821 	stmdaeq	r0, {r0, r5, fp, ip, pc}
 80000dc:	08001f45 	stmdaeq	r0, {r0, r2, r6, r8, r9, sl, fp, ip}
 80000e0:	08001e6d 	stmdaeq	r0, {r0, r2, r3, r5, r6, r9, sl, fp, ip}
 80000e4:	08009821 	stmdaeq	r0, {r0, r5, fp, ip, pc}
 80000e8:	08009821 	stmdaeq	r0, {r0, r5, fp, ip, pc}
	...
 8000108:	f108f85f 			; <UNDEFINED> instruction: 0xf108f85f

Disassembly of section .text:

08000110 <__aeabi_drsub>:
 8000110:	f081 4100 	eor.w	r1, r1, #2147483648	; 0x80000000
 8000114:	e002      	b.n	800011c <__adddf3>
 8000116:	bf00      	nop

08000118 <__aeabi_dsub>:
 8000118:	f083 4300 	eor.w	r3, r3, #2147483648	; 0x80000000

0800011c <__adddf3>:
 800011c:	b530      	push	{r4, r5, lr}
 800011e:	ea4f 0441 	mov.w	r4, r1, lsl #1
 8000122:	ea4f 0543 	mov.w	r5, r3, lsl #1
 8000126:	ea94 0f05 	teq	r4, r5
 800012a:	bf08      	it	eq
 800012c:	ea90 0f02 	teqeq	r0, r2
 8000130:	bf1f      	itttt	ne
 8000132:	ea54 0c00 	orrsne.w	ip, r4, r0
 8000136:	ea55 0c02 	orrsne.w	ip, r5, r2
 800013a:	ea7f 5c64 	mvnsne.w	ip, r4, asr #21
 800013e:	ea7f 5c65 	mvnsne.w	ip, r5, asr #21
 8000142:	f000 80e2 	beq.w	800030a <__adddf3+0x1ee>
 8000146:	ea4f 5454 	mov.w	r4, r4, lsr #21
 800014a:	ebd4 5555 	rsbs	r5, r4, r5, lsr #21
 800014e:	bfb8      	it	lt
 8000150:	426d      	neglt	r5, r5
 8000152:	dd0c      	ble.n	800016e <__adddf3+0x52>
 8000154:	442c      	add	r4, r5
 8000156:	ea80 0202 	eor.w	r2, r0, r2
 800015a:	ea81 0303 	eor.w	r3, r1, r3
 800015e:	ea82 0000 	eor.w	r0, r2, r0
 8000162:	ea83 0101 	eor.w	r1, r3, r1
 8000166:	ea80 0202 	eor.w	r2, r0, r2
 800016a:	ea81 0303 	eor.w	r3, r1, r3
 800016e:	2d36      	cmp	r5, #54	; 0x36
 8000170:	bf88      	it	hi
 8000172:	bd30      	pophi	{r4, r5, pc}
 8000174:	f011 4f00 	tst.w	r1, #2147483648	; 0x80000000
 8000178:	ea4f 3101 	mov.w	r1, r1, lsl #12
 800017c:	f44f 1c80 	mov.w	ip, #1048576	; 0x100000
 8000180:	ea4c 3111 	orr.w	r1, ip, r1, lsr #12
 8000184:	d002      	beq.n	800018c <__adddf3+0x70>
 8000186:	4240      	negs	r0, r0
 8000188:	eb61 0141 	sbc.w	r1, r1, r1, lsl #1
 800018c:	f013 4f00 	tst.w	r3, #2147483648	; 0x80000000
 8000190:	ea4f 3303 	mov.w	r3, r3, lsl #12
 8000194:	ea4c 3313 	orr.w	r3, ip, r3, lsr #12
 8000198:	d002      	beq.n	80001a0 <__adddf3+0x84>
 800019a:	4252      	negs	r2, r2
 800019c:	eb63 0343 	sbc.w	r3, r3, r3, lsl #1
 80001a0:	ea94 0f05 	teq	r4, r5
 80001a4:	f000 80a7 	beq.w	80002f6 <__adddf3+0x1da>
 80001a8:	f1a4 0401 	sub.w	r4, r4, #1
 80001ac:	f1d5 0e20 	rsbs	lr, r5, #32
 80001b0:	db0d      	blt.n	80001ce <__adddf3+0xb2>
 80001b2:	fa02 fc0e 	lsl.w	ip, r2, lr
 80001b6:	fa22 f205 	lsr.w	r2, r2, r5
 80001ba:	1880      	adds	r0, r0, r2
 80001bc:	f141 0100 	adc.w	r1, r1, #0
 80001c0:	fa03 f20e 	lsl.w	r2, r3, lr
 80001c4:	1880      	adds	r0, r0, r2
 80001c6:	fa43 f305 	asr.w	r3, r3, r5
 80001ca:	4159      	adcs	r1, r3
 80001cc:	e00e      	b.n	80001ec <__adddf3+0xd0>
 80001ce:	f1a5 0520 	sub.w	r5, r5, #32
 80001d2:	f10e 0e20 	add.w	lr, lr, #32
 80001d6:	2a01      	cmp	r2, #1
 80001d8:	fa03 fc0e 	lsl.w	ip, r3, lr
 80001dc:	bf28      	it	cs
 80001de:	f04c 0c02 	orrcs.w	ip, ip, #2
 80001e2:	fa43 f305 	asr.w	r3, r3, r5
 80001e6:	18c0      	adds	r0, r0, r3
 80001e8:	eb51 71e3 	adcs.w	r1, r1, r3, asr #31
 80001ec:	f001 4500 	and.w	r5, r1, #2147483648	; 0x80000000
 80001f0:	d507      	bpl.n	8000202 <__adddf3+0xe6>
 80001f2:	f04f 0e00 	mov.w	lr, #0
 80001f6:	f1dc 0c00 	rsbs	ip, ip, #0
 80001fa:	eb7e 0000 	sbcs.w	r0, lr, r0
 80001fe:	eb6e 0101 	sbc.w	r1, lr, r1
 8000202:	f5b1 1f80 	cmp.w	r1, #1048576	; 0x100000
 8000206:	d31b      	bcc.n	8000240 <__adddf3+0x124>
 8000208:	f5b1 1f00 	cmp.w	r1, #2097152	; 0x200000
 800020c:	d30c      	bcc.n	8000228 <__adddf3+0x10c>
 800020e:	0849      	lsrs	r1, r1, #1
 8000210:	ea5f 0030 	movs.w	r0, r0, rrx
 8000214:	ea4f 0c3c 	mov.w	ip, ip, rrx
 8000218:	f104 0401 	add.w	r4, r4, #1
 800021c:	ea4f 5244 	mov.w	r2, r4, lsl #21
 8000220:	f512 0f80 	cmn.w	r2, #4194304	; 0x400000
 8000224:	f080 809a 	bcs.w	800035c <__adddf3+0x240>
 8000228:	f1bc 4f00 	cmp.w	ip, #2147483648	; 0x80000000
 800022c:	bf08      	it	eq
 800022e:	ea5f 0c50 	movseq.w	ip, r0, lsr #1
 8000232:	f150 0000 	adcs.w	r0, r0, #0
 8000236:	eb41 5104 	adc.w	r1, r1, r4, lsl #20
 800023a:	ea41 0105 	orr.w	r1, r1, r5
 800023e:	bd30      	pop	{r4, r5, pc}
 8000240:	ea5f 0c4c 	movs.w	ip, ip, lsl #1
 8000244:	4140      	adcs	r0, r0
 8000246:	eb41 0101 	adc.w	r1, r1, r1
 800024a:	f411 1f80 	tst.w	r1, #1048576	; 0x100000
 800024e:	f1a4 0401 	sub.w	r4, r4, #1
 8000252:	d1e9      	bne.n	8000228 <__adddf3+0x10c>
 8000254:	f091 0f00 	teq	r1, #0
 8000258:	bf04      	itt	eq
 800025a:	4601      	moveq	r1, r0
 800025c:	2000      	moveq	r0, #0
 800025e:	fab1 f381 	clz	r3, r1
 8000262:	bf08      	it	eq
 8000264:	3320      	addeq	r3, #32
 8000266:	f1a3 030b 	sub.w	r3, r3, #11
 800026a:	f1b3 0220 	subs.w	r2, r3, #32
 800026e:	da0c      	bge.n	800028a <__adddf3+0x16e>
 8000270:	320c      	adds	r2, #12
 8000272:	dd08      	ble.n	8000286 <__adddf3+0x16a>
 8000274:	f102 0c14 	add.w	ip, r2, #20
 8000278:	f1c2 020c 	rsb	r2, r2, #12
 800027c:	fa01 f00c 	lsl.w	r0, r1, ip
 8000280:	fa21 f102 	lsr.w	r1, r1, r2
 8000284:	e00c      	b.n	80002a0 <__adddf3+0x184>
 8000286:	f102 0214 	add.w	r2, r2, #20
 800028a:	bfd8      	it	le
 800028c:	f1c2 0c20 	rsble	ip, r2, #32
 8000290:	fa01 f102 	lsl.w	r1, r1, r2
 8000294:	fa20 fc0c 	lsr.w	ip, r0, ip
 8000298:	bfdc      	itt	le
 800029a:	ea41 010c 	orrle.w	r1, r1, ip
 800029e:	4090      	lslle	r0, r2
 80002a0:	1ae4      	subs	r4, r4, r3
 80002a2:	bfa2      	ittt	ge
 80002a4:	eb01 5104 	addge.w	r1, r1, r4, lsl #20
 80002a8:	4329      	orrge	r1, r5
 80002aa:	bd30      	popge	{r4, r5, pc}
 80002ac:	ea6f 0404 	mvn.w	r4, r4
 80002b0:	3c1f      	subs	r4, #31
 80002b2:	da1c      	bge.n	80002ee <__adddf3+0x1d2>
 80002b4:	340c      	adds	r4, #12
 80002b6:	dc0e      	bgt.n	80002d6 <__adddf3+0x1ba>
 80002b8:	f104 0414 	add.w	r4, r4, #20
 80002bc:	f1c4 0220 	rsb	r2, r4, #32
 80002c0:	fa20 f004 	lsr.w	r0, r0, r4
 80002c4:	fa01 f302 	lsl.w	r3, r1, r2
 80002c8:	ea40 0003 	orr.w	r0, r0, r3
 80002cc:	fa21 f304 	lsr.w	r3, r1, r4
 80002d0:	ea45 0103 	orr.w	r1, r5, r3
 80002d4:	bd30      	pop	{r4, r5, pc}
 80002d6:	f1c4 040c 	rsb	r4, r4, #12
 80002da:	f1c4 0220 	rsb	r2, r4, #32
 80002de:	fa20 f002 	lsr.w	r0, r0, r2
 80002e2:	fa01 f304 	lsl.w	r3, r1, r4
 80002e6:	ea40 0003 	orr.w	r0, r0, r3
 80002ea:	4629      	mov	r1, r5
 80002ec:	bd30      	pop	{r4, r5, pc}
 80002ee:	fa21 f004 	lsr.w	r0, r1, r4
 80002f2:	4629      	mov	r1, r5
 80002f4:	bd30      	pop	{r4, r5, pc}
 80002f6:	f094 0f00 	teq	r4, #0
 80002fa:	f483 1380 	eor.w	r3, r3, #1048576	; 0x100000
 80002fe:	bf06      	itte	eq
 8000300:	f481 1180 	eoreq.w	r1, r1, #1048576	; 0x100000
 8000304:	3401      	addeq	r4, #1
 8000306:	3d01      	subne	r5, #1
 8000308:	e74e      	b.n	80001a8 <__adddf3+0x8c>
 800030a:	ea7f 5c64 	mvns.w	ip, r4, asr #21
 800030e:	bf18      	it	ne
 8000310:	ea7f 5c65 	mvnsne.w	ip, r5, asr #21
 8000314:	d029      	beq.n	800036a <__adddf3+0x24e>
 8000316:	ea94 0f05 	teq	r4, r5
 800031a:	bf08      	it	eq
 800031c:	ea90 0f02 	teqeq	r0, r2
 8000320:	d005      	beq.n	800032e <__adddf3+0x212>
 8000322:	ea54 0c00 	orrs.w	ip, r4, r0
 8000326:	bf04      	itt	eq
 8000328:	4619      	moveq	r1, r3
 800032a:	4610      	moveq	r0, r2
 800032c:	bd30      	pop	{r4, r5, pc}
 800032e:	ea91 0f03 	teq	r1, r3
 8000332:	bf1e      	ittt	ne
 8000334:	2100      	movne	r1, #0
 8000336:	2000      	movne	r0, #0
 8000338:	bd30      	popne	{r4, r5, pc}
 800033a:	ea5f 5c54 	movs.w	ip, r4, lsr #21
 800033e:	d105      	bne.n	800034c <__adddf3+0x230>
 8000340:	0040      	lsls	r0, r0, #1
 8000342:	4149      	adcs	r1, r1
 8000344:	bf28      	it	cs
 8000346:	f041 4100 	orrcs.w	r1, r1, #2147483648	; 0x80000000
 800034a:	bd30      	pop	{r4, r5, pc}
 800034c:	f514 0480 	adds.w	r4, r4, #4194304	; 0x400000
 8000350:	bf3c      	itt	cc
 8000352:	f501 1180 	addcc.w	r1, r1, #1048576	; 0x100000
 8000356:	bd30      	popcc	{r4, r5, pc}
 8000358:	f001 4500 	and.w	r5, r1, #2147483648	; 0x80000000
 800035c:	f045 41fe 	orr.w	r1, r5, #2130706432	; 0x7f000000
 8000360:	f441 0170 	orr.w	r1, r1, #15728640	; 0xf00000
 8000364:	f04f 0000 	mov.w	r0, #0
 8000368:	bd30      	pop	{r4, r5, pc}
 800036a:	ea7f 5c64 	mvns.w	ip, r4, asr #21
 800036e:	bf1a      	itte	ne
 8000370:	4619      	movne	r1, r3
 8000372:	4610      	movne	r0, r2
 8000374:	ea7f 5c65 	mvnseq.w	ip, r5, asr #21
 8000378:	bf1c      	itt	ne
 800037a:	460b      	movne	r3, r1
 800037c:	4602      	movne	r2, r0
 800037e:	ea50 3401 	orrs.w	r4, r0, r1, lsl #12
 8000382:	bf06      	itte	eq
 8000384:	ea52 3503 	orrseq.w	r5, r2, r3, lsl #12
 8000388:	ea91 0f03 	teqeq	r1, r3
 800038c:	f441 2100 	orrne.w	r1, r1, #524288	; 0x80000
 8000390:	bd30      	pop	{r4, r5, pc}
 8000392:	bf00      	nop

08000394 <__aeabi_ui2d>:
 8000394:	f090 0f00 	teq	r0, #0
 8000398:	bf04      	itt	eq
 800039a:	2100      	moveq	r1, #0
 800039c:	4770      	bxeq	lr
 800039e:	b530      	push	{r4, r5, lr}
 80003a0:	f44f 6480 	mov.w	r4, #1024	; 0x400
 80003a4:	f104 0432 	add.w	r4, r4, #50	; 0x32
 80003a8:	f04f 0500 	mov.w	r5, #0
 80003ac:	f04f 0100 	mov.w	r1, #0
 80003b0:	e750      	b.n	8000254 <__adddf3+0x138>
 80003b2:	bf00      	nop

080003b4 <__aeabi_i2d>:
 80003b4:	f090 0f00 	teq	r0, #0
 80003b8:	bf04      	itt	eq
 80003ba:	2100      	moveq	r1, #0
 80003bc:	4770      	bxeq	lr
 80003be:	b530      	push	{r4, r5, lr}
 80003c0:	f44f 6480 	mov.w	r4, #1024	; 0x400
 80003c4:	f104 0432 	add.w	r4, r4, #50	; 0x32
 80003c8:	f010 4500 	ands.w	r5, r0, #2147483648	; 0x80000000
 80003cc:	bf48      	it	mi
 80003ce:	4240      	negmi	r0, r0
 80003d0:	f04f 0100 	mov.w	r1, #0
 80003d4:	e73e      	b.n	8000254 <__adddf3+0x138>
 80003d6:	bf00      	nop

080003d8 <__aeabi_f2d>:
 80003d8:	0042      	lsls	r2, r0, #1
 80003da:	ea4f 01e2 	mov.w	r1, r2, asr #3
 80003de:	ea4f 0131 	mov.w	r1, r1, rrx
 80003e2:	ea4f 7002 	mov.w	r0, r2, lsl #28
 80003e6:	bf1f      	itttt	ne
 80003e8:	f012 437f 	andsne.w	r3, r2, #4278190080	; 0xff000000
 80003ec:	f093 4f7f 	teqne	r3, #4278190080	; 0xff000000
 80003f0:	f081 5160 	eorne.w	r1, r1, #939524096	; 0x38000000
 80003f4:	4770      	bxne	lr
 80003f6:	f092 0f00 	teq	r2, #0
 80003fa:	bf14      	ite	ne
 80003fc:	f093 4f7f 	teqne	r3, #4278190080	; 0xff000000
 8000400:	4770      	bxeq	lr
 8000402:	b530      	push	{r4, r5, lr}
 8000404:	f44f 7460 	mov.w	r4, #896	; 0x380
 8000408:	f001 4500 	and.w	r5, r1, #2147483648	; 0x80000000
 800040c:	f021 4100 	bic.w	r1, r1, #2147483648	; 0x80000000
 8000410:	e720      	b.n	8000254 <__adddf3+0x138>
 8000412:	bf00      	nop

08000414 <__aeabi_ul2d>:
 8000414:	ea50 0201 	orrs.w	r2, r0, r1
 8000418:	bf08      	it	eq
 800041a:	4770      	bxeq	lr
 800041c:	b530      	push	{r4, r5, lr}
 800041e:	f04f 0500 	mov.w	r5, #0
 8000422:	e00a      	b.n	800043a <__aeabi_l2d+0x16>

08000424 <__aeabi_l2d>:
 8000424:	ea50 0201 	orrs.w	r2, r0, r1
 8000428:	bf08      	it	eq
 800042a:	4770      	bxeq	lr
 800042c:	b530      	push	{r4, r5, lr}
 800042e:	f011 4500 	ands.w	r5, r1, #2147483648	; 0x80000000
 8000432:	d502      	bpl.n	800043a <__aeabi_l2d+0x16>
 8000434:	4240      	negs	r0, r0
 8000436:	eb61 0141 	sbc.w	r1, r1, r1, lsl #1
 800043a:	f44f 6480 	mov.w	r4, #1024	; 0x400
 800043e:	f104 0432 	add.w	r4, r4, #50	; 0x32
 8000442:	ea5f 5c91 	movs.w	ip, r1, lsr #22
 8000446:	f43f aedc 	beq.w	8000202 <__adddf3+0xe6>
 800044a:	f04f 0203 	mov.w	r2, #3
 800044e:	ea5f 0cdc 	movs.w	ip, ip, lsr #3
 8000452:	bf18      	it	ne
 8000454:	3203      	addne	r2, #3
 8000456:	ea5f 0cdc 	movs.w	ip, ip, lsr #3
 800045a:	bf18      	it	ne
 800045c:	3203      	addne	r2, #3
 800045e:	eb02 02dc 	add.w	r2, r2, ip, lsr #3
 8000462:	f1c2 0320 	rsb	r3, r2, #32
 8000466:	fa00 fc03 	lsl.w	ip, r0, r3
 800046a:	fa20 f002 	lsr.w	r0, r0, r2
 800046e:	fa01 fe03 	lsl.w	lr, r1, r3
 8000472:	ea40 000e 	orr.w	r0, r0, lr
 8000476:	fa21 f102 	lsr.w	r1, r1, r2
 800047a:	4414      	add	r4, r2
 800047c:	e6c1      	b.n	8000202 <__adddf3+0xe6>
 800047e:	bf00      	nop

08000480 <__aeabi_dmul>:
 8000480:	b570      	push	{r4, r5, r6, lr}
 8000482:	f04f 0cff 	mov.w	ip, #255	; 0xff
 8000486:	f44c 6ce0 	orr.w	ip, ip, #1792	; 0x700
 800048a:	ea1c 5411 	ands.w	r4, ip, r1, lsr #20
 800048e:	bf1d      	ittte	ne
 8000490:	ea1c 5513 	andsne.w	r5, ip, r3, lsr #20
 8000494:	ea94 0f0c 	teqne	r4, ip
 8000498:	ea95 0f0c 	teqne	r5, ip
 800049c:	f000 f8de 	bleq	800065c <__aeabi_dmul+0x1dc>
 80004a0:	442c      	add	r4, r5
 80004a2:	ea81 0603 	eor.w	r6, r1, r3
 80004a6:	ea21 514c 	bic.w	r1, r1, ip, lsl #21
 80004aa:	ea23 534c 	bic.w	r3, r3, ip, lsl #21
 80004ae:	ea50 3501 	orrs.w	r5, r0, r1, lsl #12
 80004b2:	bf18      	it	ne
 80004b4:	ea52 3503 	orrsne.w	r5, r2, r3, lsl #12
 80004b8:	f441 1180 	orr.w	r1, r1, #1048576	; 0x100000
 80004bc:	f443 1380 	orr.w	r3, r3, #1048576	; 0x100000
 80004c0:	d038      	beq.n	8000534 <__aeabi_dmul+0xb4>
 80004c2:	fba0 ce02 	umull	ip, lr, r0, r2
 80004c6:	f04f 0500 	mov.w	r5, #0
 80004ca:	fbe1 e502 	umlal	lr, r5, r1, r2
 80004ce:	f006 4200 	and.w	r2, r6, #2147483648	; 0x80000000
 80004d2:	fbe0 e503 	umlal	lr, r5, r0, r3
 80004d6:	f04f 0600 	mov.w	r6, #0
 80004da:	fbe1 5603 	umlal	r5, r6, r1, r3
 80004de:	f09c 0f00 	teq	ip, #0
 80004e2:	bf18      	it	ne
 80004e4:	f04e 0e01 	orrne.w	lr, lr, #1
 80004e8:	f1a4 04ff 	sub.w	r4, r4, #255	; 0xff
 80004ec:	f5b6 7f00 	cmp.w	r6, #512	; 0x200
 80004f0:	f564 7440 	sbc.w	r4, r4, #768	; 0x300
 80004f4:	d204      	bcs.n	8000500 <__aeabi_dmul+0x80>
 80004f6:	ea5f 0e4e 	movs.w	lr, lr, lsl #1
 80004fa:	416d      	adcs	r5, r5
 80004fc:	eb46 0606 	adc.w	r6, r6, r6
 8000500:	ea42 21c6 	orr.w	r1, r2, r6, lsl #11
 8000504:	ea41 5155 	orr.w	r1, r1, r5, lsr #21
 8000508:	ea4f 20c5 	mov.w	r0, r5, lsl #11
 800050c:	ea40 505e 	orr.w	r0, r0, lr, lsr #21
 8000510:	ea4f 2ece 	mov.w	lr, lr, lsl #11
 8000514:	f1b4 0cfd 	subs.w	ip, r4, #253	; 0xfd
 8000518:	bf88      	it	hi
 800051a:	f5bc 6fe0 	cmphi.w	ip, #1792	; 0x700
 800051e:	d81e      	bhi.n	800055e <__aeabi_dmul+0xde>
 8000520:	f1be 4f00 	cmp.w	lr, #2147483648	; 0x80000000
 8000524:	bf08      	it	eq
 8000526:	ea5f 0e50 	movseq.w	lr, r0, lsr #1
 800052a:	f150 0000 	adcs.w	r0, r0, #0
 800052e:	eb41 5104 	adc.w	r1, r1, r4, lsl #20
 8000532:	bd70      	pop	{r4, r5, r6, pc}
 8000534:	f006 4600 	and.w	r6, r6, #2147483648	; 0x80000000
 8000538:	ea46 0101 	orr.w	r1, r6, r1
 800053c:	ea40 0002 	orr.w	r0, r0, r2
 8000540:	ea81 0103 	eor.w	r1, r1, r3
 8000544:	ebb4 045c 	subs.w	r4, r4, ip, lsr #1
 8000548:	bfc2      	ittt	gt
 800054a:	ebd4 050c 	rsbsgt	r5, r4, ip
 800054e:	ea41 5104 	orrgt.w	r1, r1, r4, lsl #20
 8000552:	bd70      	popgt	{r4, r5, r6, pc}
 8000554:	f441 1180 	orr.w	r1, r1, #1048576	; 0x100000
 8000558:	f04f 0e00 	mov.w	lr, #0
 800055c:	3c01      	subs	r4, #1
 800055e:	f300 80ab 	bgt.w	80006b8 <__aeabi_dmul+0x238>
 8000562:	f114 0f36 	cmn.w	r4, #54	; 0x36
 8000566:	bfde      	ittt	le
 8000568:	2000      	movle	r0, #0
 800056a:	f001 4100 	andle.w	r1, r1, #2147483648	; 0x80000000
 800056e:	bd70      	pople	{r4, r5, r6, pc}
 8000570:	f1c4 0400 	rsb	r4, r4, #0
 8000574:	3c20      	subs	r4, #32
 8000576:	da35      	bge.n	80005e4 <__aeabi_dmul+0x164>
 8000578:	340c      	adds	r4, #12
 800057a:	dc1b      	bgt.n	80005b4 <__aeabi_dmul+0x134>
 800057c:	f104 0414 	add.w	r4, r4, #20
 8000580:	f1c4 0520 	rsb	r5, r4, #32
 8000584:	fa00 f305 	lsl.w	r3, r0, r5
 8000588:	fa20 f004 	lsr.w	r0, r0, r4
 800058c:	fa01 f205 	lsl.w	r2, r1, r5
 8000590:	ea40 0002 	orr.w	r0, r0, r2
 8000594:	f001 4200 	and.w	r2, r1, #2147483648	; 0x80000000
 8000598:	f021 4100 	bic.w	r1, r1, #2147483648	; 0x80000000
 800059c:	eb10 70d3 	adds.w	r0, r0, r3, lsr #31
 80005a0:	fa21 f604 	lsr.w	r6, r1, r4
 80005a4:	eb42 0106 	adc.w	r1, r2, r6
 80005a8:	ea5e 0e43 	orrs.w	lr, lr, r3, lsl #1
 80005ac:	bf08      	it	eq
 80005ae:	ea20 70d3 	biceq.w	r0, r0, r3, lsr #31
 80005b2:	bd70      	pop	{r4, r5, r6, pc}
 80005b4:	f1c4 040c 	rsb	r4, r4, #12
 80005b8:	f1c4 0520 	rsb	r5, r4, #32
 80005bc:	fa00 f304 	lsl.w	r3, r0, r4
 80005c0:	fa20 f005 	lsr.w	r0, r0, r5
 80005c4:	fa01 f204 	lsl.w	r2, r1, r4
 80005c8:	ea40 0002 	orr.w	r0, r0, r2
 80005cc:	f001 4100 	and.w	r1, r1, #2147483648	; 0x80000000
 80005d0:	eb10 70d3 	adds.w	r0, r0, r3, lsr #31
 80005d4:	f141 0100 	adc.w	r1, r1, #0
 80005d8:	ea5e 0e43 	orrs.w	lr, lr, r3, lsl #1
 80005dc:	bf08      	it	eq
 80005de:	ea20 70d3 	biceq.w	r0, r0, r3, lsr #31
 80005e2:	bd70      	pop	{r4, r5, r6, pc}
 80005e4:	f1c4 0520 	rsb	r5, r4, #32
 80005e8:	fa00 f205 	lsl.w	r2, r0, r5
 80005ec:	ea4e 0e02 	orr.w	lr, lr, r2
 80005f0:	fa20 f304 	lsr.w	r3, r0, r4
 80005f4:	fa01 f205 	lsl.w	r2, r1, r5
 80005f8:	ea43 0302 	orr.w	r3, r3, r2
 80005fc:	fa21 f004 	lsr.w	r0, r1, r4
 8000600:	f001 4100 	and.w	r1, r1, #2147483648	; 0x80000000
 8000604:	fa21 f204 	lsr.w	r2, r1, r4
 8000608:	ea20 0002 	bic.w	r0, r0, r2
 800060c:	eb00 70d3 	add.w	r0, r0, r3, lsr #31
 8000610:	ea5e 0e43 	orrs.w	lr, lr, r3, lsl #1
 8000614:	bf08      	it	eq
 8000616:	ea20 70d3 	biceq.w	r0, r0, r3, lsr #31
 800061a:	bd70      	pop	{r4, r5, r6, pc}
 800061c:	f094 0f00 	teq	r4, #0
 8000620:	d10f      	bne.n	8000642 <__aeabi_dmul+0x1c2>
 8000622:	f001 4600 	and.w	r6, r1, #2147483648	; 0x80000000
 8000626:	0040      	lsls	r0, r0, #1
 8000628:	eb41 0101 	adc.w	r1, r1, r1
 800062c:	f411 1f80 	tst.w	r1, #1048576	; 0x100000
 8000630:	bf08      	it	eq
 8000632:	3c01      	subeq	r4, #1
 8000634:	d0f7      	beq.n	8000626 <__aeabi_dmul+0x1a6>
 8000636:	ea41 0106 	orr.w	r1, r1, r6
 800063a:	f095 0f00 	teq	r5, #0
 800063e:	bf18      	it	ne
 8000640:	4770      	bxne	lr
 8000642:	f003 4600 	and.w	r6, r3, #2147483648	; 0x80000000
 8000646:	0052      	lsls	r2, r2, #1
 8000648:	eb43 0303 	adc.w	r3, r3, r3
 800064c:	f413 1f80 	tst.w	r3, #1048576	; 0x100000
 8000650:	bf08      	it	eq
 8000652:	3d01      	subeq	r5, #1
 8000654:	d0f7      	beq.n	8000646 <__aeabi_dmul+0x1c6>
 8000656:	ea43 0306 	orr.w	r3, r3, r6
 800065a:	4770      	bx	lr
 800065c:	ea94 0f0c 	teq	r4, ip
 8000660:	ea0c 5513 	and.w	r5, ip, r3, lsr #20
 8000664:	bf18      	it	ne
 8000666:	ea95 0f0c 	teqne	r5, ip
 800066a:	d00c      	beq.n	8000686 <__aeabi_dmul+0x206>
 800066c:	ea50 0641 	orrs.w	r6, r0, r1, lsl #1
 8000670:	bf18      	it	ne
 8000672:	ea52 0643 	orrsne.w	r6, r2, r3, lsl #1
 8000676:	d1d1      	bne.n	800061c <__aeabi_dmul+0x19c>
 8000678:	ea81 0103 	eor.w	r1, r1, r3
 800067c:	f001 4100 	and.w	r1, r1, #2147483648	; 0x80000000
 8000680:	f04f 0000 	mov.w	r0, #0
 8000684:	bd70      	pop	{r4, r5, r6, pc}
 8000686:	ea50 0641 	orrs.w	r6, r0, r1, lsl #1
 800068a:	bf06      	itte	eq
 800068c:	4610      	moveq	r0, r2
 800068e:	4619      	moveq	r1, r3
 8000690:	ea52 0643 	orrsne.w	r6, r2, r3, lsl #1
 8000694:	d019      	beq.n	80006ca <__aeabi_dmul+0x24a>
 8000696:	ea94 0f0c 	teq	r4, ip
 800069a:	d102      	bne.n	80006a2 <__aeabi_dmul+0x222>
 800069c:	ea50 3601 	orrs.w	r6, r0, r1, lsl #12
 80006a0:	d113      	bne.n	80006ca <__aeabi_dmul+0x24a>
 80006a2:	ea95 0f0c 	teq	r5, ip
 80006a6:	d105      	bne.n	80006b4 <__aeabi_dmul+0x234>
 80006a8:	ea52 3603 	orrs.w	r6, r2, r3, lsl #12
 80006ac:	bf1c      	itt	ne
 80006ae:	4610      	movne	r0, r2
 80006b0:	4619      	movne	r1, r3
 80006b2:	d10a      	bne.n	80006ca <__aeabi_dmul+0x24a>
 80006b4:	ea81 0103 	eor.w	r1, r1, r3
 80006b8:	f001 4100 	and.w	r1, r1, #2147483648	; 0x80000000
 80006bc:	f041 41fe 	orr.w	r1, r1, #2130706432	; 0x7f000000
 80006c0:	f441 0170 	orr.w	r1, r1, #15728640	; 0xf00000
 80006c4:	f04f 0000 	mov.w	r0, #0
 80006c8:	bd70      	pop	{r4, r5, r6, pc}
 80006ca:	f041 41fe 	orr.w	r1, r1, #2130706432	; 0x7f000000
 80006ce:	f441 0178 	orr.w	r1, r1, #16252928	; 0xf80000
 80006d2:	bd70      	pop	{r4, r5, r6, pc}

080006d4 <__aeabi_ddiv>:
 80006d4:	b570      	push	{r4, r5, r6, lr}
 80006d6:	f04f 0cff 	mov.w	ip, #255	; 0xff
 80006da:	f44c 6ce0 	orr.w	ip, ip, #1792	; 0x700
 80006de:	ea1c 5411 	ands.w	r4, ip, r1, lsr #20
 80006e2:	bf1d      	ittte	ne
 80006e4:	ea1c 5513 	andsne.w	r5, ip, r3, lsr #20
 80006e8:	ea94 0f0c 	teqne	r4, ip
 80006ec:	ea95 0f0c 	teqne	r5, ip
 80006f0:	f000 f8a7 	bleq	8000842 <__aeabi_ddiv+0x16e>
 80006f4:	eba4 0405 	sub.w	r4, r4, r5
 80006f8:	ea81 0e03 	eor.w	lr, r1, r3
 80006fc:	ea52 3503 	orrs.w	r5, r2, r3, lsl #12
 8000700:	ea4f 3101 	mov.w	r1, r1, lsl #12
 8000704:	f000 8088 	beq.w	8000818 <__aeabi_ddiv+0x144>
 8000708:	ea4f 3303 	mov.w	r3, r3, lsl #12
 800070c:	f04f 5580 	mov.w	r5, #268435456	; 0x10000000
 8000710:	ea45 1313 	orr.w	r3, r5, r3, lsr #4
 8000714:	ea43 6312 	orr.w	r3, r3, r2, lsr #24
 8000718:	ea4f 2202 	mov.w	r2, r2, lsl #8
 800071c:	ea45 1511 	orr.w	r5, r5, r1, lsr #4
 8000720:	ea45 6510 	orr.w	r5, r5, r0, lsr #24
 8000724:	ea4f 2600 	mov.w	r6, r0, lsl #8
 8000728:	f00e 4100 	and.w	r1, lr, #2147483648	; 0x80000000
 800072c:	429d      	cmp	r5, r3
 800072e:	bf08      	it	eq
 8000730:	4296      	cmpeq	r6, r2
 8000732:	f144 04fd 	adc.w	r4, r4, #253	; 0xfd
 8000736:	f504 7440 	add.w	r4, r4, #768	; 0x300
 800073a:	d202      	bcs.n	8000742 <__aeabi_ddiv+0x6e>
 800073c:	085b      	lsrs	r3, r3, #1
 800073e:	ea4f 0232 	mov.w	r2, r2, rrx
 8000742:	1ab6      	subs	r6, r6, r2
 8000744:	eb65 0503 	sbc.w	r5, r5, r3
 8000748:	085b      	lsrs	r3, r3, #1
 800074a:	ea4f 0232 	mov.w	r2, r2, rrx
 800074e:	f44f 1080 	mov.w	r0, #1048576	; 0x100000
 8000752:	f44f 2c00 	mov.w	ip, #524288	; 0x80000
 8000756:	ebb6 0e02 	subs.w	lr, r6, r2
 800075a:	eb75 0e03 	sbcs.w	lr, r5, r3
 800075e:	bf22      	ittt	cs
 8000760:	1ab6      	subcs	r6, r6, r2
 8000762:	4675      	movcs	r5, lr
 8000764:	ea40 000c 	orrcs.w	r0, r0, ip
 8000768:	085b      	lsrs	r3, r3, #1
 800076a:	ea4f 0232 	mov.w	r2, r2, rrx
 800076e:	ebb6 0e02 	subs.w	lr, r6, r2
 8000772:	eb75 0e03 	sbcs.w	lr, r5, r3
 8000776:	bf22      	ittt	cs
 8000778:	1ab6      	subcs	r6, r6, r2
 800077a:	4675      	movcs	r5, lr
 800077c:	ea40 005c 	orrcs.w	r0, r0, ip, lsr #1
 8000780:	085b      	lsrs	r3, r3, #1
 8000782:	ea4f 0232 	mov.w	r2, r2, rrx
 8000786:	ebb6 0e02 	subs.w	lr, r6, r2
 800078a:	eb75 0e03 	sbcs.w	lr, r5, r3
 800078e:	bf22      	ittt	cs
 8000790:	1ab6      	subcs	r6, r6, r2
 8000792:	4675      	movcs	r5, lr
 8000794:	ea40 009c 	orrcs.w	r0, r0, ip, lsr #2
 8000798:	085b      	lsrs	r3, r3, #1
 800079a:	ea4f 0232 	mov.w	r2, r2, rrx
 800079e:	ebb6 0e02 	subs.w	lr, r6, r2
 80007a2:	eb75 0e03 	sbcs.w	lr, r5, r3
 80007a6:	bf22      	ittt	cs
 80007a8:	1ab6      	subcs	r6, r6, r2
 80007aa:	4675      	movcs	r5, lr
 80007ac:	ea40 00dc 	orrcs.w	r0, r0, ip, lsr #3
 80007b0:	ea55 0e06 	orrs.w	lr, r5, r6
 80007b4:	d018      	beq.n	80007e8 <__aeabi_ddiv+0x114>
 80007b6:	ea4f 1505 	mov.w	r5, r5, lsl #4
 80007ba:	ea45 7516 	orr.w	r5, r5, r6, lsr #28
 80007be:	ea4f 1606 	mov.w	r6, r6, lsl #4
 80007c2:	ea4f 03c3 	mov.w	r3, r3, lsl #3
 80007c6:	ea43 7352 	orr.w	r3, r3, r2, lsr #29
 80007ca:	ea4f 02c2 	mov.w	r2, r2, lsl #3
 80007ce:	ea5f 1c1c 	movs.w	ip, ip, lsr #4
 80007d2:	d1c0      	bne.n	8000756 <__aeabi_ddiv+0x82>
 80007d4:	f411 1f80 	tst.w	r1, #1048576	; 0x100000
 80007d8:	d10b      	bne.n	80007f2 <__aeabi_ddiv+0x11e>
 80007da:	ea41 0100 	orr.w	r1, r1, r0
 80007de:	f04f 0000 	mov.w	r0, #0
 80007e2:	f04f 4c00 	mov.w	ip, #2147483648	; 0x80000000
 80007e6:	e7b6      	b.n	8000756 <__aeabi_ddiv+0x82>
 80007e8:	f411 1f80 	tst.w	r1, #1048576	; 0x100000
 80007ec:	bf04      	itt	eq
 80007ee:	4301      	orreq	r1, r0
 80007f0:	2000      	moveq	r0, #0
 80007f2:	f1b4 0cfd 	subs.w	ip, r4, #253	; 0xfd
 80007f6:	bf88      	it	hi
 80007f8:	f5bc 6fe0 	cmphi.w	ip, #1792	; 0x700
 80007fc:	f63f aeaf 	bhi.w	800055e <__aeabi_dmul+0xde>
 8000800:	ebb5 0c03 	subs.w	ip, r5, r3
 8000804:	bf04      	itt	eq
 8000806:	ebb6 0c02 	subseq.w	ip, r6, r2
 800080a:	ea5f 0c50 	movseq.w	ip, r0, lsr #1
 800080e:	f150 0000 	adcs.w	r0, r0, #0
 8000812:	eb41 5104 	adc.w	r1, r1, r4, lsl #20
 8000816:	bd70      	pop	{r4, r5, r6, pc}
 8000818:	f00e 4e00 	and.w	lr, lr, #2147483648	; 0x80000000
 800081c:	ea4e 3111 	orr.w	r1, lr, r1, lsr #12
 8000820:	eb14 045c 	adds.w	r4, r4, ip, lsr #1
 8000824:	bfc2      	ittt	gt
 8000826:	ebd4 050c 	rsbsgt	r5, r4, ip
 800082a:	ea41 5104 	orrgt.w	r1, r1, r4, lsl #20
 800082e:	bd70      	popgt	{r4, r5, r6, pc}
 8000830:	f441 1180 	orr.w	r1, r1, #1048576	; 0x100000
 8000834:	f04f 0e00 	mov.w	lr, #0
 8000838:	3c01      	subs	r4, #1
 800083a:	e690      	b.n	800055e <__aeabi_dmul+0xde>
 800083c:	ea45 0e06 	orr.w	lr, r5, r6
 8000840:	e68d      	b.n	800055e <__aeabi_dmul+0xde>
 8000842:	ea0c 5513 	and.w	r5, ip, r3, lsr #20
 8000846:	ea94 0f0c 	teq	r4, ip
 800084a:	bf08      	it	eq
 800084c:	ea95 0f0c 	teqeq	r5, ip
 8000850:	f43f af3b 	beq.w	80006ca <__aeabi_dmul+0x24a>
 8000854:	ea94 0f0c 	teq	r4, ip
 8000858:	d10a      	bne.n	8000870 <__aeabi_ddiv+0x19c>
 800085a:	ea50 3401 	orrs.w	r4, r0, r1, lsl #12
 800085e:	f47f af34 	bne.w	80006ca <__aeabi_dmul+0x24a>
 8000862:	ea95 0f0c 	teq	r5, ip
 8000866:	f47f af25 	bne.w	80006b4 <__aeabi_dmul+0x234>
 800086a:	4610      	mov	r0, r2
 800086c:	4619      	mov	r1, r3
 800086e:	e72c      	b.n	80006ca <__aeabi_dmul+0x24a>
 8000870:	ea95 0f0c 	teq	r5, ip
 8000874:	d106      	bne.n	8000884 <__aeabi_ddiv+0x1b0>
 8000876:	ea52 3503 	orrs.w	r5, r2, r3, lsl #12
 800087a:	f43f aefd 	beq.w	8000678 <__aeabi_dmul+0x1f8>
 800087e:	4610      	mov	r0, r2
 8000880:	4619      	mov	r1, r3
 8000882:	e722      	b.n	80006ca <__aeabi_dmul+0x24a>
 8000884:	ea50 0641 	orrs.w	r6, r0, r1, lsl #1
 8000888:	bf18      	it	ne
 800088a:	ea52 0643 	orrsne.w	r6, r2, r3, lsl #1
 800088e:	f47f aec5 	bne.w	800061c <__aeabi_dmul+0x19c>
 8000892:	ea50 0441 	orrs.w	r4, r0, r1, lsl #1
 8000896:	f47f af0d 	bne.w	80006b4 <__aeabi_dmul+0x234>
 800089a:	ea52 0543 	orrs.w	r5, r2, r3, lsl #1
 800089e:	f47f aeeb 	bne.w	8000678 <__aeabi_dmul+0x1f8>
 80008a2:	e712      	b.n	80006ca <__aeabi_dmul+0x24a>

080008a4 <__gedf2>:
 80008a4:	f04f 3cff 	mov.w	ip, #4294967295
 80008a8:	e006      	b.n	80008b8 <__cmpdf2+0x4>
 80008aa:	bf00      	nop

080008ac <__ledf2>:
 80008ac:	f04f 0c01 	mov.w	ip, #1
 80008b0:	e002      	b.n	80008b8 <__cmpdf2+0x4>
 80008b2:	bf00      	nop

080008b4 <__cmpdf2>:
 80008b4:	f04f 0c01 	mov.w	ip, #1
 80008b8:	f84d cd04 	str.w	ip, [sp, #-4]!
 80008bc:	ea4f 0c41 	mov.w	ip, r1, lsl #1
 80008c0:	ea7f 5c6c 	mvns.w	ip, ip, asr #21
 80008c4:	ea4f 0c43 	mov.w	ip, r3, lsl #1
 80008c8:	bf18      	it	ne
 80008ca:	ea7f 5c6c 	mvnsne.w	ip, ip, asr #21
 80008ce:	d01b      	beq.n	8000908 <__cmpdf2+0x54>
 80008d0:	b001      	add	sp, #4
 80008d2:	ea50 0c41 	orrs.w	ip, r0, r1, lsl #1
 80008d6:	bf0c      	ite	eq
 80008d8:	ea52 0c43 	orrseq.w	ip, r2, r3, lsl #1
 80008dc:	ea91 0f03 	teqne	r1, r3
 80008e0:	bf02      	ittt	eq
 80008e2:	ea90 0f02 	teqeq	r0, r2
 80008e6:	2000      	moveq	r0, #0
 80008e8:	4770      	bxeq	lr
 80008ea:	f110 0f00 	cmn.w	r0, #0
 80008ee:	ea91 0f03 	teq	r1, r3
 80008f2:	bf58      	it	pl
 80008f4:	4299      	cmppl	r1, r3
 80008f6:	bf08      	it	eq
 80008f8:	4290      	cmpeq	r0, r2
 80008fa:	bf2c      	ite	cs
 80008fc:	17d8      	asrcs	r0, r3, #31
 80008fe:	ea6f 70e3 	mvncc.w	r0, r3, asr #31
 8000902:	f040 0001 	orr.w	r0, r0, #1
 8000906:	4770      	bx	lr
 8000908:	ea4f 0c41 	mov.w	ip, r1, lsl #1
 800090c:	ea7f 5c6c 	mvns.w	ip, ip, asr #21
 8000910:	d102      	bne.n	8000918 <__cmpdf2+0x64>
 8000912:	ea50 3c01 	orrs.w	ip, r0, r1, lsl #12
 8000916:	d107      	bne.n	8000928 <__cmpdf2+0x74>
 8000918:	ea4f 0c43 	mov.w	ip, r3, lsl #1
 800091c:	ea7f 5c6c 	mvns.w	ip, ip, asr #21
 8000920:	d1d6      	bne.n	80008d0 <__cmpdf2+0x1c>
 8000922:	ea52 3c03 	orrs.w	ip, r2, r3, lsl #12
 8000926:	d0d3      	beq.n	80008d0 <__cmpdf2+0x1c>
 8000928:	f85d 0b04 	ldr.w	r0, [sp], #4
 800092c:	4770      	bx	lr
 800092e:	bf00      	nop

08000930 <__aeabi_cdrcmple>:
 8000930:	4684      	mov	ip, r0
 8000932:	4610      	mov	r0, r2
 8000934:	4662      	mov	r2, ip
 8000936:	468c      	mov	ip, r1
 8000938:	4619      	mov	r1, r3
 800093a:	4663      	mov	r3, ip
 800093c:	e000      	b.n	8000940 <__aeabi_cdcmpeq>
 800093e:	bf00      	nop

08000940 <__aeabi_cdcmpeq>:
 8000940:	b501      	push	{r0, lr}
 8000942:	f7ff ffb7 	bl	80008b4 <__cmpdf2>
 8000946:	2800      	cmp	r0, #0
 8000948:	bf48      	it	mi
 800094a:	f110 0f00 	cmnmi.w	r0, #0
 800094e:	bd01      	pop	{r0, pc}

08000950 <__aeabi_dcmpeq>:
 8000950:	f84d ed08 	str.w	lr, [sp, #-8]!
 8000954:	f7ff fff4 	bl	8000940 <__aeabi_cdcmpeq>
 8000958:	bf0c      	ite	eq
 800095a:	2001      	moveq	r0, #1
 800095c:	2000      	movne	r0, #0
 800095e:	f85d fb08 	ldr.w	pc, [sp], #8
 8000962:	bf00      	nop

08000964 <__aeabi_dcmplt>:
 8000964:	f84d ed08 	str.w	lr, [sp, #-8]!
 8000968:	f7ff ffea 	bl	8000940 <__aeabi_cdcmpeq>
 800096c:	bf34      	ite	cc
 800096e:	2001      	movcc	r0, #1
 8000970:	2000      	movcs	r0, #0
 8000972:	f85d fb08 	ldr.w	pc, [sp], #8
 8000976:	bf00      	nop

08000978 <__aeabi_dcmple>:
 8000978:	f84d ed08 	str.w	lr, [sp, #-8]!
 800097c:	f7ff ffe0 	bl	8000940 <__aeabi_cdcmpeq>
 8000980:	bf94      	ite	ls
 8000982:	2001      	movls	r0, #1
 8000984:	2000      	movhi	r0, #0
 8000986:	f85d fb08 	ldr.w	pc, [sp], #8
 800098a:	bf00      	nop

0800098c <__aeabi_dcmpge>:
 800098c:	f84d ed08 	str.w	lr, [sp, #-8]!
 8000990:	f7ff ffce 	bl	8000930 <__aeabi_cdrcmple>
 8000994:	bf94      	ite	ls
 8000996:	2001      	movls	r0, #1
 8000998:	2000      	movhi	r0, #0
 800099a:	f85d fb08 	ldr.w	pc, [sp], #8
 800099e:	bf00      	nop

080009a0 <__aeabi_dcmpgt>:
 80009a0:	f84d ed08 	str.w	lr, [sp, #-8]!
 80009a4:	f7ff ffc4 	bl	8000930 <__aeabi_cdrcmple>
 80009a8:	bf34      	ite	cc
 80009aa:	2001      	movcc	r0, #1
 80009ac:	2000      	movcs	r0, #0
 80009ae:	f85d fb08 	ldr.w	pc, [sp], #8
 80009b2:	bf00      	nop

080009b4 <__aeabi_d2uiz>:
 80009b4:	004a      	lsls	r2, r1, #1
 80009b6:	d211      	bcs.n	80009dc <__aeabi_d2uiz+0x28>
 80009b8:	f512 1200 	adds.w	r2, r2, #2097152	; 0x200000
 80009bc:	d211      	bcs.n	80009e2 <__aeabi_d2uiz+0x2e>
 80009be:	d50d      	bpl.n	80009dc <__aeabi_d2uiz+0x28>
 80009c0:	f46f 7378 	mvn.w	r3, #992	; 0x3e0
 80009c4:	ebb3 5262 	subs.w	r2, r3, r2, asr #21
 80009c8:	d40e      	bmi.n	80009e8 <__aeabi_d2uiz+0x34>
 80009ca:	ea4f 23c1 	mov.w	r3, r1, lsl #11
 80009ce:	f043 4300 	orr.w	r3, r3, #2147483648	; 0x80000000
 80009d2:	ea43 5350 	orr.w	r3, r3, r0, lsr #21
 80009d6:	fa23 f002 	lsr.w	r0, r3, r2
 80009da:	4770      	bx	lr
 80009dc:	f04f 0000 	mov.w	r0, #0
 80009e0:	4770      	bx	lr
 80009e2:	ea50 3001 	orrs.w	r0, r0, r1, lsl #12
 80009e6:	d102      	bne.n	80009ee <__aeabi_d2uiz+0x3a>
 80009e8:	f04f 30ff 	mov.w	r0, #4294967295
 80009ec:	4770      	bx	lr
 80009ee:	f04f 0000 	mov.w	r0, #0
 80009f2:	4770      	bx	lr

080009f4 <__aeabi_d2f>:
 80009f4:	ea4f 0241 	mov.w	r2, r1, lsl #1
 80009f8:	f1b2 43e0 	subs.w	r3, r2, #1879048192	; 0x70000000
 80009fc:	bf24      	itt	cs
 80009fe:	f5b3 1c00 	subscs.w	ip, r3, #2097152	; 0x200000
 8000a02:	f1dc 5cfe 	rsbscs	ip, ip, #532676608	; 0x1fc00000
 8000a06:	d90d      	bls.n	8000a24 <__aeabi_d2f+0x30>
 8000a08:	f001 4c00 	and.w	ip, r1, #2147483648	; 0x80000000
 8000a0c:	ea4f 02c0 	mov.w	r2, r0, lsl #3
 8000a10:	ea4c 7050 	orr.w	r0, ip, r0, lsr #29
 8000a14:	f1b2 4f00 	cmp.w	r2, #2147483648	; 0x80000000
 8000a18:	eb40 0083 	adc.w	r0, r0, r3, lsl #2
 8000a1c:	bf08      	it	eq
 8000a1e:	f020 0001 	biceq.w	r0, r0, #1
 8000a22:	4770      	bx	lr
 8000a24:	f011 4f80 	tst.w	r1, #1073741824	; 0x40000000
 8000a28:	d121      	bne.n	8000a6e <__aeabi_d2f+0x7a>
 8000a2a:	f113 7238 	adds.w	r2, r3, #48234496	; 0x2e00000
 8000a2e:	bfbc      	itt	lt
 8000a30:	f001 4000 	andlt.w	r0, r1, #2147483648	; 0x80000000
 8000a34:	4770      	bxlt	lr
 8000a36:	f441 1180 	orr.w	r1, r1, #1048576	; 0x100000
 8000a3a:	ea4f 5252 	mov.w	r2, r2, lsr #21
 8000a3e:	f1c2 0218 	rsb	r2, r2, #24
 8000a42:	f1c2 0c20 	rsb	ip, r2, #32
 8000a46:	fa10 f30c 	lsls.w	r3, r0, ip
 8000a4a:	fa20 f002 	lsr.w	r0, r0, r2
 8000a4e:	bf18      	it	ne
 8000a50:	f040 0001 	orrne.w	r0, r0, #1
 8000a54:	ea4f 23c1 	mov.w	r3, r1, lsl #11
 8000a58:	ea4f 23d3 	mov.w	r3, r3, lsr #11
 8000a5c:	fa03 fc0c 	lsl.w	ip, r3, ip
 8000a60:	ea40 000c 	orr.w	r0, r0, ip
 8000a64:	fa23 f302 	lsr.w	r3, r3, r2
 8000a68:	ea4f 0343 	mov.w	r3, r3, lsl #1
 8000a6c:	e7cc      	b.n	8000a08 <__aeabi_d2f+0x14>
 8000a6e:	ea7f 5362 	mvns.w	r3, r2, asr #21
 8000a72:	d107      	bne.n	8000a84 <__aeabi_d2f+0x90>
 8000a74:	ea50 3301 	orrs.w	r3, r0, r1, lsl #12
 8000a78:	bf1e      	ittt	ne
 8000a7a:	f04f 40fe 	movne.w	r0, #2130706432	; 0x7f000000
 8000a7e:	f440 0040 	orrne.w	r0, r0, #12582912	; 0xc00000
 8000a82:	4770      	bxne	lr
 8000a84:	f001 4000 	and.w	r0, r1, #2147483648	; 0x80000000
 8000a88:	f040 40fe 	orr.w	r0, r0, #2130706432	; 0x7f000000
 8000a8c:	f440 0000 	orr.w	r0, r0, #8388608	; 0x800000
 8000a90:	4770      	bx	lr
 8000a92:	bf00      	nop

08000a94 <__aeabi_frsub>:
 8000a94:	f080 4000 	eor.w	r0, r0, #2147483648	; 0x80000000
 8000a98:	e002      	b.n	8000aa0 <__addsf3>
 8000a9a:	bf00      	nop

08000a9c <__aeabi_fsub>:
 8000a9c:	f081 4100 	eor.w	r1, r1, #2147483648	; 0x80000000

08000aa0 <__addsf3>:
 8000aa0:	0042      	lsls	r2, r0, #1
 8000aa2:	bf1f      	itttt	ne
 8000aa4:	ea5f 0341 	movsne.w	r3, r1, lsl #1
 8000aa8:	ea92 0f03 	teqne	r2, r3
 8000aac:	ea7f 6c22 	mvnsne.w	ip, r2, asr #24
 8000ab0:	ea7f 6c23 	mvnsne.w	ip, r3, asr #24
 8000ab4:	d06a      	beq.n	8000b8c <__addsf3+0xec>
 8000ab6:	ea4f 6212 	mov.w	r2, r2, lsr #24
 8000aba:	ebd2 6313 	rsbs	r3, r2, r3, lsr #24
 8000abe:	bfc1      	itttt	gt
 8000ac0:	18d2      	addgt	r2, r2, r3
 8000ac2:	4041      	eorgt	r1, r0
 8000ac4:	4048      	eorgt	r0, r1
 8000ac6:	4041      	eorgt	r1, r0
 8000ac8:	bfb8      	it	lt
 8000aca:	425b      	neglt	r3, r3
 8000acc:	2b19      	cmp	r3, #25
 8000ace:	bf88      	it	hi
 8000ad0:	4770      	bxhi	lr
 8000ad2:	f010 4f00 	tst.w	r0, #2147483648	; 0x80000000
 8000ad6:	f440 0000 	orr.w	r0, r0, #8388608	; 0x800000
 8000ada:	f020 407f 	bic.w	r0, r0, #4278190080	; 0xff000000
 8000ade:	bf18      	it	ne
 8000ae0:	4240      	negne	r0, r0
 8000ae2:	f011 4f00 	tst.w	r1, #2147483648	; 0x80000000
 8000ae6:	f441 0100 	orr.w	r1, r1, #8388608	; 0x800000
 8000aea:	f021 417f 	bic.w	r1, r1, #4278190080	; 0xff000000
 8000aee:	bf18      	it	ne
 8000af0:	4249      	negne	r1, r1
 8000af2:	ea92 0f03 	teq	r2, r3
 8000af6:	d03f      	beq.n	8000b78 <__addsf3+0xd8>
 8000af8:	f1a2 0201 	sub.w	r2, r2, #1
 8000afc:	fa41 fc03 	asr.w	ip, r1, r3
 8000b00:	eb10 000c 	adds.w	r0, r0, ip
 8000b04:	f1c3 0320 	rsb	r3, r3, #32
 8000b08:	fa01 f103 	lsl.w	r1, r1, r3
 8000b0c:	f000 4300 	and.w	r3, r0, #2147483648	; 0x80000000
 8000b10:	d502      	bpl.n	8000b18 <__addsf3+0x78>
 8000b12:	4249      	negs	r1, r1
 8000b14:	eb60 0040 	sbc.w	r0, r0, r0, lsl #1
 8000b18:	f5b0 0f00 	cmp.w	r0, #8388608	; 0x800000
 8000b1c:	d313      	bcc.n	8000b46 <__addsf3+0xa6>
 8000b1e:	f1b0 7f80 	cmp.w	r0, #16777216	; 0x1000000
 8000b22:	d306      	bcc.n	8000b32 <__addsf3+0x92>
 8000b24:	0840      	lsrs	r0, r0, #1
 8000b26:	ea4f 0131 	mov.w	r1, r1, rrx
 8000b2a:	f102 0201 	add.w	r2, r2, #1
 8000b2e:	2afe      	cmp	r2, #254	; 0xfe
 8000b30:	d251      	bcs.n	8000bd6 <__addsf3+0x136>
 8000b32:	f1b1 4f00 	cmp.w	r1, #2147483648	; 0x80000000
 8000b36:	eb40 50c2 	adc.w	r0, r0, r2, lsl #23
 8000b3a:	bf08      	it	eq
 8000b3c:	f020 0001 	biceq.w	r0, r0, #1
 8000b40:	ea40 0003 	orr.w	r0, r0, r3
 8000b44:	4770      	bx	lr
 8000b46:	0049      	lsls	r1, r1, #1
 8000b48:	eb40 0000 	adc.w	r0, r0, r0
 8000b4c:	f410 0f00 	tst.w	r0, #8388608	; 0x800000
 8000b50:	f1a2 0201 	sub.w	r2, r2, #1
 8000b54:	d1ed      	bne.n	8000b32 <__addsf3+0x92>
 8000b56:	fab0 fc80 	clz	ip, r0
 8000b5a:	f1ac 0c08 	sub.w	ip, ip, #8
 8000b5e:	ebb2 020c 	subs.w	r2, r2, ip
 8000b62:	fa00 f00c 	lsl.w	r0, r0, ip
 8000b66:	bfaa      	itet	ge
 8000b68:	eb00 50c2 	addge.w	r0, r0, r2, lsl #23
 8000b6c:	4252      	neglt	r2, r2
 8000b6e:	4318      	orrge	r0, r3
 8000b70:	bfbc      	itt	lt
 8000b72:	40d0      	lsrlt	r0, r2
 8000b74:	4318      	orrlt	r0, r3
 8000b76:	4770      	bx	lr
 8000b78:	f092 0f00 	teq	r2, #0
 8000b7c:	f481 0100 	eor.w	r1, r1, #8388608	; 0x800000
 8000b80:	bf06      	itte	eq
 8000b82:	f480 0000 	eoreq.w	r0, r0, #8388608	; 0x800000
 8000b86:	3201      	addeq	r2, #1
 8000b88:	3b01      	subne	r3, #1
 8000b8a:	e7b5      	b.n	8000af8 <__addsf3+0x58>
 8000b8c:	ea4f 0341 	mov.w	r3, r1, lsl #1
 8000b90:	ea7f 6c22 	mvns.w	ip, r2, asr #24
 8000b94:	bf18      	it	ne
 8000b96:	ea7f 6c23 	mvnsne.w	ip, r3, asr #24
 8000b9a:	d021      	beq.n	8000be0 <__addsf3+0x140>
 8000b9c:	ea92 0f03 	teq	r2, r3
 8000ba0:	d004      	beq.n	8000bac <__addsf3+0x10c>
 8000ba2:	f092 0f00 	teq	r2, #0
 8000ba6:	bf08      	it	eq
 8000ba8:	4608      	moveq	r0, r1
 8000baa:	4770      	bx	lr
 8000bac:	ea90 0f01 	teq	r0, r1
 8000bb0:	bf1c      	itt	ne
 8000bb2:	2000      	movne	r0, #0
 8000bb4:	4770      	bxne	lr
 8000bb6:	f012 4f7f 	tst.w	r2, #4278190080	; 0xff000000
 8000bba:	d104      	bne.n	8000bc6 <__addsf3+0x126>
 8000bbc:	0040      	lsls	r0, r0, #1
 8000bbe:	bf28      	it	cs
 8000bc0:	f040 4000 	orrcs.w	r0, r0, #2147483648	; 0x80000000
 8000bc4:	4770      	bx	lr
 8000bc6:	f112 7200 	adds.w	r2, r2, #33554432	; 0x2000000
 8000bca:	bf3c      	itt	cc
 8000bcc:	f500 0000 	addcc.w	r0, r0, #8388608	; 0x800000
 8000bd0:	4770      	bxcc	lr
 8000bd2:	f000 4300 	and.w	r3, r0, #2147483648	; 0x80000000
 8000bd6:	f043 40fe 	orr.w	r0, r3, #2130706432	; 0x7f000000
 8000bda:	f440 0000 	orr.w	r0, r0, #8388608	; 0x800000
 8000bde:	4770      	bx	lr
 8000be0:	ea7f 6222 	mvns.w	r2, r2, asr #24
 8000be4:	bf16      	itet	ne
 8000be6:	4608      	movne	r0, r1
 8000be8:	ea7f 6323 	mvnseq.w	r3, r3, asr #24
 8000bec:	4601      	movne	r1, r0
 8000bee:	0242      	lsls	r2, r0, #9
 8000bf0:	bf06      	itte	eq
 8000bf2:	ea5f 2341 	movseq.w	r3, r1, lsl #9
 8000bf6:	ea90 0f01 	teqeq	r0, r1
 8000bfa:	f440 0080 	orrne.w	r0, r0, #4194304	; 0x400000
 8000bfe:	4770      	bx	lr

08000c00 <__aeabi_ui2f>:
 8000c00:	f04f 0300 	mov.w	r3, #0
 8000c04:	e004      	b.n	8000c10 <__aeabi_i2f+0x8>
 8000c06:	bf00      	nop

08000c08 <__aeabi_i2f>:
 8000c08:	f010 4300 	ands.w	r3, r0, #2147483648	; 0x80000000
 8000c0c:	bf48      	it	mi
 8000c0e:	4240      	negmi	r0, r0
 8000c10:	ea5f 0c00 	movs.w	ip, r0
 8000c14:	bf08      	it	eq
 8000c16:	4770      	bxeq	lr
 8000c18:	f043 4396 	orr.w	r3, r3, #1258291200	; 0x4b000000
 8000c1c:	4601      	mov	r1, r0
 8000c1e:	f04f 0000 	mov.w	r0, #0
 8000c22:	e01c      	b.n	8000c5e <__aeabi_l2f+0x2a>

08000c24 <__aeabi_ul2f>:
 8000c24:	ea50 0201 	orrs.w	r2, r0, r1
 8000c28:	bf08      	it	eq
 8000c2a:	4770      	bxeq	lr
 8000c2c:	f04f 0300 	mov.w	r3, #0
 8000c30:	e00a      	b.n	8000c48 <__aeabi_l2f+0x14>
 8000c32:	bf00      	nop

08000c34 <__aeabi_l2f>:
 8000c34:	ea50 0201 	orrs.w	r2, r0, r1
 8000c38:	bf08      	it	eq
 8000c3a:	4770      	bxeq	lr
 8000c3c:	f011 4300 	ands.w	r3, r1, #2147483648	; 0x80000000
 8000c40:	d502      	bpl.n	8000c48 <__aeabi_l2f+0x14>
 8000c42:	4240      	negs	r0, r0
 8000c44:	eb61 0141 	sbc.w	r1, r1, r1, lsl #1
 8000c48:	ea5f 0c01 	movs.w	ip, r1
 8000c4c:	bf02      	ittt	eq
 8000c4e:	4684      	moveq	ip, r0
 8000c50:	4601      	moveq	r1, r0
 8000c52:	2000      	moveq	r0, #0
 8000c54:	f043 43b6 	orr.w	r3, r3, #1526726656	; 0x5b000000
 8000c58:	bf08      	it	eq
 8000c5a:	f1a3 5380 	subeq.w	r3, r3, #268435456	; 0x10000000
 8000c5e:	f5a3 0300 	sub.w	r3, r3, #8388608	; 0x800000
 8000c62:	fabc f28c 	clz	r2, ip
 8000c66:	3a08      	subs	r2, #8
 8000c68:	eba3 53c2 	sub.w	r3, r3, r2, lsl #23
 8000c6c:	db10      	blt.n	8000c90 <__aeabi_l2f+0x5c>
 8000c6e:	fa01 fc02 	lsl.w	ip, r1, r2
 8000c72:	4463      	add	r3, ip
 8000c74:	fa00 fc02 	lsl.w	ip, r0, r2
 8000c78:	f1c2 0220 	rsb	r2, r2, #32
 8000c7c:	f1bc 4f00 	cmp.w	ip, #2147483648	; 0x80000000
 8000c80:	fa20 f202 	lsr.w	r2, r0, r2
 8000c84:	eb43 0002 	adc.w	r0, r3, r2
 8000c88:	bf08      	it	eq
 8000c8a:	f020 0001 	biceq.w	r0, r0, #1
 8000c8e:	4770      	bx	lr
 8000c90:	f102 0220 	add.w	r2, r2, #32
 8000c94:	fa01 fc02 	lsl.w	ip, r1, r2
 8000c98:	f1c2 0220 	rsb	r2, r2, #32
 8000c9c:	ea50 004c 	orrs.w	r0, r0, ip, lsl #1
 8000ca0:	fa21 f202 	lsr.w	r2, r1, r2
 8000ca4:	eb43 0002 	adc.w	r0, r3, r2
 8000ca8:	bf08      	it	eq
 8000caa:	ea20 70dc 	biceq.w	r0, r0, ip, lsr #31
 8000cae:	4770      	bx	lr

08000cb0 <__aeabi_fmul>:
 8000cb0:	f04f 0cff 	mov.w	ip, #255	; 0xff
 8000cb4:	ea1c 52d0 	ands.w	r2, ip, r0, lsr #23
 8000cb8:	bf1e      	ittt	ne
 8000cba:	ea1c 53d1 	andsne.w	r3, ip, r1, lsr #23
 8000cbe:	ea92 0f0c 	teqne	r2, ip
 8000cc2:	ea93 0f0c 	teqne	r3, ip
 8000cc6:	d06f      	beq.n	8000da8 <__aeabi_fmul+0xf8>
 8000cc8:	441a      	add	r2, r3
 8000cca:	ea80 0c01 	eor.w	ip, r0, r1
 8000cce:	0240      	lsls	r0, r0, #9
 8000cd0:	bf18      	it	ne
 8000cd2:	ea5f 2141 	movsne.w	r1, r1, lsl #9
 8000cd6:	d01e      	beq.n	8000d16 <__aeabi_fmul+0x66>
 8000cd8:	f04f 6300 	mov.w	r3, #134217728	; 0x8000000
 8000cdc:	ea43 1050 	orr.w	r0, r3, r0, lsr #5
 8000ce0:	ea43 1151 	orr.w	r1, r3, r1, lsr #5
 8000ce4:	fba0 3101 	umull	r3, r1, r0, r1
 8000ce8:	f00c 4000 	and.w	r0, ip, #2147483648	; 0x80000000
 8000cec:	f5b1 0f00 	cmp.w	r1, #8388608	; 0x800000
 8000cf0:	bf3e      	ittt	cc
 8000cf2:	0049      	lslcc	r1, r1, #1
 8000cf4:	ea41 71d3 	orrcc.w	r1, r1, r3, lsr #31
 8000cf8:	005b      	lslcc	r3, r3, #1
 8000cfa:	ea40 0001 	orr.w	r0, r0, r1
 8000cfe:	f162 027f 	sbc.w	r2, r2, #127	; 0x7f
 8000d02:	2afd      	cmp	r2, #253	; 0xfd
 8000d04:	d81d      	bhi.n	8000d42 <__aeabi_fmul+0x92>
 8000d06:	f1b3 4f00 	cmp.w	r3, #2147483648	; 0x80000000
 8000d0a:	eb40 50c2 	adc.w	r0, r0, r2, lsl #23
 8000d0e:	bf08      	it	eq
 8000d10:	f020 0001 	biceq.w	r0, r0, #1
 8000d14:	4770      	bx	lr
 8000d16:	f090 0f00 	teq	r0, #0
 8000d1a:	f00c 4c00 	and.w	ip, ip, #2147483648	; 0x80000000
 8000d1e:	bf08      	it	eq
 8000d20:	0249      	lsleq	r1, r1, #9
 8000d22:	ea4c 2050 	orr.w	r0, ip, r0, lsr #9
 8000d26:	ea40 2051 	orr.w	r0, r0, r1, lsr #9
 8000d2a:	3a7f      	subs	r2, #127	; 0x7f
 8000d2c:	bfc2      	ittt	gt
 8000d2e:	f1d2 03ff 	rsbsgt	r3, r2, #255	; 0xff
 8000d32:	ea40 50c2 	orrgt.w	r0, r0, r2, lsl #23
 8000d36:	4770      	bxgt	lr
 8000d38:	f440 0000 	orr.w	r0, r0, #8388608	; 0x800000
 8000d3c:	f04f 0300 	mov.w	r3, #0
 8000d40:	3a01      	subs	r2, #1
 8000d42:	dc5d      	bgt.n	8000e00 <__aeabi_fmul+0x150>
 8000d44:	f112 0f19 	cmn.w	r2, #25
 8000d48:	bfdc      	itt	le
 8000d4a:	f000 4000 	andle.w	r0, r0, #2147483648	; 0x80000000
 8000d4e:	4770      	bxle	lr
 8000d50:	f1c2 0200 	rsb	r2, r2, #0
 8000d54:	0041      	lsls	r1, r0, #1
 8000d56:	fa21 f102 	lsr.w	r1, r1, r2
 8000d5a:	f1c2 0220 	rsb	r2, r2, #32
 8000d5e:	fa00 fc02 	lsl.w	ip, r0, r2
 8000d62:	ea5f 0031 	movs.w	r0, r1, rrx
 8000d66:	f140 0000 	adc.w	r0, r0, #0
 8000d6a:	ea53 034c 	orrs.w	r3, r3, ip, lsl #1
 8000d6e:	bf08      	it	eq
 8000d70:	ea20 70dc 	biceq.w	r0, r0, ip, lsr #31
 8000d74:	4770      	bx	lr
 8000d76:	f092 0f00 	teq	r2, #0
 8000d7a:	f000 4c00 	and.w	ip, r0, #2147483648	; 0x80000000
 8000d7e:	bf02      	ittt	eq
 8000d80:	0040      	lsleq	r0, r0, #1
 8000d82:	f410 0f00 	tsteq.w	r0, #8388608	; 0x800000
 8000d86:	3a01      	subeq	r2, #1
 8000d88:	d0f9      	beq.n	8000d7e <__aeabi_fmul+0xce>
 8000d8a:	ea40 000c 	orr.w	r0, r0, ip
 8000d8e:	f093 0f00 	teq	r3, #0
 8000d92:	f001 4c00 	and.w	ip, r1, #2147483648	; 0x80000000
 8000d96:	bf02      	ittt	eq
 8000d98:	0049      	lsleq	r1, r1, #1
 8000d9a:	f411 0f00 	tsteq.w	r1, #8388608	; 0x800000
 8000d9e:	3b01      	subeq	r3, #1
 8000da0:	d0f9      	beq.n	8000d96 <__aeabi_fmul+0xe6>
 8000da2:	ea41 010c 	orr.w	r1, r1, ip
 8000da6:	e78f      	b.n	8000cc8 <__aeabi_fmul+0x18>
 8000da8:	ea0c 53d1 	and.w	r3, ip, r1, lsr #23
 8000dac:	ea92 0f0c 	teq	r2, ip
 8000db0:	bf18      	it	ne
 8000db2:	ea93 0f0c 	teqne	r3, ip
 8000db6:	d00a      	beq.n	8000dce <__aeabi_fmul+0x11e>
 8000db8:	f030 4c00 	bics.w	ip, r0, #2147483648	; 0x80000000
 8000dbc:	bf18      	it	ne
 8000dbe:	f031 4c00 	bicsne.w	ip, r1, #2147483648	; 0x80000000
 8000dc2:	d1d8      	bne.n	8000d76 <__aeabi_fmul+0xc6>
 8000dc4:	ea80 0001 	eor.w	r0, r0, r1
 8000dc8:	f000 4000 	and.w	r0, r0, #2147483648	; 0x80000000
 8000dcc:	4770      	bx	lr
 8000dce:	f090 0f00 	teq	r0, #0
 8000dd2:	bf17      	itett	ne
 8000dd4:	f090 4f00 	teqne	r0, #2147483648	; 0x80000000
 8000dd8:	4608      	moveq	r0, r1
 8000dda:	f091 0f00 	teqne	r1, #0
 8000dde:	f091 4f00 	teqne	r1, #2147483648	; 0x80000000
 8000de2:	d014      	beq.n	8000e0e <__aeabi_fmul+0x15e>
 8000de4:	ea92 0f0c 	teq	r2, ip
 8000de8:	d101      	bne.n	8000dee <__aeabi_fmul+0x13e>
 8000dea:	0242      	lsls	r2, r0, #9
 8000dec:	d10f      	bne.n	8000e0e <__aeabi_fmul+0x15e>
 8000dee:	ea93 0f0c 	teq	r3, ip
 8000df2:	d103      	bne.n	8000dfc <__aeabi_fmul+0x14c>
 8000df4:	024b      	lsls	r3, r1, #9
 8000df6:	bf18      	it	ne
 8000df8:	4608      	movne	r0, r1
 8000dfa:	d108      	bne.n	8000e0e <__aeabi_fmul+0x15e>
 8000dfc:	ea80 0001 	eor.w	r0, r0, r1
 8000e00:	f000 4000 	and.w	r0, r0, #2147483648	; 0x80000000
 8000e04:	f040 40fe 	orr.w	r0, r0, #2130706432	; 0x7f000000
 8000e08:	f440 0000 	orr.w	r0, r0, #8388608	; 0x800000
 8000e0c:	4770      	bx	lr
 8000e0e:	f040 40fe 	orr.w	r0, r0, #2130706432	; 0x7f000000
 8000e12:	f440 0040 	orr.w	r0, r0, #12582912	; 0xc00000
 8000e16:	4770      	bx	lr

08000e18 <__aeabi_fdiv>:
 8000e18:	f04f 0cff 	mov.w	ip, #255	; 0xff
 8000e1c:	ea1c 52d0 	ands.w	r2, ip, r0, lsr #23
 8000e20:	bf1e      	ittt	ne
 8000e22:	ea1c 53d1 	andsne.w	r3, ip, r1, lsr #23
 8000e26:	ea92 0f0c 	teqne	r2, ip
 8000e2a:	ea93 0f0c 	teqne	r3, ip
 8000e2e:	d069      	beq.n	8000f04 <__aeabi_fdiv+0xec>
 8000e30:	eba2 0203 	sub.w	r2, r2, r3
 8000e34:	ea80 0c01 	eor.w	ip, r0, r1
 8000e38:	0249      	lsls	r1, r1, #9
 8000e3a:	ea4f 2040 	mov.w	r0, r0, lsl #9
 8000e3e:	d037      	beq.n	8000eb0 <__aeabi_fdiv+0x98>
 8000e40:	f04f 5380 	mov.w	r3, #268435456	; 0x10000000
 8000e44:	ea43 1111 	orr.w	r1, r3, r1, lsr #4
 8000e48:	ea43 1310 	orr.w	r3, r3, r0, lsr #4
 8000e4c:	f00c 4000 	and.w	r0, ip, #2147483648	; 0x80000000
 8000e50:	428b      	cmp	r3, r1
 8000e52:	bf38      	it	cc
 8000e54:	005b      	lslcc	r3, r3, #1
 8000e56:	f142 027d 	adc.w	r2, r2, #125	; 0x7d
 8000e5a:	f44f 0c00 	mov.w	ip, #8388608	; 0x800000
 8000e5e:	428b      	cmp	r3, r1
 8000e60:	bf24      	itt	cs
 8000e62:	1a5b      	subcs	r3, r3, r1
 8000e64:	ea40 000c 	orrcs.w	r0, r0, ip
 8000e68:	ebb3 0f51 	cmp.w	r3, r1, lsr #1
 8000e6c:	bf24      	itt	cs
 8000e6e:	eba3 0351 	subcs.w	r3, r3, r1, lsr #1
 8000e72:	ea40 005c 	orrcs.w	r0, r0, ip, lsr #1
 8000e76:	ebb3 0f91 	cmp.w	r3, r1, lsr #2
 8000e7a:	bf24      	itt	cs
 8000e7c:	eba3 0391 	subcs.w	r3, r3, r1, lsr #2
 8000e80:	ea40 009c 	orrcs.w	r0, r0, ip, lsr #2
 8000e84:	ebb3 0fd1 	cmp.w	r3, r1, lsr #3
 8000e88:	bf24      	itt	cs
 8000e8a:	eba3 03d1 	subcs.w	r3, r3, r1, lsr #3
 8000e8e:	ea40 00dc 	orrcs.w	r0, r0, ip, lsr #3
 8000e92:	011b      	lsls	r3, r3, #4
 8000e94:	bf18      	it	ne
 8000e96:	ea5f 1c1c 	movsne.w	ip, ip, lsr #4
 8000e9a:	d1e0      	bne.n	8000e5e <__aeabi_fdiv+0x46>
 8000e9c:	2afd      	cmp	r2, #253	; 0xfd
 8000e9e:	f63f af50 	bhi.w	8000d42 <__aeabi_fmul+0x92>
 8000ea2:	428b      	cmp	r3, r1
 8000ea4:	eb40 50c2 	adc.w	r0, r0, r2, lsl #23
 8000ea8:	bf08      	it	eq
 8000eaa:	f020 0001 	biceq.w	r0, r0, #1
 8000eae:	4770      	bx	lr
 8000eb0:	f00c 4c00 	and.w	ip, ip, #2147483648	; 0x80000000
 8000eb4:	ea4c 2050 	orr.w	r0, ip, r0, lsr #9
 8000eb8:	327f      	adds	r2, #127	; 0x7f
 8000eba:	bfc2      	ittt	gt
 8000ebc:	f1d2 03ff 	rsbsgt	r3, r2, #255	; 0xff
 8000ec0:	ea40 50c2 	orrgt.w	r0, r0, r2, lsl #23
 8000ec4:	4770      	bxgt	lr
 8000ec6:	f440 0000 	orr.w	r0, r0, #8388608	; 0x800000
 8000eca:	f04f 0300 	mov.w	r3, #0
 8000ece:	3a01      	subs	r2, #1
 8000ed0:	e737      	b.n	8000d42 <__aeabi_fmul+0x92>
 8000ed2:	f092 0f00 	teq	r2, #0
 8000ed6:	f000 4c00 	and.w	ip, r0, #2147483648	; 0x80000000
 8000eda:	bf02      	ittt	eq
 8000edc:	0040      	lsleq	r0, r0, #1
 8000ede:	f410 0f00 	tsteq.w	r0, #8388608	; 0x800000
 8000ee2:	3a01      	subeq	r2, #1
 8000ee4:	d0f9      	beq.n	8000eda <__aeabi_fdiv+0xc2>
 8000ee6:	ea40 000c 	orr.w	r0, r0, ip
 8000eea:	f093 0f00 	teq	r3, #0
 8000eee:	f001 4c00 	and.w	ip, r1, #2147483648	; 0x80000000
 8000ef2:	bf02      	ittt	eq
 8000ef4:	0049      	lsleq	r1, r1, #1
 8000ef6:	f411 0f00 	tsteq.w	r1, #8388608	; 0x800000
 8000efa:	3b01      	subeq	r3, #1
 8000efc:	d0f9      	beq.n	8000ef2 <__aeabi_fdiv+0xda>
 8000efe:	ea41 010c 	orr.w	r1, r1, ip
 8000f02:	e795      	b.n	8000e30 <__aeabi_fdiv+0x18>
 8000f04:	ea0c 53d1 	and.w	r3, ip, r1, lsr #23
 8000f08:	ea92 0f0c 	teq	r2, ip
 8000f0c:	d108      	bne.n	8000f20 <__aeabi_fdiv+0x108>
 8000f0e:	0242      	lsls	r2, r0, #9
 8000f10:	f47f af7d 	bne.w	8000e0e <__aeabi_fmul+0x15e>
 8000f14:	ea93 0f0c 	teq	r3, ip
 8000f18:	f47f af70 	bne.w	8000dfc <__aeabi_fmul+0x14c>
 8000f1c:	4608      	mov	r0, r1
 8000f1e:	e776      	b.n	8000e0e <__aeabi_fmul+0x15e>
 8000f20:	ea93 0f0c 	teq	r3, ip
 8000f24:	d104      	bne.n	8000f30 <__aeabi_fdiv+0x118>
 8000f26:	024b      	lsls	r3, r1, #9
 8000f28:	f43f af4c 	beq.w	8000dc4 <__aeabi_fmul+0x114>
 8000f2c:	4608      	mov	r0, r1
 8000f2e:	e76e      	b.n	8000e0e <__aeabi_fmul+0x15e>
 8000f30:	f030 4c00 	bics.w	ip, r0, #2147483648	; 0x80000000
 8000f34:	bf18      	it	ne
 8000f36:	f031 4c00 	bicsne.w	ip, r1, #2147483648	; 0x80000000
 8000f3a:	d1ca      	bne.n	8000ed2 <__aeabi_fdiv+0xba>
 8000f3c:	f030 4200 	bics.w	r2, r0, #2147483648	; 0x80000000
 8000f40:	f47f af5c 	bne.w	8000dfc <__aeabi_fmul+0x14c>
 8000f44:	f031 4300 	bics.w	r3, r1, #2147483648	; 0x80000000
 8000f48:	f47f af3c 	bne.w	8000dc4 <__aeabi_fmul+0x114>
 8000f4c:	e75f      	b.n	8000e0e <__aeabi_fmul+0x15e>
 8000f4e:	bf00      	nop

08000f50 <__gesf2>:
 8000f50:	f04f 3cff 	mov.w	ip, #4294967295
 8000f54:	e006      	b.n	8000f64 <__cmpsf2+0x4>
 8000f56:	bf00      	nop

08000f58 <__lesf2>:
 8000f58:	f04f 0c01 	mov.w	ip, #1
 8000f5c:	e002      	b.n	8000f64 <__cmpsf2+0x4>
 8000f5e:	bf00      	nop

08000f60 <__cmpsf2>:
 8000f60:	f04f 0c01 	mov.w	ip, #1
 8000f64:	f84d cd04 	str.w	ip, [sp, #-4]!
 8000f68:	ea4f 0240 	mov.w	r2, r0, lsl #1
 8000f6c:	ea4f 0341 	mov.w	r3, r1, lsl #1
 8000f70:	ea7f 6c22 	mvns.w	ip, r2, asr #24
 8000f74:	bf18      	it	ne
 8000f76:	ea7f 6c23 	mvnsne.w	ip, r3, asr #24
 8000f7a:	d011      	beq.n	8000fa0 <__cmpsf2+0x40>
 8000f7c:	b001      	add	sp, #4
 8000f7e:	ea52 0c53 	orrs.w	ip, r2, r3, lsr #1
 8000f82:	bf18      	it	ne
 8000f84:	ea90 0f01 	teqne	r0, r1
 8000f88:	bf58      	it	pl
 8000f8a:	ebb2 0003 	subspl.w	r0, r2, r3
 8000f8e:	bf88      	it	hi
 8000f90:	17c8      	asrhi	r0, r1, #31
 8000f92:	bf38      	it	cc
 8000f94:	ea6f 70e1 	mvncc.w	r0, r1, asr #31
 8000f98:	bf18      	it	ne
 8000f9a:	f040 0001 	orrne.w	r0, r0, #1
 8000f9e:	4770      	bx	lr
 8000fa0:	ea7f 6c22 	mvns.w	ip, r2, asr #24
 8000fa4:	d102      	bne.n	8000fac <__cmpsf2+0x4c>
 8000fa6:	ea5f 2c40 	movs.w	ip, r0, lsl #9
 8000faa:	d105      	bne.n	8000fb8 <__cmpsf2+0x58>
 8000fac:	ea7f 6c23 	mvns.w	ip, r3, asr #24
 8000fb0:	d1e4      	bne.n	8000f7c <__cmpsf2+0x1c>
 8000fb2:	ea5f 2c41 	movs.w	ip, r1, lsl #9
 8000fb6:	d0e1      	beq.n	8000f7c <__cmpsf2+0x1c>
 8000fb8:	f85d 0b04 	ldr.w	r0, [sp], #4
 8000fbc:	4770      	bx	lr
 8000fbe:	bf00      	nop

08000fc0 <__aeabi_cfrcmple>:
 8000fc0:	4684      	mov	ip, r0
 8000fc2:	4608      	mov	r0, r1
 8000fc4:	4661      	mov	r1, ip
 8000fc6:	e7ff      	b.n	8000fc8 <__aeabi_cfcmpeq>

08000fc8 <__aeabi_cfcmpeq>:
 8000fc8:	b50f      	push	{r0, r1, r2, r3, lr}
 8000fca:	f7ff ffc9 	bl	8000f60 <__cmpsf2>
 8000fce:	2800      	cmp	r0, #0
 8000fd0:	bf48      	it	mi
 8000fd2:	f110 0f00 	cmnmi.w	r0, #0
 8000fd6:	bd0f      	pop	{r0, r1, r2, r3, pc}

08000fd8 <__aeabi_fcmpeq>:
 8000fd8:	f84d ed08 	str.w	lr, [sp, #-8]!
 8000fdc:	f7ff fff4 	bl	8000fc8 <__aeabi_cfcmpeq>
 8000fe0:	bf0c      	ite	eq
 8000fe2:	2001      	moveq	r0, #1
 8000fe4:	2000      	movne	r0, #0
 8000fe6:	f85d fb08 	ldr.w	pc, [sp], #8
 8000fea:	bf00      	nop

08000fec <__aeabi_fcmplt>:
 8000fec:	f84d ed08 	str.w	lr, [sp, #-8]!
 8000ff0:	f7ff ffea 	bl	8000fc8 <__aeabi_cfcmpeq>
 8000ff4:	bf34      	ite	cc
 8000ff6:	2001      	movcc	r0, #1
 8000ff8:	2000      	movcs	r0, #0
 8000ffa:	f85d fb08 	ldr.w	pc, [sp], #8
 8000ffe:	bf00      	nop

08001000 <__aeabi_fcmple>:
 8001000:	f84d ed08 	str.w	lr, [sp, #-8]!
 8001004:	f7ff ffe0 	bl	8000fc8 <__aeabi_cfcmpeq>
 8001008:	bf94      	ite	ls
 800100a:	2001      	movls	r0, #1
 800100c:	2000      	movhi	r0, #0
 800100e:	f85d fb08 	ldr.w	pc, [sp], #8
 8001012:	bf00      	nop

08001014 <__aeabi_fcmpge>:
 8001014:	f84d ed08 	str.w	lr, [sp, #-8]!
 8001018:	f7ff ffd2 	bl	8000fc0 <__aeabi_cfrcmple>
 800101c:	bf94      	ite	ls
 800101e:	2001      	movls	r0, #1
 8001020:	2000      	movhi	r0, #0
 8001022:	f85d fb08 	ldr.w	pc, [sp], #8
 8001026:	bf00      	nop

08001028 <__aeabi_fcmpgt>:
 8001028:	f84d ed08 	str.w	lr, [sp, #-8]!
 800102c:	f7ff ffc8 	bl	8000fc0 <__aeabi_cfrcmple>
 8001030:	bf34      	ite	cc
 8001032:	2001      	movcc	r0, #1
 8001034:	2000      	movcs	r0, #0
 8001036:	f85d fb08 	ldr.w	pc, [sp], #8
 800103a:	bf00      	nop

0800103c <__aeabi_f2uiz>:
 800103c:	0042      	lsls	r2, r0, #1
 800103e:	d20e      	bcs.n	800105e <__aeabi_f2uiz+0x22>
 8001040:	f1b2 4ffe 	cmp.w	r2, #2130706432	; 0x7f000000
 8001044:	d30b      	bcc.n	800105e <__aeabi_f2uiz+0x22>
 8001046:	f04f 039e 	mov.w	r3, #158	; 0x9e
 800104a:	ebb3 6212 	subs.w	r2, r3, r2, lsr #24
 800104e:	d409      	bmi.n	8001064 <__aeabi_f2uiz+0x28>
 8001050:	ea4f 2300 	mov.w	r3, r0, lsl #8
 8001054:	f043 4300 	orr.w	r3, r3, #2147483648	; 0x80000000
 8001058:	fa23 f002 	lsr.w	r0, r3, r2
 800105c:	4770      	bx	lr
 800105e:	f04f 0000 	mov.w	r0, #0
 8001062:	4770      	bx	lr
 8001064:	f112 0f61 	cmn.w	r2, #97	; 0x61
 8001068:	d101      	bne.n	800106e <__aeabi_f2uiz+0x32>
 800106a:	0242      	lsls	r2, r0, #9
 800106c:	d102      	bne.n	8001074 <__aeabi_f2uiz+0x38>
 800106e:	f04f 30ff 	mov.w	r0, #4294967295
 8001072:	4770      	bx	lr
 8001074:	f04f 0000 	mov.w	r0, #0
 8001078:	4770      	bx	lr
 800107a:	bf00      	nop

0800107c <memcpy>:
 800107c:	4684      	mov	ip, r0
 800107e:	ea41 0300 	orr.w	r3, r1, r0
 8001082:	f013 0303 	ands.w	r3, r3, #3
 8001086:	d149      	bne.n	800111c <memcpy+0xa0>
 8001088:	3a40      	subs	r2, #64	; 0x40
 800108a:	d323      	bcc.n	80010d4 <memcpy+0x58>
 800108c:	680b      	ldr	r3, [r1, #0]
 800108e:	6003      	str	r3, [r0, #0]
 8001090:	684b      	ldr	r3, [r1, #4]
 8001092:	6043      	str	r3, [r0, #4]
 8001094:	688b      	ldr	r3, [r1, #8]
 8001096:	6083      	str	r3, [r0, #8]
 8001098:	68cb      	ldr	r3, [r1, #12]
 800109a:	60c3      	str	r3, [r0, #12]
 800109c:	690b      	ldr	r3, [r1, #16]
 800109e:	6103      	str	r3, [r0, #16]
 80010a0:	694b      	ldr	r3, [r1, #20]
 80010a2:	6143      	str	r3, [r0, #20]
 80010a4:	698b      	ldr	r3, [r1, #24]
 80010a6:	6183      	str	r3, [r0, #24]
 80010a8:	69cb      	ldr	r3, [r1, #28]
 80010aa:	61c3      	str	r3, [r0, #28]
 80010ac:	6a0b      	ldr	r3, [r1, #32]
 80010ae:	6203      	str	r3, [r0, #32]
 80010b0:	6a4b      	ldr	r3, [r1, #36]	; 0x24
 80010b2:	6243      	str	r3, [r0, #36]	; 0x24
 80010b4:	6a8b      	ldr	r3, [r1, #40]	; 0x28
 80010b6:	6283      	str	r3, [r0, #40]	; 0x28
 80010b8:	6acb      	ldr	r3, [r1, #44]	; 0x2c
 80010ba:	62c3      	str	r3, [r0, #44]	; 0x2c
 80010bc:	6b0b      	ldr	r3, [r1, #48]	; 0x30
 80010be:	6303      	str	r3, [r0, #48]	; 0x30
 80010c0:	6b4b      	ldr	r3, [r1, #52]	; 0x34
 80010c2:	6343      	str	r3, [r0, #52]	; 0x34
 80010c4:	6b8b      	ldr	r3, [r1, #56]	; 0x38
 80010c6:	6383      	str	r3, [r0, #56]	; 0x38
 80010c8:	6bcb      	ldr	r3, [r1, #60]	; 0x3c
 80010ca:	63c3      	str	r3, [r0, #60]	; 0x3c
 80010cc:	3040      	adds	r0, #64	; 0x40
 80010ce:	3140      	adds	r1, #64	; 0x40
 80010d0:	3a40      	subs	r2, #64	; 0x40
 80010d2:	d2db      	bcs.n	800108c <memcpy+0x10>
 80010d4:	3230      	adds	r2, #48	; 0x30
 80010d6:	d30b      	bcc.n	80010f0 <memcpy+0x74>
 80010d8:	680b      	ldr	r3, [r1, #0]
 80010da:	6003      	str	r3, [r0, #0]
 80010dc:	684b      	ldr	r3, [r1, #4]
 80010de:	6043      	str	r3, [r0, #4]
 80010e0:	688b      	ldr	r3, [r1, #8]
 80010e2:	6083      	str	r3, [r0, #8]
 80010e4:	68cb      	ldr	r3, [r1, #12]
 80010e6:	60c3      	str	r3, [r0, #12]
 80010e8:	3010      	adds	r0, #16
 80010ea:	3110      	adds	r1, #16
 80010ec:	3a10      	subs	r2, #16
 80010ee:	d2f3      	bcs.n	80010d8 <memcpy+0x5c>
 80010f0:	320c      	adds	r2, #12
 80010f2:	d305      	bcc.n	8001100 <memcpy+0x84>
 80010f4:	f851 3b04 	ldr.w	r3, [r1], #4
 80010f8:	f840 3b04 	str.w	r3, [r0], #4
 80010fc:	3a04      	subs	r2, #4
 80010fe:	d2f9      	bcs.n	80010f4 <memcpy+0x78>
 8001100:	3204      	adds	r2, #4
 8001102:	d008      	beq.n	8001116 <memcpy+0x9a>
 8001104:	07d2      	lsls	r2, r2, #31
 8001106:	bf1c      	itt	ne
 8001108:	f811 3b01 	ldrbne.w	r3, [r1], #1
 800110c:	f800 3b01 	strbne.w	r3, [r0], #1
 8001110:	d301      	bcc.n	8001116 <memcpy+0x9a>
 8001112:	880b      	ldrh	r3, [r1, #0]
 8001114:	8003      	strh	r3, [r0, #0]
 8001116:	4660      	mov	r0, ip
 8001118:	4770      	bx	lr
 800111a:	bf00      	nop
 800111c:	2a08      	cmp	r2, #8
 800111e:	d313      	bcc.n	8001148 <memcpy+0xcc>
 8001120:	078b      	lsls	r3, r1, #30
 8001122:	d0b1      	beq.n	8001088 <memcpy+0xc>
 8001124:	f010 0303 	ands.w	r3, r0, #3
 8001128:	d0ae      	beq.n	8001088 <memcpy+0xc>
 800112a:	f1c3 0304 	rsb	r3, r3, #4
 800112e:	1ad2      	subs	r2, r2, r3
 8001130:	07db      	lsls	r3, r3, #31
 8001132:	bf1c      	itt	ne
 8001134:	f811 3b01 	ldrbne.w	r3, [r1], #1
 8001138:	f800 3b01 	strbne.w	r3, [r0], #1
 800113c:	d3a4      	bcc.n	8001088 <memcpy+0xc>
 800113e:	f831 3b02 	ldrh.w	r3, [r1], #2
 8001142:	f820 3b02 	strh.w	r3, [r0], #2
 8001146:	e79f      	b.n	8001088 <memcpy+0xc>
 8001148:	3a04      	subs	r2, #4
 800114a:	d3d9      	bcc.n	8001100 <memcpy+0x84>
 800114c:	3a01      	subs	r2, #1
 800114e:	f811 3b01 	ldrb.w	r3, [r1], #1
 8001152:	f800 3b01 	strb.w	r3, [r0], #1
 8001156:	d2f9      	bcs.n	800114c <memcpy+0xd0>
 8001158:	780b      	ldrb	r3, [r1, #0]
 800115a:	7003      	strb	r3, [r0, #0]
 800115c:	784b      	ldrb	r3, [r1, #1]
 800115e:	7043      	strb	r3, [r0, #1]
 8001160:	788b      	ldrb	r3, [r1, #2]
 8001162:	7083      	strb	r3, [r0, #2]
 8001164:	4660      	mov	r0, ip
 8001166:	4770      	bx	lr

08001168 <si446x_spi_state_machine>:
 8001168:	b5f0      	push	{r4, r5, r6, r7, lr}
 800116a:	b08d      	sub	sp, #52	; 0x34
 800116c:	4605      	mov	r5, r0
 800116e:	9e12      	ldr	r6, [sp, #72]	; 0x48
 8001170:	9813      	ldr	r0, [sp, #76]	; 0x4c
 8001172:	782c      	ldrb	r4, [r5, #0]
 8001174:	b13a      	cbz	r2, 8001186 <si446x_spi_state_machine+0x1e>
 8001176:	4617      	mov	r7, r2
 8001178:	4aa1      	ldr	r2, [pc, #644]	; (8001400 <si446x_spi_state_machine+0x298>)
 800117a:	6017      	str	r7, [r2, #0]
 800117c:	7111      	strb	r1, [r2, #4]
 800117e:	2901      	cmp	r1, #1
 8001180:	d101      	bne.n	8001186 <si446x_spi_state_machine+0x1e>
 8001182:	2102      	movs	r1, #2
 8001184:	7111      	strb	r1, [r2, #4]
 8001186:	b116      	cbz	r6, 800118e <si446x_spi_state_machine+0x26>
 8001188:	4a9d      	ldr	r2, [pc, #628]	; (8001400 <si446x_spi_state_machine+0x298>)
 800118a:	6096      	str	r6, [r2, #8]
 800118c:	7313      	strb	r3, [r2, #12]
 800118e:	b108      	cbz	r0, 8001194 <si446x_spi_state_machine+0x2c>
 8001190:	4b9b      	ldr	r3, [pc, #620]	; (8001400 <si446x_spi_state_machine+0x298>)
 8001192:	6118      	str	r0, [r3, #16]
 8001194:	4b9b      	ldr	r3, [pc, #620]	; (8001404 <si446x_spi_state_machine+0x29c>)
 8001196:	9301      	str	r3, [sp, #4]
 8001198:	2300      	movs	r3, #0
 800119a:	9307      	str	r3, [sp, #28]
 800119c:	9308      	str	r3, [sp, #32]
 800119e:	9305      	str	r3, [sp, #20]
 80011a0:	2280      	movs	r2, #128	; 0x80
 80011a2:	9206      	str	r2, [sp, #24]
 80011a4:	9309      	str	r3, [sp, #36]	; 0x24
 80011a6:	930a      	str	r3, [sp, #40]	; 0x28
 80011a8:	930b      	str	r3, [sp, #44]	; 0x2c
 80011aa:	b9a4      	cbnz	r4, 80011d6 <si446x_spi_state_machine+0x6e>
 80011ac:	4e96      	ldr	r6, [pc, #600]	; (8001408 <si446x_spi_state_machine+0x2a0>)
 80011ae:	4630      	mov	r0, r6
 80011b0:	4619      	mov	r1, r3
 80011b2:	f008 fd8f 	bl	8009cd4 <DMA_Cmd>
 80011b6:	4f95      	ldr	r7, [pc, #596]	; (800140c <si446x_spi_state_machine+0x2a4>)
 80011b8:	4638      	mov	r0, r7
 80011ba:	2100      	movs	r1, #0
 80011bc:	f008 fd8a 	bl	8009cd4 <DMA_Cmd>
 80011c0:	4638      	mov	r0, r7
 80011c2:	f008 fcf1 	bl	8009ba8 <DMA_DeInit>
 80011c6:	4630      	mov	r0, r6
 80011c8:	f008 fcee 	bl	8009ba8 <DMA_DeInit>
 80011cc:	4890      	ldr	r0, [pc, #576]	; (8001410 <si446x_spi_state_machine+0x2a8>)
 80011ce:	2103      	movs	r1, #3
 80011d0:	2200      	movs	r2, #0
 80011d2:	f009 f94e 	bl	800a472 <SPI_I2S_DMACmd>
 80011d6:	2c04      	cmp	r4, #4
 80011d8:	f200 8101 	bhi.w	80013de <si446x_spi_state_machine+0x276>
 80011dc:	e8df f014 	tbh	[pc, r4, lsl #1]
 80011e0:	006d0005 	rsbeq	r0, sp, r5
 80011e4:	00a9006f 	adceq	r0, r9, pc, rrx
 80011e8:	230100e3 	movwcs	r0, #4323	; 0x10e3
 80011ec:	702b      	strb	r3, [r5, #0]
 80011ee:	4889      	ldr	r0, [pc, #548]	; (8001414 <si446x_spi_state_machine+0x2ac>)
 80011f0:	2110      	movs	r1, #16
 80011f2:	2200      	movs	r2, #0
 80011f4:	f008 fe72 	bl	8009edc <GPIO_WriteBit>
 80011f8:	4b81      	ldr	r3, [pc, #516]	; (8001400 <si446x_spi_state_machine+0x298>)
 80011fa:	791b      	ldrb	r3, [r3, #4]
 80011fc:	b373      	cbz	r3, 800125c <si446x_spi_state_machine+0xf4>
 80011fe:	4e80      	ldr	r6, [pc, #512]	; (8001400 <si446x_spi_state_machine+0x298>)
 8001200:	4635      	mov	r5, r6
 8001202:	f855 2b14 	ldr.w	r2, [r5], #20
 8001206:	9202      	str	r2, [sp, #8]
 8001208:	9304      	str	r3, [sp, #16]
 800120a:	2310      	movs	r3, #16
 800120c:	9303      	str	r3, [sp, #12]
 800120e:	4c7e      	ldr	r4, [pc, #504]	; (8001408 <si446x_spi_state_machine+0x2a0>)
 8001210:	4620      	mov	r0, r4
 8001212:	a901      	add	r1, sp, #4
 8001214:	f008 fd40 	bl	8009c98 <DMA_Init>
 8001218:	9502      	str	r5, [sp, #8]
 800121a:	7933      	ldrb	r3, [r6, #4]
 800121c:	9304      	str	r3, [sp, #16]
 800121e:	2300      	movs	r3, #0
 8001220:	9306      	str	r3, [sp, #24]
 8001222:	9303      	str	r3, [sp, #12]
 8001224:	4d79      	ldr	r5, [pc, #484]	; (800140c <si446x_spi_state_machine+0x2a4>)
 8001226:	4628      	mov	r0, r5
 8001228:	a901      	add	r1, sp, #4
 800122a:	f008 fd35 	bl	8009c98 <DMA_Init>
 800122e:	f44f 60c0 	mov.w	r0, #1536	; 0x600
 8001232:	f008 fd71 	bl	8009d18 <DMA_ClearFlag>
 8001236:	4620      	mov	r0, r4
 8001238:	2102      	movs	r1, #2
 800123a:	2201      	movs	r2, #1
 800123c:	f008 fd53 	bl	8009ce6 <DMA_ITConfig>
 8001240:	4620      	mov	r0, r4
 8001242:	2101      	movs	r1, #1
 8001244:	f008 fd46 	bl	8009cd4 <DMA_Cmd>
 8001248:	4628      	mov	r0, r5
 800124a:	2101      	movs	r1, #1
 800124c:	f008 fd42 	bl	8009cd4 <DMA_Cmd>
 8001250:	486f      	ldr	r0, [pc, #444]	; (8001410 <si446x_spi_state_machine+0x2a8>)
 8001252:	2103      	movs	r1, #3
 8001254:	2201      	movs	r2, #1
 8001256:	f009 f90c 	bl	800a472 <SPI_I2S_DMACmd>
 800125a:	e0cf      	b.n	80013fc <si446x_spi_state_machine+0x294>
 800125c:	4c68      	ldr	r4, [pc, #416]	; (8001400 <si446x_spi_state_machine+0x298>)
 800125e:	6823      	ldr	r3, [r4, #0]
 8001260:	781b      	ldrb	r3, [r3, #0]
 8001262:	7623      	strb	r3, [r4, #24]
 8001264:	68a3      	ldr	r3, [r4, #8]
 8001266:	9302      	str	r3, [sp, #8]
 8001268:	7b23      	ldrb	r3, [r4, #12]
 800126a:	9304      	str	r3, [sp, #16]
 800126c:	2600      	movs	r6, #0
 800126e:	9603      	str	r6, [sp, #12]
 8001270:	4d66      	ldr	r5, [pc, #408]	; (800140c <si446x_spi_state_machine+0x2a4>)
 8001272:	4628      	mov	r0, r5
 8001274:	a901      	add	r1, sp, #4
 8001276:	f008 fd0f 	bl	8009c98 <DMA_Init>
 800127a:	3418      	adds	r4, #24
 800127c:	9402      	str	r4, [sp, #8]
 800127e:	9606      	str	r6, [sp, #24]
 8001280:	2310      	movs	r3, #16
 8001282:	9303      	str	r3, [sp, #12]
 8001284:	4c60      	ldr	r4, [pc, #384]	; (8001408 <si446x_spi_state_machine+0x2a0>)
 8001286:	4620      	mov	r0, r4
 8001288:	a901      	add	r1, sp, #4
 800128a:	f008 fd05 	bl	8009c98 <DMA_Init>
 800128e:	2060      	movs	r0, #96	; 0x60
 8001290:	f008 fd42 	bl	8009d18 <DMA_ClearFlag>
 8001294:	4628      	mov	r0, r5
 8001296:	2102      	movs	r1, #2
 8001298:	2201      	movs	r2, #1
 800129a:	f008 fd24 	bl	8009ce6 <DMA_ITConfig>
 800129e:	4628      	mov	r0, r5
 80012a0:	2101      	movs	r1, #1
 80012a2:	f008 fd17 	bl	8009cd4 <DMA_Cmd>
 80012a6:	4620      	mov	r0, r4
 80012a8:	2101      	movs	r1, #1
 80012aa:	f008 fd13 	bl	8009cd4 <DMA_Cmd>
 80012ae:	4858      	ldr	r0, [pc, #352]	; (8001410 <si446x_spi_state_machine+0x2a8>)
 80012b0:	2103      	movs	r1, #3
 80012b2:	2201      	movs	r2, #1
 80012b4:	f009 f8dd 	bl	800a472 <SPI_I2S_DMACmd>
 80012b8:	e0a0      	b.n	80013fc <si446x_spi_state_machine+0x294>
 80012ba:	2302      	movs	r3, #2
 80012bc:	702b      	strb	r3, [r5, #0]
 80012be:	4b50      	ldr	r3, [pc, #320]	; (8001400 <si446x_spi_state_machine+0x298>)
 80012c0:	791b      	ldrb	r3, [r3, #4]
 80012c2:	b303      	cbz	r3, 8001306 <si446x_spi_state_machine+0x19e>
 80012c4:	4c50      	ldr	r4, [pc, #320]	; (8001408 <si446x_spi_state_machine+0x2a0>)
 80012c6:	4620      	mov	r0, r4
 80012c8:	2100      	movs	r1, #0
 80012ca:	f008 fd03 	bl	8009cd4 <DMA_Cmd>
 80012ce:	484f      	ldr	r0, [pc, #316]	; (800140c <si446x_spi_state_machine+0x2a4>)
 80012d0:	2100      	movs	r1, #0
 80012d2:	f008 fcff 	bl	8009cd4 <DMA_Cmd>
 80012d6:	484e      	ldr	r0, [pc, #312]	; (8001410 <si446x_spi_state_machine+0x2a8>)
 80012d8:	2103      	movs	r1, #3
 80012da:	2200      	movs	r2, #0
 80012dc:	f009 f8c9 	bl	800a472 <SPI_I2S_DMACmd>
 80012e0:	4620      	mov	r0, r4
 80012e2:	2102      	movs	r1, #2
 80012e4:	2200      	movs	r2, #0
 80012e6:	f008 fcfe 	bl	8009ce6 <DMA_ITConfig>
 80012ea:	4b4b      	ldr	r3, [pc, #300]	; (8001418 <si446x_spi_state_machine+0x2b0>)
 80012ec:	681a      	ldr	r2, [r3, #0]
 80012ee:	4b44      	ldr	r3, [pc, #272]	; (8001400 <si446x_spi_state_machine+0x298>)
 80012f0:	61da      	str	r2, [r3, #28]
 80012f2:	484a      	ldr	r0, [pc, #296]	; (800141c <si446x_spi_state_machine+0x2b4>)
 80012f4:	f44f 6100 	mov.w	r1, #2048	; 0x800
 80012f8:	f008 fde6 	bl	8009ec8 <GPIO_ReadInputDataBit>
 80012fc:	2800      	cmp	r0, #0
 80012fe:	d07d      	beq.n	80013fc <si446x_spi_state_machine+0x294>
 8001300:	2303      	movs	r3, #3
 8001302:	702b      	strb	r3, [r5, #0]
 8001304:	e015      	b.n	8001332 <si446x_spi_state_machine+0x1ca>
 8001306:	4842      	ldr	r0, [pc, #264]	; (8001410 <si446x_spi_state_machine+0x2a8>)
 8001308:	2103      	movs	r1, #3
 800130a:	2200      	movs	r2, #0
 800130c:	f009 f8b1 	bl	800a472 <SPI_I2S_DMACmd>
 8001310:	4c3e      	ldr	r4, [pc, #248]	; (800140c <si446x_spi_state_machine+0x2a4>)
 8001312:	4620      	mov	r0, r4
 8001314:	2100      	movs	r1, #0
 8001316:	f008 fcdd 	bl	8009cd4 <DMA_Cmd>
 800131a:	483b      	ldr	r0, [pc, #236]	; (8001408 <si446x_spi_state_machine+0x2a0>)
 800131c:	2100      	movs	r1, #0
 800131e:	f008 fcd9 	bl	8009cd4 <DMA_Cmd>
 8001322:	4620      	mov	r0, r4
 8001324:	2102      	movs	r1, #2
 8001326:	2200      	movs	r2, #0
 8001328:	f008 fcdd 	bl	8009ce6 <DMA_ITConfig>
 800132c:	2300      	movs	r3, #0
 800132e:	702b      	strb	r3, [r5, #0]
 8001330:	e064      	b.n	80013fc <si446x_spi_state_machine+0x294>
 8001332:	4b33      	ldr	r3, [pc, #204]	; (8001400 <si446x_spi_state_machine+0x298>)
 8001334:	2200      	movs	r2, #0
 8001336:	61da      	str	r2, [r3, #28]
 8001338:	7b1b      	ldrb	r3, [r3, #12]
 800133a:	2b00      	cmp	r3, #0
 800133c:	d033      	beq.n	80013a6 <si446x_spi_state_machine+0x23e>
 800133e:	2304      	movs	r3, #4
 8001340:	702b      	strb	r3, [r5, #0]
 8001342:	4834      	ldr	r0, [pc, #208]	; (8001414 <si446x_spi_state_machine+0x2ac>)
 8001344:	2110      	movs	r1, #16
 8001346:	f008 fdc9 	bl	8009edc <GPIO_WriteBit>
 800134a:	4c2d      	ldr	r4, [pc, #180]	; (8001400 <si446x_spi_state_machine+0x298>)
 800134c:	2344      	movs	r3, #68	; 0x44
 800134e:	7623      	strb	r3, [r4, #24]
 8001350:	68a3      	ldr	r3, [r4, #8]
 8001352:	9302      	str	r3, [sp, #8]
 8001354:	2600      	movs	r6, #0
 8001356:	9603      	str	r6, [sp, #12]
 8001358:	7b23      	ldrb	r3, [r4, #12]
 800135a:	9304      	str	r3, [sp, #16]
 800135c:	4d2b      	ldr	r5, [pc, #172]	; (800140c <si446x_spi_state_machine+0x2a4>)
 800135e:	4628      	mov	r0, r5
 8001360:	a901      	add	r1, sp, #4
 8001362:	f008 fc99 	bl	8009c98 <DMA_Init>
 8001366:	3418      	adds	r4, #24
 8001368:	9402      	str	r4, [sp, #8]
 800136a:	9606      	str	r6, [sp, #24]
 800136c:	2310      	movs	r3, #16
 800136e:	9303      	str	r3, [sp, #12]
 8001370:	4c25      	ldr	r4, [pc, #148]	; (8001408 <si446x_spi_state_machine+0x2a0>)
 8001372:	4620      	mov	r0, r4
 8001374:	a901      	add	r1, sp, #4
 8001376:	f008 fc8f 	bl	8009c98 <DMA_Init>
 800137a:	2060      	movs	r0, #96	; 0x60
 800137c:	f008 fccc 	bl	8009d18 <DMA_ClearFlag>
 8001380:	4628      	mov	r0, r5
 8001382:	2102      	movs	r1, #2
 8001384:	2201      	movs	r2, #1
 8001386:	f008 fcae 	bl	8009ce6 <DMA_ITConfig>
 800138a:	4628      	mov	r0, r5
 800138c:	2101      	movs	r1, #1
 800138e:	f008 fca1 	bl	8009cd4 <DMA_Cmd>
 8001392:	4620      	mov	r0, r4
 8001394:	2101      	movs	r1, #1
 8001396:	f008 fc9d 	bl	8009cd4 <DMA_Cmd>
 800139a:	481d      	ldr	r0, [pc, #116]	; (8001410 <si446x_spi_state_machine+0x2a8>)
 800139c:	2103      	movs	r1, #3
 800139e:	2201      	movs	r2, #1
 80013a0:	f009 f867 	bl	800a472 <SPI_I2S_DMACmd>
 80013a4:	e02a      	b.n	80013fc <si446x_spi_state_machine+0x294>
 80013a6:	481a      	ldr	r0, [pc, #104]	; (8001410 <si446x_spi_state_machine+0x2a8>)
 80013a8:	2103      	movs	r1, #3
 80013aa:	2200      	movs	r2, #0
 80013ac:	f009 f861 	bl	800a472 <SPI_I2S_DMACmd>
 80013b0:	4c16      	ldr	r4, [pc, #88]	; (800140c <si446x_spi_state_machine+0x2a4>)
 80013b2:	4620      	mov	r0, r4
 80013b4:	2100      	movs	r1, #0
 80013b6:	f008 fc8d 	bl	8009cd4 <DMA_Cmd>
 80013ba:	4813      	ldr	r0, [pc, #76]	; (8001408 <si446x_spi_state_machine+0x2a0>)
 80013bc:	2100      	movs	r1, #0
 80013be:	f008 fc89 	bl	8009cd4 <DMA_Cmd>
 80013c2:	4620      	mov	r0, r4
 80013c4:	2102      	movs	r1, #2
 80013c6:	2200      	movs	r2, #0
 80013c8:	f008 fc8d 	bl	8009ce6 <DMA_ITConfig>
 80013cc:	2300      	movs	r3, #0
 80013ce:	702b      	strb	r3, [r5, #0]
 80013d0:	4b0b      	ldr	r3, [pc, #44]	; (8001400 <si446x_spi_state_machine+0x298>)
 80013d2:	691b      	ldr	r3, [r3, #16]
 80013d4:	b193      	cbz	r3, 80013fc <si446x_spi_state_machine+0x294>
 80013d6:	4812      	ldr	r0, [pc, #72]	; (8001420 <si446x_spi_state_machine+0x2b8>)
 80013d8:	2100      	movs	r1, #0
 80013da:	4798      	blx	r3
 80013dc:	e00e      	b.n	80013fc <si446x_spi_state_machine+0x294>
 80013de:	480c      	ldr	r0, [pc, #48]	; (8001410 <si446x_spi_state_machine+0x2a8>)
 80013e0:	2103      	movs	r1, #3
 80013e2:	2200      	movs	r2, #0
 80013e4:	f009 f845 	bl	800a472 <SPI_I2S_DMACmd>
 80013e8:	4808      	ldr	r0, [pc, #32]	; (800140c <si446x_spi_state_machine+0x2a4>)
 80013ea:	2100      	movs	r1, #0
 80013ec:	f008 fc72 	bl	8009cd4 <DMA_Cmd>
 80013f0:	4805      	ldr	r0, [pc, #20]	; (8001408 <si446x_spi_state_machine+0x2a0>)
 80013f2:	2100      	movs	r1, #0
 80013f4:	f008 fc6e 	bl	8009cd4 <DMA_Cmd>
 80013f8:	2300      	movs	r3, #0
 80013fa:	702b      	strb	r3, [r5, #0]
 80013fc:	b00d      	add	sp, #52	; 0x34
 80013fe:	bdf0      	pop	{r4, r5, r6, r7, pc}
 8001400:	200009e0 	andcs	r0, r0, r0, ror #19
 8001404:	4001300c 	andmi	r3, r1, ip
 8001408:	40020030 	andmi	r0, r2, r0, lsr r0
 800140c:	4002001c 	andmi	r0, r2, ip, lsl r0
 8001410:	40013000 	andmi	r3, r1, r0
 8001414:	40010800 	andmi	r0, r1, r0, lsl #16
 8001418:	20001868 	andcs	r1, r0, r8, ror #16
 800141c:	40010c00 	andmi	r0, r1, r0, lsl #24
 8001420:	2000124c 	andcs	r1, r0, ip, asr #4

08001424 <si446x_set_modem>:
 8001424:	b530      	push	{r4, r5, lr}
 8001426:	b099      	sub	sp, #100	; 0x64
 8001428:	4a86      	ldr	r2, [pc, #536]	; (8001644 <si446x_set_modem+0x220>)
 800142a:	ab08      	add	r3, sp, #32
 800142c:	6810      	ldr	r0, [r2, #0]
 800142e:	9008      	str	r0, [sp, #32]
 8001430:	7912      	ldrb	r2, [r2, #4]
 8001432:	f88d 2024 	strb.w	r2, [sp, #36]	; 0x24
 8001436:	e893 0003 	ldmia.w	r3, {r0, r1}
 800143a:	9004      	str	r0, [sp, #16]
 800143c:	f88d 1014 	strb.w	r1, [sp, #20]
 8001440:	ab03      	add	r3, sp, #12
 8001442:	9300      	str	r3, [sp, #0]
 8001444:	2300      	movs	r3, #0
 8001446:	9301      	str	r3, [sp, #4]
 8001448:	487f      	ldr	r0, [pc, #508]	; (8001648 <si446x_set_modem+0x224>)
 800144a:	2105      	movs	r1, #5
 800144c:	aa04      	add	r2, sp, #16
 800144e:	f7ff fe8b 	bl	8001168 <si446x_spi_state_machine>
 8001452:	e000      	b.n	8001456 <si446x_set_modem+0x32>
 8001454:	bf30      	wfi
 8001456:	4b7d      	ldr	r3, [pc, #500]	; (800164c <si446x_set_modem+0x228>)
 8001458:	f893 3020 	ldrb.w	r3, [r3, #32]
 800145c:	f013 0fff 	tst.w	r3, #255	; 0xff
 8001460:	d1f8      	bne.n	8001454 <si446x_set_modem+0x30>
 8001462:	ab0a      	add	r3, sp, #40	; 0x28
 8001464:	4a77      	ldr	r2, [pc, #476]	; (8001644 <si446x_set_modem+0x220>)
 8001466:	f852 0f08 	ldr.w	r0, [r2, #8]!
 800146a:	900a      	str	r0, [sp, #40]	; 0x28
 800146c:	8891      	ldrh	r1, [r2, #4]
 800146e:	7992      	ldrb	r2, [r2, #6]
 8001470:	f8ad 102c 	strh.w	r1, [sp, #44]	; 0x2c
 8001474:	f88d 202e 	strb.w	r2, [sp, #46]	; 0x2e
 8001478:	e893 0003 	ldmia.w	r3, {r0, r1}
 800147c:	9004      	str	r0, [sp, #16]
 800147e:	f8ad 1014 	strh.w	r1, [sp, #20]
 8001482:	0c09      	lsrs	r1, r1, #16
 8001484:	f88d 1016 	strb.w	r1, [sp, #22]
 8001488:	ab03      	add	r3, sp, #12
 800148a:	9300      	str	r3, [sp, #0]
 800148c:	2300      	movs	r3, #0
 800148e:	9301      	str	r3, [sp, #4]
 8001490:	486d      	ldr	r0, [pc, #436]	; (8001648 <si446x_set_modem+0x224>)
 8001492:	2107      	movs	r1, #7
 8001494:	aa04      	add	r2, sp, #16
 8001496:	f7ff fe67 	bl	8001168 <si446x_spi_state_machine>
 800149a:	e000      	b.n	800149e <si446x_set_modem+0x7a>
 800149c:	bf30      	wfi
 800149e:	4b6b      	ldr	r3, [pc, #428]	; (800164c <si446x_set_modem+0x228>)
 80014a0:	f893 3020 	ldrb.w	r3, [r3, #32]
 80014a4:	f013 0fff 	tst.w	r3, #255	; 0xff
 80014a8:	d1f8      	bne.n	800149c <si446x_set_modem+0x78>
 80014aa:	2311      	movs	r3, #17
 80014ac:	f88d 3030 	strb.w	r3, [sp, #48]	; 0x30
 80014b0:	2320      	movs	r3, #32
 80014b2:	f88d 3031 	strb.w	r3, [sp, #49]	; 0x31
 80014b6:	2304      	movs	r3, #4
 80014b8:	f88d 3032 	strb.w	r3, [sp, #50]	; 0x32
 80014bc:	234a      	movs	r3, #74	; 0x4a
 80014be:	f88d 3033 	strb.w	r3, [sp, #51]	; 0x33
 80014c2:	235a      	movs	r3, #90	; 0x5a
 80014c4:	f88d 3034 	strb.w	r3, [sp, #52]	; 0x34
 80014c8:	230c      	movs	r3, #12
 80014ca:	f88d 3035 	strb.w	r3, [sp, #53]	; 0x35
 80014ce:	2312      	movs	r3, #18
 80014d0:	f88d 3036 	strb.w	r3, [sp, #54]	; 0x36
 80014d4:	233e      	movs	r3, #62	; 0x3e
 80014d6:	f88d 3037 	strb.w	r3, [sp, #55]	; 0x37
 80014da:	aa04      	add	r2, sp, #16
 80014dc:	ab0c      	add	r3, sp, #48	; 0x30
 80014de:	e893 0003 	ldmia.w	r3, {r0, r1}
 80014e2:	e882 0003 	stmia.w	r2, {r0, r1}
 80014e6:	ab03      	add	r3, sp, #12
 80014e8:	9300      	str	r3, [sp, #0]
 80014ea:	2300      	movs	r3, #0
 80014ec:	9301      	str	r3, [sp, #4]
 80014ee:	4856      	ldr	r0, [pc, #344]	; (8001648 <si446x_set_modem+0x224>)
 80014f0:	2108      	movs	r1, #8
 80014f2:	f7ff fe39 	bl	8001168 <si446x_spi_state_machine>
 80014f6:	e000      	b.n	80014fa <si446x_set_modem+0xd6>
 80014f8:	bf30      	wfi
 80014fa:	4b54      	ldr	r3, [pc, #336]	; (800164c <si446x_set_modem+0x228>)
 80014fc:	f893 3020 	ldrb.w	r3, [r3, #32]
 8001500:	f013 0fff 	tst.w	r3, #255	; 0xff
 8001504:	d1f8      	bne.n	80014f8 <si446x_set_modem+0xd4>
 8001506:	2311      	movs	r3, #17
 8001508:	f88d 3038 	strb.w	r3, [sp, #56]	; 0x38
 800150c:	2330      	movs	r3, #48	; 0x30
 800150e:	f88d 3039 	strb.w	r3, [sp, #57]	; 0x39
 8001512:	230c      	movs	r3, #12
 8001514:	f88d 303a 	strb.w	r3, [sp, #58]	; 0x3a
 8001518:	2500      	movs	r5, #0
 800151a:	f88d 503b 	strb.w	r5, [sp, #59]	; 0x3b
 800151e:	2224      	movs	r2, #36	; 0x24
 8001520:	f88d 203c 	strb.w	r2, [sp, #60]	; 0x3c
 8001524:	23ff      	movs	r3, #255	; 0xff
 8001526:	f88d 303d 	strb.w	r3, [sp, #61]	; 0x3d
 800152a:	2141      	movs	r1, #65	; 0x41
 800152c:	f88d 103e 	strb.w	r1, [sp, #62]	; 0x3e
 8001530:	f88d 203f 	strb.w	r2, [sp, #63]	; 0x3f
 8001534:	f88d 3040 	strb.w	r3, [sp, #64]	; 0x40
 8001538:	2242      	movs	r2, #66	; 0x42
 800153a:	f88d 2041 	strb.w	r2, [sp, #65]	; 0x41
 800153e:	2252      	movs	r2, #82	; 0x52
 8001540:	f88d 2042 	strb.w	r2, [sp, #66]	; 0x42
 8001544:	f88d 3043 	strb.w	r3, [sp, #67]	; 0x43
 8001548:	2243      	movs	r2, #67	; 0x43
 800154a:	f88d 2044 	strb.w	r2, [sp, #68]	; 0x44
 800154e:	224f      	movs	r2, #79	; 0x4f
 8001550:	f88d 2045 	strb.w	r2, [sp, #69]	; 0x45
 8001554:	f88d 3046 	strb.w	r3, [sp, #70]	; 0x46
 8001558:	2344      	movs	r3, #68	; 0x44
 800155a:	f88d 3047 	strb.w	r3, [sp, #71]	; 0x47
 800155e:	ac04      	add	r4, sp, #16
 8001560:	ab0e      	add	r3, sp, #56	; 0x38
 8001562:	cb0f      	ldmia	r3, {r0, r1, r2, r3}
 8001564:	e884 000f 	stmia.w	r4, {r0, r1, r2, r3}
 8001568:	ab03      	add	r3, sp, #12
 800156a:	9300      	str	r3, [sp, #0]
 800156c:	9501      	str	r5, [sp, #4]
 800156e:	4836      	ldr	r0, [pc, #216]	; (8001648 <si446x_set_modem+0x224>)
 8001570:	2110      	movs	r1, #16
 8001572:	4622      	mov	r2, r4
 8001574:	462b      	mov	r3, r5
 8001576:	f7ff fdf7 	bl	8001168 <si446x_spi_state_machine>
 800157a:	e000      	b.n	800157e <si446x_set_modem+0x15a>
 800157c:	bf30      	wfi
 800157e:	4b33      	ldr	r3, [pc, #204]	; (800164c <si446x_set_modem+0x228>)
 8001580:	f893 3020 	ldrb.w	r3, [r3, #32]
 8001584:	f013 0fff 	tst.w	r3, #255	; 0xff
 8001588:	d1f8      	bne.n	800157c <si446x_set_modem+0x158>
 800158a:	ab12      	add	r3, sp, #72	; 0x48
 800158c:	4a2d      	ldr	r2, [pc, #180]	; (8001644 <si446x_set_modem+0x220>)
 800158e:	f852 0f10 	ldr.w	r0, [r2, #16]!
 8001592:	9012      	str	r0, [sp, #72]	; 0x48
 8001594:	7912      	ldrb	r2, [r2, #4]
 8001596:	f88d 204c 	strb.w	r2, [sp, #76]	; 0x4c
 800159a:	e893 0003 	ldmia.w	r3, {r0, r1}
 800159e:	9004      	str	r0, [sp, #16]
 80015a0:	f88d 1014 	strb.w	r1, [sp, #20]
 80015a4:	ab03      	add	r3, sp, #12
 80015a6:	9300      	str	r3, [sp, #0]
 80015a8:	2300      	movs	r3, #0
 80015aa:	9301      	str	r3, [sp, #4]
 80015ac:	4826      	ldr	r0, [pc, #152]	; (8001648 <si446x_set_modem+0x224>)
 80015ae:	2105      	movs	r1, #5
 80015b0:	aa04      	add	r2, sp, #16
 80015b2:	f7ff fdd9 	bl	8001168 <si446x_spi_state_machine>
 80015b6:	e000      	b.n	80015ba <si446x_set_modem+0x196>
 80015b8:	bf30      	wfi
 80015ba:	4b24      	ldr	r3, [pc, #144]	; (800164c <si446x_set_modem+0x228>)
 80015bc:	f893 3020 	ldrb.w	r3, [r3, #32]
 80015c0:	f013 0fff 	tst.w	r3, #255	; 0xff
 80015c4:	d1f8      	bne.n	80015b8 <si446x_set_modem+0x194>
 80015c6:	ab14      	add	r3, sp, #80	; 0x50
 80015c8:	4a1e      	ldr	r2, [pc, #120]	; (8001644 <si446x_set_modem+0x220>)
 80015ca:	f852 0f18 	ldr.w	r0, [r2, #24]!
 80015ce:	9014      	str	r0, [sp, #80]	; 0x50
 80015d0:	7912      	ldrb	r2, [r2, #4]
 80015d2:	f88d 2054 	strb.w	r2, [sp, #84]	; 0x54
 80015d6:	e893 0003 	ldmia.w	r3, {r0, r1}
 80015da:	9004      	str	r0, [sp, #16]
 80015dc:	f88d 1014 	strb.w	r1, [sp, #20]
 80015e0:	ab03      	add	r3, sp, #12
 80015e2:	9300      	str	r3, [sp, #0]
 80015e4:	2300      	movs	r3, #0
 80015e6:	9301      	str	r3, [sp, #4]
 80015e8:	4817      	ldr	r0, [pc, #92]	; (8001648 <si446x_set_modem+0x224>)
 80015ea:	2105      	movs	r1, #5
 80015ec:	aa04      	add	r2, sp, #16
 80015ee:	f7ff fdbb 	bl	8001168 <si446x_spi_state_machine>
 80015f2:	e000      	b.n	80015f6 <si446x_set_modem+0x1d2>
 80015f4:	bf30      	wfi
 80015f6:	4b15      	ldr	r3, [pc, #84]	; (800164c <si446x_set_modem+0x228>)
 80015f8:	f893 3020 	ldrb.w	r3, [r3, #32]
 80015fc:	f013 0fff 	tst.w	r3, #255	; 0xff
 8001600:	d1f8      	bne.n	80015f4 <si446x_set_modem+0x1d0>
 8001602:	ab16      	add	r3, sp, #88	; 0x58
 8001604:	4a0f      	ldr	r2, [pc, #60]	; (8001644 <si446x_set_modem+0x220>)
 8001606:	f852 0f20 	ldr.w	r0, [r2, #32]!
 800160a:	9016      	str	r0, [sp, #88]	; 0x58
 800160c:	8892      	ldrh	r2, [r2, #4]
 800160e:	f8ad 205c 	strh.w	r2, [sp, #92]	; 0x5c
 8001612:	e893 0003 	ldmia.w	r3, {r0, r1}
 8001616:	9004      	str	r0, [sp, #16]
 8001618:	f8ad 1014 	strh.w	r1, [sp, #20]
 800161c:	ab03      	add	r3, sp, #12
 800161e:	9300      	str	r3, [sp, #0]
 8001620:	2300      	movs	r3, #0
 8001622:	9301      	str	r3, [sp, #4]
 8001624:	4808      	ldr	r0, [pc, #32]	; (8001648 <si446x_set_modem+0x224>)
 8001626:	2106      	movs	r1, #6
 8001628:	aa04      	add	r2, sp, #16
 800162a:	f7ff fd9d 	bl	8001168 <si446x_spi_state_machine>
 800162e:	e000      	b.n	8001632 <si446x_set_modem+0x20e>
 8001630:	bf30      	wfi
 8001632:	4b06      	ldr	r3, [pc, #24]	; (800164c <si446x_set_modem+0x228>)
 8001634:	f893 3020 	ldrb.w	r3, [r3, #32]
 8001638:	f013 0fff 	tst.w	r3, #255	; 0xff
 800163c:	d1f8      	bne.n	8001630 <si446x_set_modem+0x20c>
 800163e:	b019      	add	sp, #100	; 0x64
 8001640:	bd30      	pop	{r4, r5, pc}
 8001642:	bf00      	nop
 8001644:	0800b598 	stmdaeq	r0, {r3, r4, r7, r8, sl, ip, sp, pc}
 8001648:	20000a00 	andcs	r0, r0, r0, lsl #20
 800164c:	200009e0 	andcs	r0, r0, r0, ror #19

08001650 <si446x_set_deviation_channel>:
 8001650:	b570      	push	{r4, r5, r6, lr}
 8001652:	b08c      	sub	sp, #48	; 0x30
 8001654:	4606      	mov	r6, r0
 8001656:	460d      	mov	r5, r1
 8001658:	4b40      	ldr	r3, [pc, #256]	; (800175c <si446x_set_deviation_channel+0x10c>)
 800165a:	f993 0000 	ldrsb.w	r0, [r3]
 800165e:	0480      	lsls	r0, r0, #18
 8001660:	f7ff fad2 	bl	8000c08 <__aeabi_i2f>
 8001664:	493e      	ldr	r1, [pc, #248]	; (8001760 <si446x_set_deviation_channel+0x110>)
 8001666:	f7ff fbd7 	bl	8000e18 <__aeabi_fdiv>
 800166a:	4604      	mov	r4, r0
 800166c:	4630      	mov	r0, r6
 800166e:	f7ff fac7 	bl	8000c00 <__aeabi_ui2f>
 8001672:	4621      	mov	r1, r4
 8001674:	f7ff fb1c 	bl	8000cb0 <__aeabi_fmul>
 8001678:	f7fe feae 	bl	80003d8 <__aeabi_f2d>
 800167c:	2200      	movs	r2, #0
 800167e:	4b39      	ldr	r3, [pc, #228]	; (8001764 <si446x_set_deviation_channel+0x114>)
 8001680:	f7fe fefe 	bl	8000480 <__aeabi_dmul>
 8001684:	f7ff f996 	bl	80009b4 <__aeabi_d2uiz>
 8001688:	f3c0 2307 	ubfx	r3, r0, #8, #8
 800168c:	f3c0 4207 	ubfx	r2, r0, #16, #8
 8001690:	2111      	movs	r1, #17
 8001692:	f88d 1020 	strb.w	r1, [sp, #32]
 8001696:	2120      	movs	r1, #32
 8001698:	f88d 1021 	strb.w	r1, [sp, #33]	; 0x21
 800169c:	2103      	movs	r1, #3
 800169e:	f88d 1022 	strb.w	r1, [sp, #34]	; 0x22
 80016a2:	210a      	movs	r1, #10
 80016a4:	f88d 1023 	strb.w	r1, [sp, #35]	; 0x23
 80016a8:	f88d 2024 	strb.w	r2, [sp, #36]	; 0x24
 80016ac:	f88d 3025 	strb.w	r3, [sp, #37]	; 0x25
 80016b0:	f88d 0026 	strb.w	r0, [sp, #38]	; 0x26
 80016b4:	ab08      	add	r3, sp, #32
 80016b6:	e893 0003 	ldmia.w	r3, {r0, r1}
 80016ba:	9004      	str	r0, [sp, #16]
 80016bc:	f8ad 1014 	strh.w	r1, [sp, #20]
 80016c0:	0c09      	lsrs	r1, r1, #16
 80016c2:	f88d 1016 	strb.w	r1, [sp, #22]
 80016c6:	ab03      	add	r3, sp, #12
 80016c8:	9300      	str	r3, [sp, #0]
 80016ca:	2300      	movs	r3, #0
 80016cc:	9301      	str	r3, [sp, #4]
 80016ce:	4826      	ldr	r0, [pc, #152]	; (8001768 <si446x_set_deviation_channel+0x118>)
 80016d0:	2107      	movs	r1, #7
 80016d2:	aa04      	add	r2, sp, #16
 80016d4:	f7ff fd48 	bl	8001168 <si446x_spi_state_machine>
 80016d8:	e000      	b.n	80016dc <si446x_set_deviation_channel+0x8c>
 80016da:	bf30      	wfi
 80016dc:	4b23      	ldr	r3, [pc, #140]	; (800176c <si446x_set_deviation_channel+0x11c>)
 80016de:	f893 3020 	ldrb.w	r3, [r3, #32]
 80016e2:	f013 0fff 	tst.w	r3, #255	; 0xff
 80016e6:	d1f8      	bne.n	80016da <si446x_set_deviation_channel+0x8a>
 80016e8:	4628      	mov	r0, r5
 80016ea:	f7ff fa89 	bl	8000c00 <__aeabi_ui2f>
 80016ee:	4621      	mov	r1, r4
 80016f0:	f7ff fade 	bl	8000cb0 <__aeabi_fmul>
 80016f4:	f7fe fe70 	bl	80003d8 <__aeabi_f2d>
 80016f8:	2200      	movs	r2, #0
 80016fa:	4b1a      	ldr	r3, [pc, #104]	; (8001764 <si446x_set_deviation_channel+0x114>)
 80016fc:	f7fe fec0 	bl	8000480 <__aeabi_dmul>
 8001700:	f7ff f958 	bl	80009b4 <__aeabi_d2uiz>
 8001704:	f3c0 2307 	ubfx	r3, r0, #8, #8
 8001708:	2211      	movs	r2, #17
 800170a:	f88d 2028 	strb.w	r2, [sp, #40]	; 0x28
 800170e:	2240      	movs	r2, #64	; 0x40
 8001710:	f88d 2029 	strb.w	r2, [sp, #41]	; 0x29
 8001714:	2202      	movs	r2, #2
 8001716:	f88d 202a 	strb.w	r2, [sp, #42]	; 0x2a
 800171a:	2204      	movs	r2, #4
 800171c:	f88d 202b 	strb.w	r2, [sp, #43]	; 0x2b
 8001720:	f88d 302c 	strb.w	r3, [sp, #44]	; 0x2c
 8001724:	f88d 002d 	strb.w	r0, [sp, #45]	; 0x2d
 8001728:	ab0c      	add	r3, sp, #48	; 0x30
 800172a:	e913 0003 	ldmdb	r3, {r0, r1}
 800172e:	9004      	str	r0, [sp, #16]
 8001730:	f8ad 1014 	strh.w	r1, [sp, #20]
 8001734:	ab03      	add	r3, sp, #12
 8001736:	9300      	str	r3, [sp, #0]
 8001738:	2300      	movs	r3, #0
 800173a:	9301      	str	r3, [sp, #4]
 800173c:	480a      	ldr	r0, [pc, #40]	; (8001768 <si446x_set_deviation_channel+0x118>)
 800173e:	2106      	movs	r1, #6
 8001740:	aa04      	add	r2, sp, #16
 8001742:	f7ff fd11 	bl	8001168 <si446x_spi_state_machine>
 8001746:	e000      	b.n	800174a <si446x_set_deviation_channel+0xfa>
 8001748:	bf30      	wfi
 800174a:	4b08      	ldr	r3, [pc, #32]	; (800176c <si446x_set_deviation_channel+0x11c>)
 800174c:	f893 3020 	ldrb.w	r3, [r3, #32]
 8001750:	f013 0fff 	tst.w	r3, #255	; 0xff
 8001754:	d1f8      	bne.n	8001748 <si446x_set_deviation_channel+0xf8>
 8001756:	b00c      	add	sp, #48	; 0x30
 8001758:	bd70      	pop	{r4, r5, r6, pc}
 800175a:	bf00      	nop
 800175c:	20000000 	andcs	r0, r0, r0
 8001760:	4bc65d40 	blmi	7198c68 <_Minimum_Stack_Size+0x7196c68>
 8001764:	3fe00000 	svccc	0x00e00000
 8001768:	20000a00 	andcs	r0, r0, r0, lsl #20
 800176c:	200009e0 	andcs	r0, r0, r0, ror #19

08001770 <si446x_set_frequency>:
 8001770:	b5f0      	push	{r4, r5, r6, r7, lr}
 8001772:	b08f      	sub	sp, #60	; 0x3c
 8001774:	4b68      	ldr	r3, [pc, #416]	; (8001918 <si446x_set_frequency+0x1a8>)
 8001776:	4298      	cmp	r0, r3
 8001778:	d804      	bhi.n	8001784 <si446x_set_frequency+0x14>
 800177a:	2206      	movs	r2, #6
 800177c:	4b67      	ldr	r3, [pc, #412]	; (800191c <si446x_set_frequency+0x1ac>)
 800177e:	701a      	strb	r2, [r3, #0]
 8001780:	2601      	movs	r6, #1
 8001782:	e000      	b.n	8001786 <si446x_set_frequency+0x16>
 8001784:	2600      	movs	r6, #0
 8001786:	4b66      	ldr	r3, [pc, #408]	; (8001920 <si446x_set_frequency+0x1b0>)
 8001788:	4298      	cmp	r0, r3
 800178a:	d803      	bhi.n	8001794 <si446x_set_frequency+0x24>
 800178c:	2208      	movs	r2, #8
 800178e:	4b63      	ldr	r3, [pc, #396]	; (800191c <si446x_set_frequency+0x1ac>)
 8001790:	701a      	strb	r2, [r3, #0]
 8001792:	2602      	movs	r6, #2
 8001794:	4b63      	ldr	r3, [pc, #396]	; (8001924 <si446x_set_frequency+0x1b4>)
 8001796:	4298      	cmp	r0, r3
 8001798:	d803      	bhi.n	80017a2 <si446x_set_frequency+0x32>
 800179a:	220c      	movs	r2, #12
 800179c:	4b5f      	ldr	r3, [pc, #380]	; (800191c <si446x_set_frequency+0x1ac>)
 800179e:	701a      	strb	r2, [r3, #0]
 80017a0:	2603      	movs	r6, #3
 80017a2:	4b61      	ldr	r3, [pc, #388]	; (8001928 <si446x_set_frequency+0x1b8>)
 80017a4:	4298      	cmp	r0, r3
 80017a6:	d803      	bhi.n	80017b0 <si446x_set_frequency+0x40>
 80017a8:	2210      	movs	r2, #16
 80017aa:	4b5c      	ldr	r3, [pc, #368]	; (800191c <si446x_set_frequency+0x1ac>)
 80017ac:	701a      	strb	r2, [r3, #0]
 80017ae:	2604      	movs	r6, #4
 80017b0:	4b5e      	ldr	r3, [pc, #376]	; (800192c <si446x_set_frequency+0x1bc>)
 80017b2:	4298      	cmp	r0, r3
 80017b4:	d803      	bhi.n	80017be <si446x_set_frequency+0x4e>
 80017b6:	2218      	movs	r2, #24
 80017b8:	4b58      	ldr	r3, [pc, #352]	; (800191c <si446x_set_frequency+0x1ac>)
 80017ba:	701a      	strb	r2, [r3, #0]
 80017bc:	2605      	movs	r6, #5
 80017be:	4b57      	ldr	r3, [pc, #348]	; (800191c <si446x_set_frequency+0x1ac>)
 80017c0:	f993 5000 	ldrsb.w	r5, [r3]
 80017c4:	4b5a      	ldr	r3, [pc, #360]	; (8001930 <si446x_set_frequency+0x1c0>)
 80017c6:	fbb3 f5f5 	udiv	r5, r3, r5
 80017ca:	fbb0 f4f5 	udiv	r4, r0, r5
 80017ce:	3c01      	subs	r4, #1
 80017d0:	f7ff fa16 	bl	8000c00 <__aeabi_ui2f>
 80017d4:	4607      	mov	r7, r0
 80017d6:	4628      	mov	r0, r5
 80017d8:	f7ff fa12 	bl	8000c00 <__aeabi_ui2f>
 80017dc:	4601      	mov	r1, r0
 80017de:	4638      	mov	r0, r7
 80017e0:	f7ff fb1a 	bl	8000e18 <__aeabi_fdiv>
 80017e4:	4605      	mov	r5, r0
 80017e6:	4620      	mov	r0, r4
 80017e8:	f7ff fa0a 	bl	8000c00 <__aeabi_ui2f>
 80017ec:	4601      	mov	r1, r0
 80017ee:	4628      	mov	r0, r5
 80017f0:	f7ff f954 	bl	8000a9c <__aeabi_fsub>
 80017f4:	f04f 4192 	mov.w	r1, #1224736768	; 0x49000000
 80017f8:	f7ff fa5a 	bl	8000cb0 <__aeabi_fmul>
 80017fc:	f7ff fc1e 	bl	800103c <__aeabi_f2uiz>
 8001800:	4605      	mov	r5, r0
 8001802:	2311      	movs	r3, #17
 8001804:	f88d 301c 	strb.w	r3, [sp, #28]
 8001808:	2320      	movs	r3, #32
 800180a:	f88d 301d 	strb.w	r3, [sp, #29]
 800180e:	2301      	movs	r3, #1
 8001810:	f88d 301e 	strb.w	r3, [sp, #30]
 8001814:	2351      	movs	r3, #81	; 0x51
 8001816:	f88d 301f 	strb.w	r3, [sp, #31]
 800181a:	3608      	adds	r6, #8
 800181c:	f88d 6020 	strb.w	r6, [sp, #32]
 8001820:	ab07      	add	r3, sp, #28
 8001822:	e893 0003 	ldmia.w	r3, {r0, r1}
 8001826:	9003      	str	r0, [sp, #12]
 8001828:	f88d 1010 	strb.w	r1, [sp, #16]
 800182c:	ab02      	add	r3, sp, #8
 800182e:	9300      	str	r3, [sp, #0]
 8001830:	2300      	movs	r3, #0
 8001832:	9301      	str	r3, [sp, #4]
 8001834:	483f      	ldr	r0, [pc, #252]	; (8001934 <si446x_set_frequency+0x1c4>)
 8001836:	2105      	movs	r1, #5
 8001838:	aa03      	add	r2, sp, #12
 800183a:	f7ff fc95 	bl	8001168 <si446x_spi_state_machine>
 800183e:	e000      	b.n	8001842 <si446x_set_frequency+0xd2>
 8001840:	bf30      	wfi
 8001842:	4b3d      	ldr	r3, [pc, #244]	; (8001938 <si446x_set_frequency+0x1c8>)
 8001844:	f893 3020 	ldrb.w	r3, [r3, #32]
 8001848:	f013 0fff 	tst.w	r3, #255	; 0xff
 800184c:	d1f8      	bne.n	8001840 <si446x_set_frequency+0xd0>
 800184e:	0c29      	lsrs	r1, r5, #16
 8001850:	eba5 4501 	sub.w	r5, r5, r1, lsl #16
 8001854:	0a28      	lsrs	r0, r5, #8
 8001856:	4b31      	ldr	r3, [pc, #196]	; (800191c <si446x_set_frequency+0x1ac>)
 8001858:	f993 2000 	ldrsb.w	r2, [r3]
 800185c:	f44f 7396 	mov.w	r3, #300	; 0x12c
 8001860:	fb03 f202 	mul.w	r2, r3, r2
 8001864:	04d3      	lsls	r3, r2, #19
 8001866:	4a35      	ldr	r2, [pc, #212]	; (800193c <si446x_set_frequency+0x1cc>)
 8001868:	fba2 3203 	umull	r3, r2, r2, r3
 800186c:	2300      	movs	r3, #0
 800186e:	0e52      	lsrs	r2, r2, #25
 8001870:	2611      	movs	r6, #17
 8001872:	f88d 6024 	strb.w	r6, [sp, #36]	; 0x24
 8001876:	2640      	movs	r6, #64	; 0x40
 8001878:	f88d 6025 	strb.w	r6, [sp, #37]	; 0x25
 800187c:	2606      	movs	r6, #6
 800187e:	f88d 6026 	strb.w	r6, [sp, #38]	; 0x26
 8001882:	f88d 3027 	strb.w	r3, [sp, #39]	; 0x27
 8001886:	f88d 4028 	strb.w	r4, [sp, #40]	; 0x28
 800188a:	f88d 1029 	strb.w	r1, [sp, #41]	; 0x29
 800188e:	f88d 002a 	strb.w	r0, [sp, #42]	; 0x2a
 8001892:	f88d 502b 	strb.w	r5, [sp, #43]	; 0x2b
 8001896:	f88d 302c 	strb.w	r3, [sp, #44]	; 0x2c
 800189a:	f88d 202d 	strb.w	r2, [sp, #45]	; 0x2d
 800189e:	ac03      	add	r4, sp, #12
 80018a0:	aa09      	add	r2, sp, #36	; 0x24
 80018a2:	ca07      	ldmia	r2, {r0, r1, r2}
 80018a4:	c403      	stmia	r4!, {r0, r1}
 80018a6:	8022      	strh	r2, [r4, #0]
 80018a8:	aa02      	add	r2, sp, #8
 80018aa:	9200      	str	r2, [sp, #0]
 80018ac:	9301      	str	r3, [sp, #4]
 80018ae:	4821      	ldr	r0, [pc, #132]	; (8001934 <si446x_set_frequency+0x1c4>)
 80018b0:	210a      	movs	r1, #10
 80018b2:	aa03      	add	r2, sp, #12
 80018b4:	f7ff fc58 	bl	8001168 <si446x_spi_state_machine>
 80018b8:	e000      	b.n	80018bc <si446x_set_frequency+0x14c>
 80018ba:	bf30      	wfi
 80018bc:	4b1e      	ldr	r3, [pc, #120]	; (8001938 <si446x_set_frequency+0x1c8>)
 80018be:	f893 3020 	ldrb.w	r3, [r3, #32]
 80018c2:	f013 0fff 	tst.w	r3, #255	; 0xff
 80018c6:	d1f8      	bne.n	80018ba <si446x_set_frequency+0x14a>
 80018c8:	2311      	movs	r3, #17
 80018ca:	f88d 3030 	strb.w	r3, [sp, #48]	; 0x30
 80018ce:	2322      	movs	r3, #34	; 0x22
 80018d0:	f88d 3031 	strb.w	r3, [sp, #49]	; 0x31
 80018d4:	2301      	movs	r3, #1
 80018d6:	f88d 3032 	strb.w	r3, [sp, #50]	; 0x32
 80018da:	f88d 3033 	strb.w	r3, [sp, #51]	; 0x33
 80018de:	2320      	movs	r3, #32
 80018e0:	f88d 3034 	strb.w	r3, [sp, #52]	; 0x34
 80018e4:	ab0e      	add	r3, sp, #56	; 0x38
 80018e6:	e913 0003 	ldmdb	r3, {r0, r1}
 80018ea:	9003      	str	r0, [sp, #12]
 80018ec:	f88d 1010 	strb.w	r1, [sp, #16]
 80018f0:	ab02      	add	r3, sp, #8
 80018f2:	9300      	str	r3, [sp, #0]
 80018f4:	2300      	movs	r3, #0
 80018f6:	9301      	str	r3, [sp, #4]
 80018f8:	480e      	ldr	r0, [pc, #56]	; (8001934 <si446x_set_frequency+0x1c4>)
 80018fa:	2105      	movs	r1, #5
 80018fc:	aa03      	add	r2, sp, #12
 80018fe:	f7ff fc33 	bl	8001168 <si446x_spi_state_machine>
 8001902:	e000      	b.n	8001906 <si446x_set_frequency+0x196>
 8001904:	bf30      	wfi
 8001906:	4b0c      	ldr	r3, [pc, #48]	; (8001938 <si446x_set_frequency+0x1c8>)
 8001908:	f893 3020 	ldrb.w	r3, [r3, #32]
 800190c:	f013 0fff 	tst.w	r3, #255	; 0xff
 8001910:	d1f8      	bne.n	8001904 <si446x_set_frequency+0x194>
 8001912:	b00f      	add	sp, #60	; 0x3c
 8001914:	bdf0      	pop	{r4, r5, r6, r7, pc}
 8001916:	bf00      	nop
 8001918:	2a05723f 	bcs	815e21c <_lastdataromaddress+0x13e21c>
 800191c:	20000000 	andcs	r0, r0, r0
 8001920:	1f4add3f 	svcne	0x004add3f
 8001924:	150a5a3f 	strne	r5, [sl, #-2623]	; 0xa3f
 8001928:	0e3ed9bf 	mrceq	9, 1, sp, cr14, cr15, {5}
 800192c:	0a8cce3f 	beq	6335230 <_Minimum_Stack_Size+0x6333230>
 8001930:	03197500 	tsteq	r9, #0, 10
 8001934:	20000a00 	andcs	r0, r0, r0, lsl #20
 8001938:	200009e0 	andcs	r0, r0, r0, ror #19
 800193c:	a530e8a5 	ldrge	lr, [r0, #-2213]!	; 0x8a5

08001940 <si446x_state_machine>:
 8001940:	b530      	push	{r4, r5, lr}
 8001942:	b083      	sub	sp, #12
 8001944:	4605      	mov	r5, r0
 8001946:	460c      	mov	r4, r1
 8001948:	7803      	ldrb	r3, [r0, #0]
 800194a:	2b06      	cmp	r3, #6
 800194c:	f200 817b 	bhi.w	8001c46 <si446x_state_machine+0x306>
 8001950:	e8df f013 	tbh	[pc, r3, lsl #1]
 8001954:	00480007 	subeq	r0, r8, r7
 8001958:	00940075 	addseq	r0, r4, r5, ror r0
 800195c:	011b00bc 	ldrheq	r0, [fp, -ip]
 8001960:	b911013f 	ldmdblt	r1, {r0, r1, r2, r3, r4, r5, r8}
 8001964:	2300      	movs	r3, #0
 8001966:	7003      	strb	r3, [r0, #0]
 8001968:	e012      	b.n	8001990 <si446x_state_machine+0x50>
 800196a:	2901      	cmp	r1, #1
 800196c:	d110      	bne.n	8001990 <si446x_state_machine+0x50>
 800196e:	2101      	movs	r1, #1
 8001970:	7001      	strb	r1, [r0, #0]
 8001972:	4ab7      	ldr	r2, [pc, #732]	; (8001c50 <si446x_state_machine+0x310>)
 8001974:	2321      	movs	r3, #33	; 0x21
 8001976:	f882 3024 	strb.w	r3, [r2, #36]	; 0x24
 800197a:	f102 032c 	add.w	r3, r2, #44	; 0x2c
 800197e:	9300      	str	r3, [sp, #0]
 8001980:	4bb4      	ldr	r3, [pc, #720]	; (8001c54 <si446x_state_machine+0x314>)
 8001982:	9301      	str	r3, [sp, #4]
 8001984:	f102 0020 	add.w	r0, r2, #32
 8001988:	3224      	adds	r2, #36	; 0x24
 800198a:	2304      	movs	r3, #4
 800198c:	f7ff fbec 	bl	8001168 <si446x_spi_state_machine>
 8001990:	2c02      	cmp	r4, #2
 8001992:	d005      	beq.n	80019a0 <si446x_state_machine+0x60>
 8001994:	4bae      	ldr	r3, [pc, #696]	; (8001c50 <si446x_state_machine+0x310>)
 8001996:	f893 3036 	ldrb.w	r3, [r3, #54]	; 0x36
 800199a:	2b01      	cmp	r3, #1
 800199c:	f040 8155 	bne.w	8001c4a <si446x_state_machine+0x30a>
 80019a0:	4aab      	ldr	r2, [pc, #684]	; (8001c50 <si446x_state_machine+0x310>)
 80019a2:	2300      	movs	r3, #0
 80019a4:	f882 3036 	strb.w	r3, [r2, #54]	; 0x36
 80019a8:	2105      	movs	r1, #5
 80019aa:	7029      	strb	r1, [r5, #0]
 80019ac:	2131      	movs	r1, #49	; 0x31
 80019ae:	f882 1024 	strb.w	r1, [r2, #36]	; 0x24
 80019b2:	f892 1037 	ldrb.w	r1, [r2, #55]	; 0x37
 80019b6:	f882 1025 	strb.w	r1, [r2, #37]	; 0x25
 80019ba:	2130      	movs	r1, #48	; 0x30
 80019bc:	f882 1026 	strb.w	r1, [r2, #38]	; 0x26
 80019c0:	f882 3027 	strb.w	r3, [r2, #39]	; 0x27
 80019c4:	f882 3028 	strb.w	r3, [r2, #40]	; 0x28
 80019c8:	f882 3029 	strb.w	r3, [r2, #41]	; 0x29
 80019cc:	f102 012c 	add.w	r1, r2, #44	; 0x2c
 80019d0:	9100      	str	r1, [sp, #0]
 80019d2:	49a0      	ldr	r1, [pc, #640]	; (8001c54 <si446x_state_machine+0x314>)
 80019d4:	9101      	str	r1, [sp, #4]
 80019d6:	f102 0020 	add.w	r0, r2, #32
 80019da:	2106      	movs	r1, #6
 80019dc:	3224      	adds	r2, #36	; 0x24
 80019de:	f7ff fbc3 	bl	8001168 <si446x_spi_state_machine>
 80019e2:	e132      	b.n	8001c4a <si446x_state_machine+0x30a>
 80019e4:	bb19      	cbnz	r1, 8001a2e <si446x_state_machine+0xee>
 80019e6:	4b9a      	ldr	r3, [pc, #616]	; (8001c50 <si446x_state_machine+0x310>)
 80019e8:	f893 302f 	ldrb.w	r3, [r3, #47]	; 0x2f
 80019ec:	f003 0318 	and.w	r3, r3, #24
 80019f0:	2b10      	cmp	r3, #16
 80019f2:	d102      	bne.n	80019fa <si446x_state_machine+0xba>
 80019f4:	2302      	movs	r3, #2
 80019f6:	7003      	strb	r3, [r0, #0]
 80019f8:	e001      	b.n	80019fe <si446x_state_machine+0xbe>
 80019fa:	2300      	movs	r3, #0
 80019fc:	7003      	strb	r3, [r0, #0]
 80019fe:	4a94      	ldr	r2, [pc, #592]	; (8001c50 <si446x_state_machine+0x310>)
 8001a00:	2320      	movs	r3, #32
 8001a02:	f882 3024 	strb.w	r3, [r2, #36]	; 0x24
 8001a06:	2300      	movs	r3, #0
 8001a08:	f882 3025 	strb.w	r3, [r2, #37]	; 0x25
 8001a0c:	f882 3026 	strb.w	r3, [r2, #38]	; 0x26
 8001a10:	f882 3027 	strb.w	r3, [r2, #39]	; 0x27
 8001a14:	f102 032c 	add.w	r3, r2, #44	; 0x2c
 8001a18:	9300      	str	r3, [sp, #0]
 8001a1a:	4b8e      	ldr	r3, [pc, #568]	; (8001c54 <si446x_state_machine+0x314>)
 8001a1c:	9301      	str	r3, [sp, #4]
 8001a1e:	f102 0020 	add.w	r0, r2, #32
 8001a22:	2104      	movs	r1, #4
 8001a24:	3224      	adds	r2, #36	; 0x24
 8001a26:	230a      	movs	r3, #10
 8001a28:	f7ff fb9e 	bl	8001168 <si446x_spi_state_machine>
 8001a2c:	e10d      	b.n	8001c4a <si446x_state_machine+0x30a>
 8001a2e:	2902      	cmp	r1, #2
 8001a30:	f040 810b 	bne.w	8001c4a <si446x_state_machine+0x30a>
 8001a34:	2201      	movs	r2, #1
 8001a36:	4b86      	ldr	r3, [pc, #536]	; (8001c50 <si446x_state_machine+0x310>)
 8001a38:	f883 2036 	strb.w	r2, [r3, #54]	; 0x36
 8001a3c:	e105      	b.n	8001c4a <si446x_state_machine+0x30a>
 8001a3e:	b9a9      	cbnz	r1, 8001a6c <si446x_state_machine+0x12c>
 8001a40:	2303      	movs	r3, #3
 8001a42:	7003      	strb	r3, [r0, #0]
 8001a44:	4a82      	ldr	r2, [pc, #520]	; (8001c50 <si446x_state_machine+0x310>)
 8001a46:	2315      	movs	r3, #21
 8001a48:	f882 3024 	strb.w	r3, [r2, #36]	; 0x24
 8001a4c:	2300      	movs	r3, #0
 8001a4e:	f882 3025 	strb.w	r3, [r2, #37]	; 0x25
 8001a52:	f102 032c 	add.w	r3, r2, #44	; 0x2c
 8001a56:	9300      	str	r3, [sp, #0]
 8001a58:	4b7e      	ldr	r3, [pc, #504]	; (8001c54 <si446x_state_machine+0x314>)
 8001a5a:	9301      	str	r3, [sp, #4]
 8001a5c:	f102 0020 	add.w	r0, r2, #32
 8001a60:	2102      	movs	r1, #2
 8001a62:	3224      	adds	r2, #36	; 0x24
 8001a64:	2304      	movs	r3, #4
 8001a66:	f7ff fb7f 	bl	8001168 <si446x_spi_state_machine>
 8001a6a:	e0ee      	b.n	8001c4a <si446x_state_machine+0x30a>
 8001a6c:	2902      	cmp	r1, #2
 8001a6e:	f040 80ec 	bne.w	8001c4a <si446x_state_machine+0x30a>
 8001a72:	2201      	movs	r2, #1
 8001a74:	4b76      	ldr	r3, [pc, #472]	; (8001c50 <si446x_state_machine+0x310>)
 8001a76:	f883 2036 	strb.w	r2, [r3, #54]	; 0x36
 8001a7a:	e0e6      	b.n	8001c4a <si446x_state_machine+0x30a>
 8001a7c:	b9f1      	cbnz	r1, 8001abc <si446x_state_machine+0x17c>
 8001a7e:	4b74      	ldr	r3, [pc, #464]	; (8001c50 <si446x_state_machine+0x310>)
 8001a80:	f893 302e 	ldrb.w	r3, [r3, #46]	; 0x2e
 8001a84:	b1bb      	cbz	r3, 8001ab6 <si446x_state_machine+0x176>
 8001a86:	2304      	movs	r3, #4
 8001a88:	7003      	strb	r3, [r0, #0]
 8001a8a:	4a71      	ldr	r2, [pc, #452]	; (8001c50 <si446x_state_machine+0x310>)
 8001a8c:	2377      	movs	r3, #119	; 0x77
 8001a8e:	f882 3024 	strb.w	r3, [r2, #36]	; 0x24
 8001a92:	f892 302e 	ldrb.w	r3, [r2, #46]	; 0x2e
 8001a96:	3301      	adds	r3, #1
 8001a98:	b2db      	uxtb	r3, r3
 8001a9a:	f882 3038 	strb.w	r3, [r2, #56]	; 0x38
 8001a9e:	f102 012c 	add.w	r1, r2, #44	; 0x2c
 8001aa2:	9100      	str	r1, [sp, #0]
 8001aa4:	496b      	ldr	r1, [pc, #428]	; (8001c54 <si446x_state_machine+0x314>)
 8001aa6:	9101      	str	r1, [sp, #4]
 8001aa8:	f102 0020 	add.w	r0, r2, #32
 8001aac:	2101      	movs	r1, #1
 8001aae:	3224      	adds	r2, #36	; 0x24
 8001ab0:	f7ff fb5a 	bl	8001168 <si446x_spi_state_machine>
 8001ab4:	e0c9      	b.n	8001c4a <si446x_state_machine+0x30a>
 8001ab6:	2300      	movs	r3, #0
 8001ab8:	7003      	strb	r3, [r0, #0]
 8001aba:	e0c6      	b.n	8001c4a <si446x_state_machine+0x30a>
 8001abc:	2902      	cmp	r1, #2
 8001abe:	f040 80c4 	bne.w	8001c4a <si446x_state_machine+0x30a>
 8001ac2:	2201      	movs	r2, #1
 8001ac4:	4b62      	ldr	r3, [pc, #392]	; (8001c50 <si446x_state_machine+0x310>)
 8001ac6:	f883 2036 	strb.w	r2, [r3, #54]	; 0x36
 8001aca:	e0be      	b.n	8001c4a <si446x_state_machine+0x30a>
 8001acc:	b151      	cbz	r1, 8001ae4 <si446x_state_machine+0x1a4>
 8001ace:	e055      	b.n	8001b7c <si446x_state_machine+0x23c>
 8001ad0:	495f      	ldr	r1, [pc, #380]	; (8001c50 <si446x_state_machine+0x310>)
 8001ad2:	190b      	adds	r3, r1, r4
 8001ad4:	f893 002c 	ldrb.w	r0, [r3, #44]	; 0x2c
 8001ad8:	313c      	adds	r1, #60	; 0x3c
 8001ada:	f001 f9c7 	bl	8002e6c <Add_To_Buffer>
 8001ade:	3401      	adds	r4, #1
 8001ae0:	b2e4      	uxtb	r4, r4
 8001ae2:	e000      	b.n	8001ae6 <si446x_state_machine+0x1a6>
 8001ae4:	2400      	movs	r4, #0
 8001ae6:	4b5a      	ldr	r3, [pc, #360]	; (8001c50 <si446x_state_machine+0x310>)
 8001ae8:	f893 3038 	ldrb.w	r3, [r3, #56]	; 0x38
 8001aec:	429c      	cmp	r4, r3
 8001aee:	d3ef      	bcc.n	8001ad0 <si446x_state_machine+0x190>
 8001af0:	4b57      	ldr	r3, [pc, #348]	; (8001c50 <si446x_state_machine+0x310>)
 8001af2:	f893 3036 	ldrb.w	r3, [r3, #54]	; 0x36
 8001af6:	b30b      	cbz	r3, 8001b3c <si446x_state_machine+0x1fc>
 8001af8:	2305      	movs	r3, #5
 8001afa:	702b      	strb	r3, [r5, #0]
 8001afc:	4a54      	ldr	r2, [pc, #336]	; (8001c50 <si446x_state_machine+0x310>)
 8001afe:	2300      	movs	r3, #0
 8001b00:	f882 3036 	strb.w	r3, [r2, #54]	; 0x36
 8001b04:	2131      	movs	r1, #49	; 0x31
 8001b06:	f882 1024 	strb.w	r1, [r2, #36]	; 0x24
 8001b0a:	f892 1037 	ldrb.w	r1, [r2, #55]	; 0x37
 8001b0e:	f882 1025 	strb.w	r1, [r2, #37]	; 0x25
 8001b12:	2130      	movs	r1, #48	; 0x30
 8001b14:	f882 1026 	strb.w	r1, [r2, #38]	; 0x26
 8001b18:	f882 3027 	strb.w	r3, [r2, #39]	; 0x27
 8001b1c:	f882 3028 	strb.w	r3, [r2, #40]	; 0x28
 8001b20:	f882 3029 	strb.w	r3, [r2, #41]	; 0x29
 8001b24:	f102 012c 	add.w	r1, r2, #44	; 0x2c
 8001b28:	9100      	str	r1, [sp, #0]
 8001b2a:	494a      	ldr	r1, [pc, #296]	; (8001c54 <si446x_state_machine+0x314>)
 8001b2c:	9101      	str	r1, [sp, #4]
 8001b2e:	f102 0020 	add.w	r0, r2, #32
 8001b32:	2106      	movs	r1, #6
 8001b34:	3224      	adds	r2, #36	; 0x24
 8001b36:	f7ff fb17 	bl	8001168 <si446x_spi_state_machine>
 8001b3a:	e086      	b.n	8001c4a <si446x_state_machine+0x30a>
 8001b3c:	2300      	movs	r3, #0
 8001b3e:	702b      	strb	r3, [r5, #0]
 8001b40:	4a43      	ldr	r2, [pc, #268]	; (8001c50 <si446x_state_machine+0x310>)
 8001b42:	2132      	movs	r1, #50	; 0x32
 8001b44:	f882 1024 	strb.w	r1, [r2, #36]	; 0x24
 8001b48:	f892 1048 	ldrb.w	r1, [r2, #72]	; 0x48
 8001b4c:	f882 1025 	strb.w	r1, [r2, #37]	; 0x25
 8001b50:	f882 3026 	strb.w	r3, [r2, #38]	; 0x26
 8001b54:	f882 3027 	strb.w	r3, [r2, #39]	; 0x27
 8001b58:	2103      	movs	r1, #3
 8001b5a:	f882 1028 	strb.w	r1, [r2, #40]	; 0x28
 8001b5e:	2108      	movs	r1, #8
 8001b60:	f882 1029 	strb.w	r1, [r2, #41]	; 0x29
 8001b64:	f102 012c 	add.w	r1, r2, #44	; 0x2c
 8001b68:	9100      	str	r1, [sp, #0]
 8001b6a:	493a      	ldr	r1, [pc, #232]	; (8001c54 <si446x_state_machine+0x314>)
 8001b6c:	9101      	str	r1, [sp, #4]
 8001b6e:	f102 0020 	add.w	r0, r2, #32
 8001b72:	2106      	movs	r1, #6
 8001b74:	3224      	adds	r2, #36	; 0x24
 8001b76:	f7ff faf7 	bl	8001168 <si446x_spi_state_machine>
 8001b7a:	e066      	b.n	8001c4a <si446x_state_machine+0x30a>
 8001b7c:	2902      	cmp	r1, #2
 8001b7e:	d164      	bne.n	8001c4a <si446x_state_machine+0x30a>
 8001b80:	2201      	movs	r2, #1
 8001b82:	4b33      	ldr	r3, [pc, #204]	; (8001c50 <si446x_state_machine+0x310>)
 8001b84:	f883 2036 	strb.w	r2, [r3, #54]	; 0x36
 8001b88:	e05f      	b.n	8001c4a <si446x_state_machine+0x30a>
 8001b8a:	b941      	cbnz	r1, 8001b9e <si446x_state_machine+0x25e>
 8001b8c:	2306      	movs	r3, #6
 8001b8e:	7003      	strb	r3, [r0, #0]
 8001b90:	4a31      	ldr	r2, [pc, #196]	; (8001c58 <si446x_state_machine+0x318>)
 8001b92:	8993      	ldrh	r3, [r2, #12]
 8001b94:	b29b      	uxth	r3, r3
 8001b96:	f043 0380 	orr.w	r3, r3, #128	; 0x80
 8001b9a:	8193      	strh	r3, [r2, #12]
 8001b9c:	e055      	b.n	8001c4a <si446x_state_machine+0x30a>
 8001b9e:	2901      	cmp	r1, #1
 8001ba0:	d153      	bne.n	8001c4a <si446x_state_machine+0x30a>
 8001ba2:	4a2b      	ldr	r2, [pc, #172]	; (8001c50 <si446x_state_machine+0x310>)
 8001ba4:	2320      	movs	r3, #32
 8001ba6:	f882 3024 	strb.w	r3, [r2, #36]	; 0x24
 8001baa:	2300      	movs	r3, #0
 8001bac:	f882 3025 	strb.w	r3, [r2, #37]	; 0x25
 8001bb0:	f882 3026 	strb.w	r3, [r2, #38]	; 0x26
 8001bb4:	f882 3027 	strb.w	r3, [r2, #39]	; 0x27
 8001bb8:	f102 032c 	add.w	r3, r2, #44	; 0x2c
 8001bbc:	9300      	str	r3, [sp, #0]
 8001bbe:	4b25      	ldr	r3, [pc, #148]	; (8001c54 <si446x_state_machine+0x314>)
 8001bc0:	9301      	str	r3, [sp, #4]
 8001bc2:	f102 0020 	add.w	r0, r2, #32
 8001bc6:	2104      	movs	r1, #4
 8001bc8:	3224      	adds	r2, #36	; 0x24
 8001bca:	230a      	movs	r3, #10
 8001bcc:	f7ff facc 	bl	8001168 <si446x_spi_state_machine>
 8001bd0:	e03b      	b.n	8001c4a <si446x_state_machine+0x30a>
 8001bd2:	2904      	cmp	r1, #4
 8001bd4:	d11e      	bne.n	8001c14 <si446x_state_machine+0x2d4>
 8001bd6:	4a1e      	ldr	r2, [pc, #120]	; (8001c50 <si446x_state_machine+0x310>)
 8001bd8:	2332      	movs	r3, #50	; 0x32
 8001bda:	f882 3024 	strb.w	r3, [r2, #36]	; 0x24
 8001bde:	f892 3048 	ldrb.w	r3, [r2, #72]	; 0x48
 8001be2:	f882 3025 	strb.w	r3, [r2, #37]	; 0x25
 8001be6:	2300      	movs	r3, #0
 8001be8:	f882 3026 	strb.w	r3, [r2, #38]	; 0x26
 8001bec:	f882 3027 	strb.w	r3, [r2, #39]	; 0x27
 8001bf0:	2103      	movs	r1, #3
 8001bf2:	f882 1028 	strb.w	r1, [r2, #40]	; 0x28
 8001bf6:	2108      	movs	r1, #8
 8001bf8:	f882 1029 	strb.w	r1, [r2, #41]	; 0x29
 8001bfc:	f102 012c 	add.w	r1, r2, #44	; 0x2c
 8001c00:	9100      	str	r1, [sp, #0]
 8001c02:	4914      	ldr	r1, [pc, #80]	; (8001c54 <si446x_state_machine+0x314>)
 8001c04:	9101      	str	r1, [sp, #4]
 8001c06:	f102 0020 	add.w	r0, r2, #32
 8001c0a:	2106      	movs	r1, #6
 8001c0c:	3224      	adds	r2, #36	; 0x24
 8001c0e:	f7ff faab 	bl	8001168 <si446x_spi_state_machine>
 8001c12:	e018      	b.n	8001c46 <si446x_state_machine+0x306>
 8001c14:	2901      	cmp	r1, #1
 8001c16:	d116      	bne.n	8001c46 <si446x_state_machine+0x306>
 8001c18:	4a0d      	ldr	r2, [pc, #52]	; (8001c50 <si446x_state_machine+0x310>)
 8001c1a:	2320      	movs	r3, #32
 8001c1c:	f882 3024 	strb.w	r3, [r2, #36]	; 0x24
 8001c20:	2300      	movs	r3, #0
 8001c22:	f882 3025 	strb.w	r3, [r2, #37]	; 0x25
 8001c26:	f882 3026 	strb.w	r3, [r2, #38]	; 0x26
 8001c2a:	f882 3027 	strb.w	r3, [r2, #39]	; 0x27
 8001c2e:	f102 032c 	add.w	r3, r2, #44	; 0x2c
 8001c32:	9300      	str	r3, [sp, #0]
 8001c34:	4b07      	ldr	r3, [pc, #28]	; (8001c54 <si446x_state_machine+0x314>)
 8001c36:	9301      	str	r3, [sp, #4]
 8001c38:	f102 0020 	add.w	r0, r2, #32
 8001c3c:	2104      	movs	r1, #4
 8001c3e:	3224      	adds	r2, #36	; 0x24
 8001c40:	230a      	movs	r3, #10
 8001c42:	f7ff fa91 	bl	8001168 <si446x_spi_state_machine>
 8001c46:	2300      	movs	r3, #0
 8001c48:	702b      	strb	r3, [r5, #0]
 8001c4a:	b003      	add	sp, #12
 8001c4c:	bd30      	pop	{r4, r5, pc}
 8001c4e:	bf00      	nop
 8001c50:	200009e0 	andcs	r0, r0, r0, ror #19
 8001c54:	08001941 	stmdaeq	r0, {r0, r6, r8, fp, ip}
 8001c58:	40004800 	andmi	r4, r0, r0, lsl #16

08001c5c <Gps_Process_Byte>:
 8001c5c:	b410      	push	{r4}
 8001c5e:	4b82      	ldr	r3, [pc, #520]	; (8001e68 <Gps_Process_Byte+0x20c>)
 8001c60:	f893 3049 	ldrb.w	r3, [r3, #73]	; 0x49
 8001c64:	2b08      	cmp	r3, #8
 8001c66:	f200 80de 	bhi.w	8001e26 <Gps_Process_Byte+0x1ca>
 8001c6a:	e8df f003 	tbb	[pc, r3]
 8001c6e:	241d1105 	ldrcs	r1, [sp], #-261	; 0x105
 8001c72:	a040322b 	subge	r3, r0, fp, lsr #4
 8001c76:	28b500af 	ldmcs	r5!, {r0, r1, r2, r3, r5, r7}
 8001c7a:	d104      	bne.n	8001c86 <Gps_Process_Byte+0x2a>
 8001c7c:	2201      	movs	r2, #1
 8001c7e:	4b7a      	ldr	r3, [pc, #488]	; (8001e68 <Gps_Process_Byte+0x20c>)
 8001c80:	f883 2049 	strb.w	r2, [r3, #73]	; 0x49
 8001c84:	e0d3      	b.n	8001e2e <Gps_Process_Byte+0x1d2>
 8001c86:	2200      	movs	r2, #0
 8001c88:	4b77      	ldr	r3, [pc, #476]	; (8001e68 <Gps_Process_Byte+0x20c>)
 8001c8a:	f883 2049 	strb.w	r2, [r3, #73]	; 0x49
 8001c8e:	e0ce      	b.n	8001e2e <Gps_Process_Byte+0x1d2>
 8001c90:	2862      	cmp	r0, #98	; 0x62
 8001c92:	d104      	bne.n	8001c9e <Gps_Process_Byte+0x42>
 8001c94:	2202      	movs	r2, #2
 8001c96:	4b74      	ldr	r3, [pc, #464]	; (8001e68 <Gps_Process_Byte+0x20c>)
 8001c98:	f883 2049 	strb.w	r2, [r3, #73]	; 0x49
 8001c9c:	e0c7      	b.n	8001e2e <Gps_Process_Byte+0x1d2>
 8001c9e:	2200      	movs	r2, #0
 8001ca0:	4b71      	ldr	r3, [pc, #452]	; (8001e68 <Gps_Process_Byte+0x20c>)
 8001ca2:	f883 2049 	strb.w	r2, [r3, #73]	; 0x49
 8001ca6:	e0c2      	b.n	8001e2e <Gps_Process_Byte+0x1d2>
 8001ca8:	4b6f      	ldr	r3, [pc, #444]	; (8001e68 <Gps_Process_Byte+0x20c>)
 8001caa:	f883 004a 	strb.w	r0, [r3, #74]	; 0x4a
 8001cae:	2203      	movs	r2, #3
 8001cb0:	f883 2049 	strb.w	r2, [r3, #73]	; 0x49
 8001cb4:	e0bb      	b.n	8001e2e <Gps_Process_Byte+0x1d2>
 8001cb6:	4b6c      	ldr	r3, [pc, #432]	; (8001e68 <Gps_Process_Byte+0x20c>)
 8001cb8:	f883 004b 	strb.w	r0, [r3, #75]	; 0x4b
 8001cbc:	2204      	movs	r2, #4
 8001cbe:	f883 2049 	strb.w	r2, [r3, #73]	; 0x49
 8001cc2:	e0b4      	b.n	8001e2e <Gps_Process_Byte+0x1d2>
 8001cc4:	4b68      	ldr	r3, [pc, #416]	; (8001e68 <Gps_Process_Byte+0x20c>)
 8001cc6:	f8a3 004c 	strh.w	r0, [r3, #76]	; 0x4c
 8001cca:	2205      	movs	r2, #5
 8001ccc:	f883 2049 	strb.w	r2, [r3, #73]	; 0x49
 8001cd0:	e0ad      	b.n	8001e2e <Gps_Process_Byte+0x1d2>
 8001cd2:	4b65      	ldr	r3, [pc, #404]	; (8001e68 <Gps_Process_Byte+0x20c>)
 8001cd4:	f8b3 204c 	ldrh.w	r2, [r3, #76]	; 0x4c
 8001cd8:	ea42 2200 	orr.w	r2, r2, r0, lsl #8
 8001cdc:	f8a3 204c 	strh.w	r2, [r3, #76]	; 0x4c
 8001ce0:	2200      	movs	r2, #0
 8001ce2:	f883 204e 	strb.w	r2, [r3, #78]	; 0x4e
 8001ce6:	2206      	movs	r2, #6
 8001ce8:	f883 2049 	strb.w	r2, [r3, #73]	; 0x49
 8001cec:	e09f      	b.n	8001e2e <Gps_Process_Byte+0x1d2>
 8001cee:	4b5e      	ldr	r3, [pc, #376]	; (8001e68 <Gps_Process_Byte+0x20c>)
 8001cf0:	f893 304a 	ldrb.w	r3, [r3, #74]	; 0x4a
 8001cf4:	2b01      	cmp	r3, #1
 8001cf6:	d14c      	bne.n	8001d92 <Gps_Process_Byte+0x136>
 8001cf8:	4b5b      	ldr	r3, [pc, #364]	; (8001e68 <Gps_Process_Byte+0x20c>)
 8001cfa:	f893 304b 	ldrb.w	r3, [r3, #75]	; 0x4b
 8001cfe:	2b02      	cmp	r3, #2
 8001d00:	d109      	bne.n	8001d16 <Gps_Process_Byte+0xba>
 8001d02:	4a59      	ldr	r2, [pc, #356]	; (8001e68 <Gps_Process_Byte+0x20c>)
 8001d04:	f8b2 404c 	ldrh.w	r4, [r2, #76]	; 0x4c
 8001d08:	1e62      	subs	r2, r4, #1
 8001d0a:	b292      	uxth	r2, r2
 8001d0c:	2a17      	cmp	r2, #23
 8001d0e:	d802      	bhi.n	8001d16 <Gps_Process_Byte+0xba>
 8001d10:	f1c4 042c 	rsb	r4, r4, #44	; 0x2c
 8001d14:	5508      	strb	r0, [r1, r4]
 8001d16:	2b12      	cmp	r3, #18
 8001d18:	d111      	bne.n	8001d3e <Gps_Process_Byte+0xe2>
 8001d1a:	4a53      	ldr	r2, [pc, #332]	; (8001e68 <Gps_Process_Byte+0x20c>)
 8001d1c:	f8b2 204c 	ldrh.w	r2, [r2, #76]	; 0x4c
 8001d20:	f1a2 0415 	sub.w	r4, r2, #21
 8001d24:	b2a4      	uxth	r4, r4
 8001d26:	2c0f      	cmp	r4, #15
 8001d28:	d802      	bhi.n	8001d30 <Gps_Process_Byte+0xd4>
 8001d2a:	f1c2 0428 	rsb	r4, r2, #40	; 0x28
 8001d2e:	5508      	strb	r0, [r1, r4]
 8001d30:	1f94      	subs	r4, r2, #6
 8001d32:	b2a4      	uxth	r4, r4
 8001d34:	2c02      	cmp	r4, #2
 8001d36:	d802      	bhi.n	8001d3e <Gps_Process_Byte+0xe2>
 8001d38:	1a8a      	subs	r2, r1, r2
 8001d3a:	f882 0034 	strb.w	r0, [r2, #52]	; 0x34
 8001d3e:	2b06      	cmp	r3, #6
 8001d40:	d127      	bne.n	8001d92 <Gps_Process_Byte+0x136>
 8001d42:	4b49      	ldr	r3, [pc, #292]	; (8001e68 <Gps_Process_Byte+0x20c>)
 8001d44:	f8b3 304c 	ldrh.w	r3, [r3, #76]	; 0x4c
 8001d48:	3b05      	subs	r3, #5
 8001d4a:	2b27      	cmp	r3, #39	; 0x27
 8001d4c:	d821      	bhi.n	8001d92 <Gps_Process_Byte+0x136>
 8001d4e:	e8df f003 	tbb	[pc, r3]
 8001d52:	20202017 	eorcs	r2, r0, r7, lsl r0
 8001d56:	20202020 	eorcs	r2, r0, r0, lsr #32
 8001d5a:	20202020 	eorcs	r2, r0, r0, lsr #32
 8001d5e:	20202020 	eorcs	r2, r0, r0, lsr #32
 8001d62:	20202020 	eorcs	r2, r0, r0, lsr #32
 8001d66:	20202020 	eorcs	r2, r0, r0, lsr #32
 8001d6a:	20202020 	eorcs	r2, r0, r0, lsr #32
 8001d6e:	20202020 	eorcs	r2, r0, r0, lsr #32
 8001d72:	20202020 	eorcs	r2, r0, r0, lsr #32
 8001d76:	1f1a1420 	svcne	0x001a1420
 8001d7a:	f881 0031 	strb.w	r0, [r1, #49]	; 0x31
 8001d7e:	e008      	b.n	8001d92 <Gps_Process_Byte+0x136>
 8001d80:	f881 0032 	strb.w	r0, [r1, #50]	; 0x32
 8001d84:	e005      	b.n	8001d92 <Gps_Process_Byte+0x136>
 8001d86:	680b      	ldr	r3, [r1, #0]
 8001d88:	ea43 2300 	orr.w	r3, r3, r0, lsl #8
 8001d8c:	600b      	str	r3, [r1, #0]
 8001d8e:	e000      	b.n	8001d92 <Gps_Process_Byte+0x136>
 8001d90:	6008      	str	r0, [r1, #0]
 8001d92:	4a35      	ldr	r2, [pc, #212]	; (8001e68 <Gps_Process_Byte+0x20c>)
 8001d94:	f8b2 304c 	ldrh.w	r3, [r2, #76]	; 0x4c
 8001d98:	3b01      	subs	r3, #1
 8001d9a:	b29b      	uxth	r3, r3
 8001d9c:	f8a2 304c 	strh.w	r3, [r2, #76]	; 0x4c
 8001da0:	2b00      	cmp	r3, #0
 8001da2:	d144      	bne.n	8001e2e <Gps_Process_Byte+0x1d2>
 8001da4:	2207      	movs	r2, #7
 8001da6:	4b30      	ldr	r3, [pc, #192]	; (8001e68 <Gps_Process_Byte+0x20c>)
 8001da8:	f883 2049 	strb.w	r2, [r3, #73]	; 0x49
 8001dac:	e03f      	b.n	8001e2e <Gps_Process_Byte+0x1d2>
 8001dae:	4b2e      	ldr	r3, [pc, #184]	; (8001e68 <Gps_Process_Byte+0x20c>)
 8001db0:	f893 304f 	ldrb.w	r3, [r3, #79]	; 0x4f
 8001db4:	4283      	cmp	r3, r0
 8001db6:	d104      	bne.n	8001dc2 <Gps_Process_Byte+0x166>
 8001db8:	2208      	movs	r2, #8
 8001dba:	4b2b      	ldr	r3, [pc, #172]	; (8001e68 <Gps_Process_Byte+0x20c>)
 8001dbc:	f883 2049 	strb.w	r2, [r3, #73]	; 0x49
 8001dc0:	e035      	b.n	8001e2e <Gps_Process_Byte+0x1d2>
 8001dc2:	2200      	movs	r2, #0
 8001dc4:	4b28      	ldr	r3, [pc, #160]	; (8001e68 <Gps_Process_Byte+0x20c>)
 8001dc6:	f883 2049 	strb.w	r2, [r3, #73]	; 0x49
 8001dca:	e030      	b.n	8001e2e <Gps_Process_Byte+0x1d2>
 8001dcc:	4b26      	ldr	r3, [pc, #152]	; (8001e68 <Gps_Process_Byte+0x20c>)
 8001dce:	f893 3050 	ldrb.w	r3, [r3, #80]	; 0x50
 8001dd2:	4283      	cmp	r3, r0
 8001dd4:	d127      	bne.n	8001e26 <Gps_Process_Byte+0x1ca>
 8001dd6:	4b24      	ldr	r3, [pc, #144]	; (8001e68 <Gps_Process_Byte+0x20c>)
 8001dd8:	f893 304a 	ldrb.w	r3, [r3, #74]	; 0x4a
 8001ddc:	2b01      	cmp	r3, #1
 8001dde:	d122      	bne.n	8001e26 <Gps_Process_Byte+0x1ca>
 8001de0:	4b21      	ldr	r3, [pc, #132]	; (8001e68 <Gps_Process_Byte+0x20c>)
 8001de2:	f893 304b 	ldrb.w	r3, [r3, #75]	; 0x4b
 8001de6:	2b30      	cmp	r3, #48	; 0x30
 8001de8:	d105      	bne.n	8001df6 <Gps_Process_Byte+0x19a>
 8001dea:	f891 2030 	ldrb.w	r2, [r1, #48]	; 0x30
 8001dee:	f042 0208 	orr.w	r2, r2, #8
 8001df2:	f881 2030 	strb.w	r2, [r1, #48]	; 0x30
 8001df6:	2b06      	cmp	r3, #6
 8001df8:	d105      	bne.n	8001e06 <Gps_Process_Byte+0x1aa>
 8001dfa:	f891 2030 	ldrb.w	r2, [r1, #48]	; 0x30
 8001dfe:	f042 0204 	orr.w	r2, r2, #4
 8001e02:	f881 2030 	strb.w	r2, [r1, #48]	; 0x30
 8001e06:	2b02      	cmp	r3, #2
 8001e08:	d105      	bne.n	8001e16 <Gps_Process_Byte+0x1ba>
 8001e0a:	f891 2030 	ldrb.w	r2, [r1, #48]	; 0x30
 8001e0e:	f042 0202 	orr.w	r2, r2, #2
 8001e12:	f881 2030 	strb.w	r2, [r1, #48]	; 0x30
 8001e16:	2b12      	cmp	r3, #18
 8001e18:	d105      	bne.n	8001e26 <Gps_Process_Byte+0x1ca>
 8001e1a:	f891 3030 	ldrb.w	r3, [r1, #48]	; 0x30
 8001e1e:	f043 0301 	orr.w	r3, r3, #1
 8001e22:	f881 3030 	strb.w	r3, [r1, #48]	; 0x30
 8001e26:	2200      	movs	r2, #0
 8001e28:	4b0f      	ldr	r3, [pc, #60]	; (8001e68 <Gps_Process_Byte+0x20c>)
 8001e2a:	f883 2049 	strb.w	r2, [r3, #73]	; 0x49
 8001e2e:	4b0e      	ldr	r3, [pc, #56]	; (8001e68 <Gps_Process_Byte+0x20c>)
 8001e30:	f893 2049 	ldrb.w	r2, [r3, #73]	; 0x49
 8001e34:	1ed3      	subs	r3, r2, #3
 8001e36:	b2db      	uxtb	r3, r3
 8001e38:	2b04      	cmp	r3, #4
 8001e3a:	d80c      	bhi.n	8001e56 <Gps_Process_Byte+0x1fa>
 8001e3c:	4a0a      	ldr	r2, [pc, #40]	; (8001e68 <Gps_Process_Byte+0x20c>)
 8001e3e:	f892 304f 	ldrb.w	r3, [r2, #79]	; 0x4f
 8001e42:	4418      	add	r0, r3
 8001e44:	b2c0      	uxtb	r0, r0
 8001e46:	f882 004f 	strb.w	r0, [r2, #79]	; 0x4f
 8001e4a:	f892 3050 	ldrb.w	r3, [r2, #80]	; 0x50
 8001e4e:	4418      	add	r0, r3
 8001e50:	f882 0050 	strb.w	r0, [r2, #80]	; 0x50
 8001e54:	e005      	b.n	8001e62 <Gps_Process_Byte+0x206>
 8001e56:	b922      	cbnz	r2, 8001e62 <Gps_Process_Byte+0x206>
 8001e58:	4b03      	ldr	r3, [pc, #12]	; (8001e68 <Gps_Process_Byte+0x20c>)
 8001e5a:	f883 204f 	strb.w	r2, [r3, #79]	; 0x4f
 8001e5e:	f883 2050 	strb.w	r2, [r3, #80]	; 0x50
 8001e62:	f85d 4b04 	ldr.w	r4, [sp], #4
 8001e66:	4770      	bx	lr
 8001e68:	200009e0 	andcs	r0, r0, r0, ror #19

08001e6c <EXTI15_10_IRQHandler>:
 8001e6c:	b500      	push	{lr}
 8001e6e:	b083      	sub	sp, #12
 8001e70:	f44f 6000 	mov.w	r0, #2048	; 0x800
 8001e74:	f007 ffcc 	bl	8009e10 <EXTI_GetITStatus>
 8001e78:	b1b8      	cbz	r0, 8001eaa <EXTI15_10_IRQHandler+0x3e>
 8001e7a:	f44f 6000 	mov.w	r0, #2048	; 0x800
 8001e7e:	f007 ffd5 	bl	8009e2c <EXTI_ClearITPendingBit>
 8001e82:	4b0b      	ldr	r3, [pc, #44]	; (8001eb0 <EXTI15_10_IRQHandler+0x44>)
 8001e84:	f893 3020 	ldrb.w	r3, [r3, #32]
 8001e88:	b2db      	uxtb	r3, r3
 8001e8a:	2b02      	cmp	r3, #2
 8001e8c:	d10d      	bne.n	8001eaa <EXTI15_10_IRQHandler+0x3e>
 8001e8e:	4808      	ldr	r0, [pc, #32]	; (8001eb0 <EXTI15_10_IRQHandler+0x44>)
 8001e90:	f890 3020 	ldrb.w	r3, [r0, #32]
 8001e94:	3301      	adds	r3, #1
 8001e96:	b2db      	uxtb	r3, r3
 8001e98:	f800 3f20 	strb.w	r3, [r0, #32]!
 8001e9c:	2300      	movs	r3, #0
 8001e9e:	9300      	str	r3, [sp, #0]
 8001ea0:	9301      	str	r3, [sp, #4]
 8001ea2:	4619      	mov	r1, r3
 8001ea4:	461a      	mov	r2, r3
 8001ea6:	f7ff f95f 	bl	8001168 <si446x_spi_state_machine>
 8001eaa:	b003      	add	sp, #12
 8001eac:	f85d fb04 	ldr.w	pc, [sp], #4
 8001eb0:	200009e0 	andcs	r0, r0, r0, ror #19

08001eb4 <DMA1_Channel2_IRQHandler>:
 8001eb4:	b500      	push	{lr}
 8001eb6:	b083      	sub	sp, #12
 8001eb8:	2020      	movs	r0, #32
 8001eba:	f007 ff37 	bl	8009d2c <DMA_GetITStatus>
 8001ebe:	b198      	cbz	r0, 8001ee8 <DMA1_Channel2_IRQHandler+0x34>
 8001ec0:	480c      	ldr	r0, [pc, #48]	; (8001ef4 <DMA1_Channel2_IRQHandler+0x40>)
 8001ec2:	2110      	movs	r1, #16
 8001ec4:	2201      	movs	r2, #1
 8001ec6:	f008 f809 	bl	8009edc <GPIO_WriteBit>
 8001eca:	2060      	movs	r0, #96	; 0x60
 8001ecc:	f007 ff24 	bl	8009d18 <DMA_ClearFlag>
 8001ed0:	f44f 60c0 	mov.w	r0, #1536	; 0x600
 8001ed4:	f007 ff20 	bl	8009d18 <DMA_ClearFlag>
 8001ed8:	2300      	movs	r3, #0
 8001eda:	9300      	str	r3, [sp, #0]
 8001edc:	9301      	str	r3, [sp, #4]
 8001ede:	4806      	ldr	r0, [pc, #24]	; (8001ef8 <DMA1_Channel2_IRQHandler+0x44>)
 8001ee0:	4619      	mov	r1, r3
 8001ee2:	461a      	mov	r2, r3
 8001ee4:	f7ff f940 	bl	8001168 <si446x_spi_state_machine>
 8001ee8:	2010      	movs	r0, #16
 8001eea:	f007 ff2d 	bl	8009d48 <DMA_ClearITPendingBit>
 8001eee:	b003      	add	sp, #12
 8001ef0:	f85d fb04 	ldr.w	pc, [sp], #4
 8001ef4:	40010800 	andmi	r0, r1, r0, lsl #16
 8001ef8:	20000a00 	andcs	r0, r0, r0, lsl #20

08001efc <DMA1_Channel3_IRQHandler>:
 8001efc:	b500      	push	{lr}
 8001efe:	b083      	sub	sp, #12
 8001f00:	f44f 7000 	mov.w	r0, #512	; 0x200
 8001f04:	f007 ff12 	bl	8009d2c <DMA_GetITStatus>
 8001f08:	b180      	cbz	r0, 8001f2c <DMA1_Channel3_IRQHandler+0x30>
 8001f0a:	480c      	ldr	r0, [pc, #48]	; (8001f3c <DMA1_Channel3_IRQHandler+0x40>)
 8001f0c:	2110      	movs	r1, #16
 8001f0e:	2201      	movs	r2, #1
 8001f10:	f007 ffe4 	bl	8009edc <GPIO_WriteBit>
 8001f14:	f44f 60c0 	mov.w	r0, #1536	; 0x600
 8001f18:	f007 fefe 	bl	8009d18 <DMA_ClearFlag>
 8001f1c:	2300      	movs	r3, #0
 8001f1e:	9300      	str	r3, [sp, #0]
 8001f20:	9301      	str	r3, [sp, #4]
 8001f22:	4807      	ldr	r0, [pc, #28]	; (8001f40 <DMA1_Channel3_IRQHandler+0x44>)
 8001f24:	4619      	mov	r1, r3
 8001f26:	461a      	mov	r2, r3
 8001f28:	f7ff f91e 	bl	8001168 <si446x_spi_state_machine>
 8001f2c:	f44f 7080 	mov.w	r0, #256	; 0x100
 8001f30:	f007 ff0a 	bl	8009d48 <DMA_ClearITPendingBit>
 8001f34:	b003      	add	sp, #12
 8001f36:	f85d fb04 	ldr.w	pc, [sp], #4
 8001f3a:	bf00      	nop
 8001f3c:	40010800 	andmi	r0, r1, r0, lsl #16
 8001f40:	20000a00 	andcs	r0, r0, r0, lsl #20

08001f44 <USART3_IRQHandler>:
 8001f44:	b538      	push	{r3, r4, r5, lr}
 8001f46:	481b      	ldr	r0, [pc, #108]	; (8001fb4 <USART3_IRQHandler+0x70>)
 8001f48:	f240 5125 	movw	r1, #1317	; 0x525
 8001f4c:	f008 fc06 	bl	800a75c <USART_GetITStatus>
 8001f50:	b118      	cbz	r0, 8001f5a <USART3_IRQHandler+0x16>
 8001f52:	4818      	ldr	r0, [pc, #96]	; (8001fb4 <USART3_IRQHandler+0x70>)
 8001f54:	f008 fbf8 	bl	800a748 <USART_ReceiveData>
 8001f58:	bd38      	pop	{r3, r4, r5, pc}
 8001f5a:	4816      	ldr	r0, [pc, #88]	; (8001fb4 <USART3_IRQHandler+0x70>)
 8001f5c:	f240 7127 	movw	r1, #1831	; 0x727
 8001f60:	f008 fbfc 	bl	800a75c <USART_GetITStatus>
 8001f64:	b308      	cbz	r0, 8001faa <USART3_IRQHandler+0x66>
 8001f66:	4d13      	ldr	r5, [pc, #76]	; (8001fb4 <USART3_IRQHandler+0x70>)
 8001f68:	4628      	mov	r0, r5
 8001f6a:	f240 7127 	movw	r1, #1831	; 0x727
 8001f6e:	f008 fc14 	bl	800a79a <USART_ClearITPendingBit>
 8001f72:	4c11      	ldr	r4, [pc, #68]	; (8001fb8 <USART3_IRQHandler+0x74>)
 8001f74:	f104 0054 	add.w	r0, r4, #84	; 0x54
 8001f78:	f000 ff48 	bl	8002e0c <Pop_From_Buffer>
 8001f7c:	b281      	uxth	r1, r0
 8001f7e:	4628      	mov	r0, r5
 8001f80:	f008 fbde 	bl	800a740 <USART_SendData>
 8001f84:	f8b4 2054 	ldrh.w	r2, [r4, #84]	; 0x54
 8001f88:	b292      	uxth	r2, r2
 8001f8a:	f8b4 3056 	ldrh.w	r3, [r4, #86]	; 0x56
 8001f8e:	b29b      	uxth	r3, r3
 8001f90:	429a      	cmp	r2, r3
 8001f92:	d10d      	bne.n	8001fb0 <USART3_IRQHandler+0x6c>
 8001f94:	89ab      	ldrh	r3, [r5, #12]
 8001f96:	f023 0380 	bic.w	r3, r3, #128	; 0x80
 8001f9a:	041b      	lsls	r3, r3, #16
 8001f9c:	0c1b      	lsrs	r3, r3, #16
 8001f9e:	81ab      	strh	r3, [r5, #12]
 8001fa0:	4806      	ldr	r0, [pc, #24]	; (8001fbc <USART3_IRQHandler+0x78>)
 8001fa2:	2104      	movs	r1, #4
 8001fa4:	f7ff fccc 	bl	8001940 <si446x_state_machine>
 8001fa8:	bd38      	pop	{r3, r4, r5, pc}
 8001faa:	4802      	ldr	r0, [pc, #8]	; (8001fb4 <USART3_IRQHandler+0x70>)
 8001fac:	f008 fbcc 	bl	800a748 <USART_ReceiveData>
 8001fb0:	bd38      	pop	{r3, r4, r5, pc}
 8001fb2:	bf00      	nop
 8001fb4:	40004800 	andmi	r4, r0, r0, lsl #16
 8001fb8:	200009e0 	andcs	r0, r0, r0, ror #19
 8001fbc:	2000124c 	andcs	r1, r0, ip, asr #4

08001fc0 <EXTI0_IRQHandler>:
 8001fc0:	b508      	push	{r3, lr}
 8001fc2:	2001      	movs	r0, #1
 8001fc4:	f007 ff24 	bl	8009e10 <EXTI_GetITStatus>
 8001fc8:	b180      	cbz	r0, 8001fec <EXTI0_IRQHandler+0x2c>
 8001fca:	2001      	movs	r0, #1
 8001fcc:	f007 ff2e 	bl	8009e2c <EXTI_ClearITPendingBit>
 8001fd0:	4b07      	ldr	r3, [pc, #28]	; (8001ff0 <EXTI0_IRQHandler+0x30>)
 8001fd2:	691b      	ldr	r3, [r3, #16]
 8001fd4:	f013 0f01 	tst.w	r3, #1
 8001fd8:	d104      	bne.n	8001fe4 <EXTI0_IRQHandler+0x24>
 8001fda:	4806      	ldr	r0, [pc, #24]	; (8001ff4 <EXTI0_IRQHandler+0x34>)
 8001fdc:	2101      	movs	r1, #1
 8001fde:	f7ff fcaf 	bl	8001940 <si446x_state_machine>
 8001fe2:	bd08      	pop	{r3, pc}
 8001fe4:	4803      	ldr	r0, [pc, #12]	; (8001ff4 <EXTI0_IRQHandler+0x34>)
 8001fe6:	2102      	movs	r1, #2
 8001fe8:	f7ff fcaa 	bl	8001940 <si446x_state_machine>
 8001fec:	bd08      	pop	{r3, pc}
 8001fee:	bf00      	nop
 8001ff0:	40010400 	andmi	r0, r1, r0, lsl #8
 8001ff4:	2000124c 	andcs	r1, r0, ip, asr #4

08001ff8 <si446x_setup>:
 8001ff8:	e92d 41f0 	stmdb	sp!, {r4, r5, r6, r7, r8, lr}
 8001ffc:	b09e      	sub	sp, #120	; 0x78
 8001ffe:	4ccc      	ldr	r4, [pc, #816]	; (8002330 <si446x_setup+0x338>)
 8002000:	f104 0054 	add.w	r0, r4, #84	; 0x54
 8002004:	f44f 7180 	mov.w	r1, #256	; 0x100
 8002008:	f000 fef2 	bl	8002df0 <init_buffer>
 800200c:	f104 003c 	add.w	r0, r4, #60	; 0x3c
 8002010:	f44f 7180 	mov.w	r1, #256	; 0x100
 8002014:	f000 feec 	bl	8002df0 <init_buffer>
 8002018:	f241 000c 	movw	r0, #4108	; 0x100c
 800201c:	2101      	movs	r1, #1
 800201e:	f008 f92d 	bl	800a27c <RCC_APB2PeriphClockCmd>
 8002022:	f44f 2080 	mov.w	r0, #262144	; 0x40000
 8002026:	2101      	movs	r1, #1
 8002028:	f008 f934 	bl	800a294 <RCC_APB1PeriphClockCmd>
 800202c:	f44f 6380 	mov.w	r3, #1024	; 0x400
 8002030:	f8ad 3054 	strh.w	r3, [sp, #84]	; 0x54
 8002034:	2403      	movs	r4, #3
 8002036:	f88d 4056 	strb.w	r4, [sp, #86]	; 0x56
 800203a:	2704      	movs	r7, #4
 800203c:	f88d 7057 	strb.w	r7, [sp, #87]	; 0x57
 8002040:	4dbc      	ldr	r5, [pc, #752]	; (8002334 <si446x_setup+0x33c>)
 8002042:	4628      	mov	r0, r5
 8002044:	a915      	add	r1, sp, #84	; 0x54
 8002046:	f007 fef7 	bl	8009e38 <GPIO_Init>
 800204a:	f44f 6300 	mov.w	r3, #2048	; 0x800
 800204e:	f8ad 3054 	strh.w	r3, [sp, #84]	; 0x54
 8002052:	f88d 4056 	strb.w	r4, [sp, #86]	; 0x56
 8002056:	f88d 7057 	strb.w	r7, [sp, #87]	; 0x57
 800205a:	4628      	mov	r0, r5
 800205c:	a915      	add	r1, sp, #84	; 0x54
 800205e:	f007 feeb 	bl	8009e38 <GPIO_Init>
 8002062:	2601      	movs	r6, #1
 8002064:	f8ad 6054 	strh.w	r6, [sp, #84]	; 0x54
 8002068:	f88d 4056 	strb.w	r4, [sp, #86]	; 0x56
 800206c:	f88d 7057 	strb.w	r7, [sp, #87]	; 0x57
 8002070:	4628      	mov	r0, r5
 8002072:	a915      	add	r1, sp, #84	; 0x54
 8002074:	f007 fee0 	bl	8009e38 <GPIO_Init>
 8002078:	4628      	mov	r0, r5
 800207a:	f44f 7100 	mov.w	r1, #512	; 0x200
 800207e:	2200      	movs	r2, #0
 8002080:	f007 ff2c 	bl	8009edc <GPIO_WriteBit>
 8002084:	f44f 7700 	mov.w	r7, #512	; 0x200
 8002088:	f8ad 7054 	strh.w	r7, [sp, #84]	; 0x54
 800208c:	f88d 4056 	strb.w	r4, [sp, #86]	; 0x56
 8002090:	f04f 0810 	mov.w	r8, #16
 8002094:	f88d 8057 	strb.w	r8, [sp, #87]	; 0x57
 8002098:	4628      	mov	r0, r5
 800209a:	a915      	add	r1, sp, #84	; 0x54
 800209c:	f007 fecc 	bl	8009e38 <GPIO_Init>
 80020a0:	4628      	mov	r0, r5
 80020a2:	4639      	mov	r1, r7
 80020a4:	4632      	mov	r2, r6
 80020a6:	f007 ff19 	bl	8009edc <GPIO_WriteBit>
 80020aa:	f8ad 8054 	strh.w	r8, [sp, #84]	; 0x54
 80020ae:	f88d 4056 	strb.w	r4, [sp, #86]	; 0x56
 80020b2:	f88d 8057 	strb.w	r8, [sp, #87]	; 0x57
 80020b6:	f5a5 6580 	sub.w	r5, r5, #1024	; 0x400
 80020ba:	4628      	mov	r0, r5
 80020bc:	a915      	add	r1, sp, #84	; 0x54
 80020be:	f007 febb 	bl	8009e38 <GPIO_Init>
 80020c2:	23a0      	movs	r3, #160	; 0xa0
 80020c4:	f8ad 3054 	strh.w	r3, [sp, #84]	; 0x54
 80020c8:	f88d 4056 	strb.w	r4, [sp, #86]	; 0x56
 80020cc:	2318      	movs	r3, #24
 80020ce:	f88d 3057 	strb.w	r3, [sp, #87]	; 0x57
 80020d2:	4628      	mov	r0, r5
 80020d4:	a915      	add	r1, sp, #84	; 0x54
 80020d6:	f007 feaf 	bl	8009e38 <GPIO_Init>
 80020da:	2340      	movs	r3, #64	; 0x40
 80020dc:	f8ad 3054 	strh.w	r3, [sp, #84]	; 0x54
 80020e0:	f88d 4056 	strb.w	r4, [sp, #86]	; 0x56
 80020e4:	2348      	movs	r3, #72	; 0x48
 80020e6:	f88d 3057 	strb.w	r3, [sp, #87]	; 0x57
 80020ea:	4628      	mov	r0, r5
 80020ec:	a915      	add	r1, sp, #84	; 0x54
 80020ee:	f007 fea3 	bl	8009e38 <GPIO_Init>
 80020f2:	2332      	movs	r3, #50	; 0x32
 80020f4:	9311      	str	r3, [sp, #68]	; 0x44
 80020f6:	2400      	movs	r4, #0
 80020f8:	f8ad 4048 	strh.w	r4, [sp, #72]	; 0x48
 80020fc:	f8ad 404a 	strh.w	r4, [sp, #74]	; 0x4a
 8002100:	f8ad 404c 	strh.w	r4, [sp, #76]	; 0x4c
 8002104:	f8ad 4050 	strh.w	r4, [sp, #80]	; 0x50
 8002108:	2308      	movs	r3, #8
 800210a:	f8ad 304e 	strh.w	r3, [sp, #78]	; 0x4e
 800210e:	488a      	ldr	r0, [pc, #552]	; (8002338 <si446x_setup+0x340>)
 8002110:	a911      	add	r1, sp, #68	; 0x44
 8002112:	f008 faa3 	bl	800a65c <USART_Init>
 8002116:	f8ad 4030 	strh.w	r4, [sp, #48]	; 0x30
 800211a:	f44f 7382 	mov.w	r3, #260	; 0x104
 800211e:	f8ad 3032 	strh.w	r3, [sp, #50]	; 0x32
 8002122:	f8ad 4034 	strh.w	r4, [sp, #52]	; 0x34
 8002126:	f8ad 4036 	strh.w	r4, [sp, #54]	; 0x36
 800212a:	f8ad 4038 	strh.w	r4, [sp, #56]	; 0x38
 800212e:	f8ad 703a 	strh.w	r7, [sp, #58]	; 0x3a
 8002132:	f8ad 403c 	strh.w	r4, [sp, #60]	; 0x3c
 8002136:	f8ad 403e 	strh.w	r4, [sp, #62]	; 0x3e
 800213a:	2307      	movs	r3, #7
 800213c:	f8ad 3040 	strh.w	r3, [sp, #64]	; 0x40
 8002140:	f505 5520 	add.w	r5, r5, #10240	; 0x2800
 8002144:	4628      	mov	r0, r5
 8002146:	a90c      	add	r1, sp, #48	; 0x30
 8002148:	f008 f968 	bl	800a41c <SPI_Init>
 800214c:	4628      	mov	r0, r5
 800214e:	4621      	mov	r1, r4
 8002150:	f008 f99d 	bl	800a48e <SPI_CalculateCRC>
 8002154:	4628      	mov	r0, r5
 8002156:	4631      	mov	r1, r6
 8002158:	f008 f97f 	bl	800a45a <SPI_Cmd>
 800215c:	e002      	b.n	8002164 <si446x_setup+0x16c>
 800215e:	4877      	ldr	r0, [pc, #476]	; (800233c <si446x_setup+0x344>)
 8002160:	f008 f992 	bl	800a488 <SPI_I2S_ReceiveData>
 8002164:	4875      	ldr	r0, [pc, #468]	; (800233c <si446x_setup+0x344>)
 8002166:	2101      	movs	r1, #1
 8002168:	f008 f99d 	bl	800a4a6 <SPI_I2S_GetFlagStatus>
 800216c:	2801      	cmp	r0, #1
 800216e:	d0f6      	beq.n	800215e <si446x_setup+0x166>
 8002170:	2001      	movs	r0, #1
 8002172:	4601      	mov	r1, r0
 8002174:	f008 f876 	bl	800a264 <RCC_AHBPeriphClockCmd>
 8002178:	486f      	ldr	r0, [pc, #444]	; (8002338 <si446x_setup+0x340>)
 800217a:	2101      	movs	r1, #1
 800217c:	f008 fab2 	bl	800a6e4 <USART_Cmd>
 8002180:	f007 fdec 	bl	8009d5c <EXTI_DeInit>
 8002184:	2001      	movs	r0, #1
 8002186:	2100      	movs	r1, #0
 8002188:	f007 fead 	bl	8009ee6 <GPIO_EXTILineConfig>
 800218c:	2001      	movs	r0, #1
 800218e:	210b      	movs	r1, #11
 8002190:	f007 fea9 	bl	8009ee6 <GPIO_EXTILineConfig>
 8002194:	2300      	movs	r3, #0
 8002196:	f88d 302c 	strb.w	r3, [sp, #44]	; 0x2c
 800219a:	2208      	movs	r2, #8
 800219c:	f88d 202d 	strb.w	r2, [sp, #45]	; 0x2d
 80021a0:	f88d 302e 	strb.w	r3, [sp, #46]	; 0x2e
 80021a4:	2401      	movs	r4, #1
 80021a6:	940a      	str	r4, [sp, #40]	; 0x28
 80021a8:	2327      	movs	r3, #39	; 0x27
 80021aa:	f88d 3024 	strb.w	r3, [sp, #36]	; 0x24
 80021ae:	2303      	movs	r3, #3
 80021b0:	f88d 3026 	strb.w	r3, [sp, #38]	; 0x26
 80021b4:	a809      	add	r0, sp, #36	; 0x24
 80021b6:	f007 fb3f 	bl	8009838 <NVIC_Init>
 80021ba:	230c      	movs	r3, #12
 80021bc:	f88d 3024 	strb.w	r3, [sp, #36]	; 0x24
 80021c0:	2304      	movs	r3, #4
 80021c2:	f88d 3026 	strb.w	r3, [sp, #38]	; 0x26
 80021c6:	a809      	add	r0, sp, #36	; 0x24
 80021c8:	f007 fb36 	bl	8009838 <NVIC_Init>
 80021cc:	230d      	movs	r3, #13
 80021ce:	f88d 3024 	strb.w	r3, [sp, #36]	; 0x24
 80021d2:	2305      	movs	r3, #5
 80021d4:	f88d 3026 	strb.w	r3, [sp, #38]	; 0x26
 80021d8:	a809      	add	r0, sp, #36	; 0x24
 80021da:	f007 fb2d 	bl	8009838 <NVIC_Init>
 80021de:	4855      	ldr	r0, [pc, #340]	; (8002334 <si446x_setup+0x33c>)
 80021e0:	f44f 7100 	mov.w	r1, #512	; 0x200
 80021e4:	4622      	mov	r2, r4
 80021e6:	f007 fe79 	bl	8009edc <GPIO_WriteBit>
 80021ea:	4b55      	ldr	r3, [pc, #340]	; (8002340 <si446x_setup+0x348>)
 80021ec:	6819      	ldr	r1, [r3, #0]
 80021ee:	e000      	b.n	80021f2 <si446x_setup+0x1fa>
 80021f0:	bf30      	wfi
 80021f2:	f101 030f 	add.w	r3, r1, #15
 80021f6:	4a52      	ldr	r2, [pc, #328]	; (8002340 <si446x_setup+0x348>)
 80021f8:	6812      	ldr	r2, [r2, #0]
 80021fa:	4293      	cmp	r3, r2
 80021fc:	d8f8      	bhi.n	80021f0 <si446x_setup+0x1f8>
 80021fe:	484d      	ldr	r0, [pc, #308]	; (8002334 <si446x_setup+0x33c>)
 8002200:	f44f 7100 	mov.w	r1, #512	; 0x200
 8002204:	2200      	movs	r2, #0
 8002206:	f007 fe69 	bl	8009edc <GPIO_WriteBit>
 800220a:	4b4d      	ldr	r3, [pc, #308]	; (8002340 <si446x_setup+0x348>)
 800220c:	6819      	ldr	r1, [r3, #0]
 800220e:	e000      	b.n	8002212 <si446x_setup+0x21a>
 8002210:	bf30      	wfi
 8002212:	f101 0364 	add.w	r3, r1, #100	; 0x64
 8002216:	4a4a      	ldr	r2, [pc, #296]	; (8002340 <si446x_setup+0x348>)
 8002218:	6812      	ldr	r2, [r2, #0]
 800221a:	4293      	cmp	r3, r2
 800221c:	d8f8      	bhi.n	8002210 <si446x_setup+0x218>
 800221e:	4845      	ldr	r0, [pc, #276]	; (8002334 <si446x_setup+0x33c>)
 8002220:	f44f 6100 	mov.w	r1, #2048	; 0x800
 8002224:	f007 fe50 	bl	8009ec8 <GPIO_ReadInputDataBit>
 8002228:	2800      	cmp	r0, #0
 800222a:	d0f8      	beq.n	800221e <si446x_setup+0x226>
 800222c:	f44f 6300 	mov.w	r3, #2048	; 0x800
 8002230:	930a      	str	r3, [sp, #40]	; 0x28
 8002232:	2500      	movs	r5, #0
 8002234:	f88d 502c 	strb.w	r5, [sp, #44]	; 0x2c
 8002238:	2308      	movs	r3, #8
 800223a:	f88d 302d 	strb.w	r3, [sp, #45]	; 0x2d
 800223e:	2401      	movs	r4, #1
 8002240:	f88d 402e 	strb.w	r4, [sp, #46]	; 0x2e
 8002244:	2328      	movs	r3, #40	; 0x28
 8002246:	f88d 3024 	strb.w	r3, [sp, #36]	; 0x24
 800224a:	f88d 4025 	strb.w	r4, [sp, #37]	; 0x25
 800224e:	2306      	movs	r3, #6
 8002250:	f88d 3026 	strb.w	r3, [sp, #38]	; 0x26
 8002254:	f88d 4027 	strb.w	r4, [sp, #39]	; 0x27
 8002258:	a809      	add	r0, sp, #36	; 0x24
 800225a:	f007 faed 	bl	8009838 <NVIC_Init>
 800225e:	a80a      	add	r0, sp, #40	; 0x28
 8002260:	f007 fd8a 	bl	8009d78 <EXTI_Init>
 8002264:	2302      	movs	r3, #2
 8002266:	f88d 3058 	strb.w	r3, [sp, #88]	; 0x58
 800226a:	f88d 4059 	strb.w	r4, [sp, #89]	; 0x59
 800226e:	f88d 405a 	strb.w	r4, [sp, #90]	; 0x5a
 8002272:	f88d 405b 	strb.w	r4, [sp, #91]	; 0x5b
 8002276:	238c      	movs	r3, #140	; 0x8c
 8002278:	f88d 305c 	strb.w	r3, [sp, #92]	; 0x5c
 800227c:	23ba      	movs	r3, #186	; 0xba
 800227e:	f88d 305d 	strb.w	r3, [sp, #93]	; 0x5d
 8002282:	2380      	movs	r3, #128	; 0x80
 8002284:	f88d 305e 	strb.w	r3, [sp, #94]	; 0x5e
 8002288:	ab16      	add	r3, sp, #88	; 0x58
 800228a:	e893 0003 	ldmia.w	r3, {r0, r1}
 800228e:	9005      	str	r0, [sp, #20]
 8002290:	f8ad 1018 	strh.w	r1, [sp, #24]
 8002294:	0c09      	lsrs	r1, r1, #16
 8002296:	f88d 101a 	strb.w	r1, [sp, #26]
 800229a:	b672      	cpsid	i
 800229c:	9500      	str	r5, [sp, #0]
 800229e:	9501      	str	r5, [sp, #4]
 80022a0:	4828      	ldr	r0, [pc, #160]	; (8002344 <si446x_setup+0x34c>)
 80022a2:	2107      	movs	r1, #7
 80022a4:	aa05      	add	r2, sp, #20
 80022a6:	462b      	mov	r3, r5
 80022a8:	f7fe ff5e 	bl	8001168 <si446x_spi_state_machine>
 80022ac:	b662      	cpsie	i
 80022ae:	4b20      	ldr	r3, [pc, #128]	; (8002330 <si446x_setup+0x338>)
 80022b0:	f893 3020 	ldrb.w	r3, [r3, #32]
 80022b4:	f013 0fff 	tst.w	r3, #255	; 0xff
 80022b8:	d1f9      	bne.n	80022ae <si446x_setup+0x2b6>
 80022ba:	481e      	ldr	r0, [pc, #120]	; (8002334 <si446x_setup+0x33c>)
 80022bc:	2101      	movs	r1, #1
 80022be:	f007 fe03 	bl	8009ec8 <GPIO_ReadInputDataBit>
 80022c2:	2800      	cmp	r0, #0
 80022c4:	d1f9      	bne.n	80022ba <si446x_setup+0x2c2>
 80022c6:	481b      	ldr	r0, [pc, #108]	; (8002334 <si446x_setup+0x33c>)
 80022c8:	f44f 6180 	mov.w	r1, #1024	; 0x400
 80022cc:	f007 fdfc 	bl	8009ec8 <GPIO_ReadInputDataBit>
 80022d0:	2800      	cmp	r0, #0
 80022d2:	d1f2      	bne.n	80022ba <si446x_setup+0x2c2>
 80022d4:	2301      	movs	r3, #1
 80022d6:	930a      	str	r3, [sp, #40]	; 0x28
 80022d8:	2400      	movs	r4, #0
 80022da:	f88d 402c 	strb.w	r4, [sp, #44]	; 0x2c
 80022de:	2208      	movs	r2, #8
 80022e0:	f88d 202d 	strb.w	r2, [sp, #45]	; 0x2d
 80022e4:	f88d 302e 	strb.w	r3, [sp, #46]	; 0x2e
 80022e8:	2206      	movs	r2, #6
 80022ea:	f88d 2024 	strb.w	r2, [sp, #36]	; 0x24
 80022ee:	f88d 3025 	strb.w	r3, [sp, #37]	; 0x25
 80022f2:	2207      	movs	r2, #7
 80022f4:	f88d 2026 	strb.w	r2, [sp, #38]	; 0x26
 80022f8:	f88d 3027 	strb.w	r3, [sp, #39]	; 0x27
 80022fc:	a809      	add	r0, sp, #36	; 0x24
 80022fe:	f007 fa9b 	bl	8009838 <NVIC_Init>
 8002302:	2320      	movs	r3, #32
 8002304:	f88d 3060 	strb.w	r3, [sp, #96]	; 0x60
 8002308:	f88d 4061 	strb.w	r4, [sp, #97]	; 0x61
 800230c:	f88d 4062 	strb.w	r4, [sp, #98]	; 0x62
 8002310:	f88d 4063 	strb.w	r4, [sp, #99]	; 0x63
 8002314:	aa1e      	add	r2, sp, #120	; 0x78
 8002316:	9b18      	ldr	r3, [sp, #96]	; 0x60
 8002318:	f842 3d64 	str.w	r3, [r2, #-100]!
 800231c:	b672      	cpsid	i
 800231e:	9400      	str	r4, [sp, #0]
 8002320:	9401      	str	r4, [sp, #4]
 8002322:	4808      	ldr	r0, [pc, #32]	; (8002344 <si446x_setup+0x34c>)
 8002324:	2104      	movs	r1, #4
 8002326:	4623      	mov	r3, r4
 8002328:	f7fe ff1e 	bl	8001168 <si446x_spi_state_machine>
 800232c:	b662      	cpsie	i
 800232e:	e00c      	b.n	800234a <si446x_setup+0x352>
 8002330:	200009e0 	andcs	r0, r0, r0, ror #19
 8002334:	40010c00 	andmi	r0, r1, r0, lsl #24
 8002338:	40004800 	andmi	r4, r0, r0, lsl #16
 800233c:	40013000 	andmi	r3, r1, r0
 8002340:	20001868 	andcs	r1, r0, r8, ror #16
 8002344:	20000a00 	andcs	r0, r0, r0, lsl #20
 8002348:	bf30      	wfi
 800234a:	4b43      	ldr	r3, [pc, #268]	; (8002458 <si446x_setup+0x460>)
 800234c:	f893 3020 	ldrb.w	r3, [r3, #32]
 8002350:	f013 0fff 	tst.w	r3, #255	; 0xff
 8002354:	d1f8      	bne.n	8002348 <si446x_setup+0x350>
 8002356:	4b41      	ldr	r3, [pc, #260]	; (800245c <si446x_setup+0x464>)
 8002358:	881b      	ldrh	r3, [r3, #0]
 800235a:	f8ad 3064 	strh.w	r3, [sp, #100]	; 0x64
 800235e:	aa1e      	add	r2, sp, #120	; 0x78
 8002360:	f8bd 3064 	ldrh.w	r3, [sp, #100]	; 0x64
 8002364:	f822 3d64 	strh.w	r3, [r2, #-100]!
 8002368:	b672      	cpsid	i
 800236a:	ab02      	add	r3, sp, #8
 800236c:	9300      	str	r3, [sp, #0]
 800236e:	2300      	movs	r3, #0
 8002370:	9301      	str	r3, [sp, #4]
 8002372:	483b      	ldr	r0, [pc, #236]	; (8002460 <si446x_setup+0x468>)
 8002374:	2102      	movs	r1, #2
 8002376:	230c      	movs	r3, #12
 8002378:	f7fe fef6 	bl	8001168 <si446x_spi_state_machine>
 800237c:	b662      	cpsie	i
 800237e:	e000      	b.n	8002382 <si446x_setup+0x38a>
 8002380:	bf30      	wfi
 8002382:	4b35      	ldr	r3, [pc, #212]	; (8002458 <si446x_setup+0x460>)
 8002384:	f893 3020 	ldrb.w	r3, [r3, #32]
 8002388:	f013 0fff 	tst.w	r3, #255	; 0xff
 800238c:	d1f8      	bne.n	8002380 <si446x_setup+0x388>
 800238e:	f89d 400b 	ldrb.w	r4, [sp, #11]
 8002392:	ab1a      	add	r3, sp, #104	; 0x68
 8002394:	4a33      	ldr	r2, [pc, #204]	; (8002464 <si446x_setup+0x46c>)
 8002396:	f852 0f2c 	ldr.w	r0, [r2, #44]!
 800239a:	6851      	ldr	r1, [r2, #4]
 800239c:	c303      	stmia	r3!, {r0, r1}
 800239e:	aa05      	add	r2, sp, #20
 80023a0:	e882 0003 	stmia.w	r2, {r0, r1}
 80023a4:	2300      	movs	r3, #0
 80023a6:	9300      	str	r3, [sp, #0]
 80023a8:	9301      	str	r3, [sp, #4]
 80023aa:	482d      	ldr	r0, [pc, #180]	; (8002460 <si446x_setup+0x468>)
 80023ac:	2108      	movs	r1, #8
 80023ae:	f7fe fedb 	bl	8001168 <si446x_spi_state_machine>
 80023b2:	e000      	b.n	80023b6 <si446x_setup+0x3be>
 80023b4:	bf30      	wfi
 80023b6:	4b28      	ldr	r3, [pc, #160]	; (8002458 <si446x_setup+0x460>)
 80023b8:	f893 3020 	ldrb.w	r3, [r3, #32]
 80023bc:	f013 0fff 	tst.w	r3, #255	; 0xff
 80023c0:	d1f8      	bne.n	80023b4 <si446x_setup+0x3bc>
 80023c2:	f44f 6380 	mov.w	r3, #1024	; 0x400
 80023c6:	f8ad 3054 	strh.w	r3, [sp, #84]	; 0x54
 80023ca:	2503      	movs	r5, #3
 80023cc:	f88d 5056 	strb.w	r5, [sp, #86]	; 0x56
 80023d0:	2318      	movs	r3, #24
 80023d2:	f88d 3057 	strb.w	r3, [sp, #87]	; 0x57
 80023d6:	4824      	ldr	r0, [pc, #144]	; (8002468 <si446x_setup+0x470>)
 80023d8:	a915      	add	r1, sp, #84	; 0x54
 80023da:	f007 fd2d 	bl	8009e38 <GPIO_Init>
 80023de:	4e23      	ldr	r6, [pc, #140]	; (800246c <si446x_setup+0x474>)
 80023e0:	4630      	mov	r0, r6
 80023e2:	f7ff f9c5 	bl	8001770 <si446x_set_frequency>
 80023e6:	4630      	mov	r0, r6
 80023e8:	f640 31b8 	movw	r1, #3000	; 0xbb8
 80023ec:	f7ff f930 	bl	8001650 <si446x_set_deviation_channel>
 80023f0:	f7ff f818 	bl	8001424 <si446x_set_modem>
 80023f4:	2332      	movs	r3, #50	; 0x32
 80023f6:	f88d 3070 	strb.w	r3, [sp, #112]	; 0x70
 80023fa:	4a17      	ldr	r2, [pc, #92]	; (8002458 <si446x_setup+0x460>)
 80023fc:	f892 3048 	ldrb.w	r3, [r2, #72]	; 0x48
 8002400:	f88d 3071 	strb.w	r3, [sp, #113]	; 0x71
 8002404:	2300      	movs	r3, #0
 8002406:	f88d 3072 	strb.w	r3, [sp, #114]	; 0x72
 800240a:	f88d 3073 	strb.w	r3, [sp, #115]	; 0x73
 800240e:	f88d 5074 	strb.w	r5, [sp, #116]	; 0x74
 8002412:	2108      	movs	r1, #8
 8002414:	f88d 1075 	strb.w	r1, [sp, #117]	; 0x75
 8002418:	a91e      	add	r1, sp, #120	; 0x78
 800241a:	e911 0003 	ldmdb	r1, {r0, r1}
 800241e:	9005      	str	r0, [sp, #20]
 8002420:	f8ad 1018 	strh.w	r1, [sp, #24]
 8002424:	a902      	add	r1, sp, #8
 8002426:	9100      	str	r1, [sp, #0]
 8002428:	4911      	ldr	r1, [pc, #68]	; (8002470 <si446x_setup+0x478>)
 800242a:	9101      	str	r1, [sp, #4]
 800242c:	f102 0020 	add.w	r0, r2, #32
 8002430:	2106      	movs	r1, #6
 8002432:	aa05      	add	r2, sp, #20
 8002434:	f7fe fe98 	bl	8001168 <si446x_spi_state_machine>
 8002438:	e000      	b.n	800243c <si446x_setup+0x444>
 800243a:	bf30      	wfi
 800243c:	4b06      	ldr	r3, [pc, #24]	; (8002458 <si446x_setup+0x460>)
 800243e:	f893 3020 	ldrb.w	r3, [r3, #32]
 8002442:	f013 0fff 	tst.w	r3, #255	; 0xff
 8002446:	d1f8      	bne.n	800243a <si446x_setup+0x442>
 8002448:	a80a      	add	r0, sp, #40	; 0x28
 800244a:	f007 fc95 	bl	8009d78 <EXTI_Init>
 800244e:	4620      	mov	r0, r4
 8002450:	b01e      	add	sp, #120	; 0x78
 8002452:	e8bd 81f0 	ldmia.w	sp!, {r4, r5, r6, r7, r8, pc}
 8002456:	bf00      	nop
 8002458:	200009e0 	andcs	r0, r0, r0, ror #19
 800245c:	0800b5c0 	stmdaeq	r0, {r6, r7, r8, sl, ip, sp, pc}
 8002460:	20000a00 	andcs	r0, r0, r0, lsl #20
 8002464:	0800b598 	stmdaeq	r0, {r3, r4, r7, r8, sl, ip, sp, pc}
 8002468:	40010c00 	andmi	r0, r1, r0, lsl #24
 800246c:	19e9c230 	stmibne	r9!, {r4, r5, r9, lr, pc}^
 8002470:	08001941 	stmdaeq	r0, {r0, r6, r8, fp, ip}

08002474 <silabs_cts_jammed>:
 8002474:	4b07      	ldr	r3, [pc, #28]	; (8002494 <silabs_cts_jammed+0x20>)
 8002476:	69db      	ldr	r3, [r3, #28]
 8002478:	b143      	cbz	r3, 800248c <silabs_cts_jammed+0x18>
 800247a:	4b07      	ldr	r3, [pc, #28]	; (8002498 <silabs_cts_jammed+0x24>)
 800247c:	681b      	ldr	r3, [r3, #0]
 800247e:	4a05      	ldr	r2, [pc, #20]	; (8002494 <silabs_cts_jammed+0x20>)
 8002480:	69d2      	ldr	r2, [r2, #28]
 8002482:	1a9b      	subs	r3, r3, r2
 8002484:	2b14      	cmp	r3, #20
 8002486:	d803      	bhi.n	8002490 <silabs_cts_jammed+0x1c>
 8002488:	2000      	movs	r0, #0
 800248a:	4770      	bx	lr
 800248c:	2000      	movs	r0, #0
 800248e:	4770      	bx	lr
 8002490:	2001      	movs	r0, #1
 8002492:	4770      	bx	lr
 8002494:	200009e0 	andcs	r0, r0, r0, ror #19
 8002498:	20001868 	andcs	r1, r0, r8, ror #16

0800249c <get_from_silabs_buffer>:
 800249c:	b510      	push	{r4, lr}
 800249e:	b082      	sub	sp, #8
 80024a0:	4604      	mov	r4, r0
 80024a2:	a801      	add	r0, sp, #4
 80024a4:	4903      	ldr	r1, [pc, #12]	; (80024b4 <get_from_silabs_buffer+0x18>)
 80024a6:	f000 fcc1 	bl	8002e2c <Get_From_Buffer>
 80024aa:	7020      	strb	r0, [r4, #0]
 80024ac:	f89d 0004 	ldrb.w	r0, [sp, #4]
 80024b0:	b002      	add	sp, #8
 80024b2:	bd10      	pop	{r4, pc}
 80024b4:	20000a1c 	andcs	r0, r0, ip, lsl sl

080024b8 <send_string_to_silabs>:
 80024b8:	b510      	push	{r4, lr}
 80024ba:	4604      	mov	r4, r0
 80024bc:	e003      	b.n	80024c6 <send_string_to_silabs+0xe>
 80024be:	4905      	ldr	r1, [pc, #20]	; (80024d4 <send_string_to_silabs+0x1c>)
 80024c0:	f000 fcd4 	bl	8002e6c <Add_To_Buffer>
 80024c4:	3401      	adds	r4, #1
 80024c6:	7820      	ldrb	r0, [r4, #0]
 80024c8:	2800      	cmp	r0, #0
 80024ca:	d1f8      	bne.n	80024be <send_string_to_silabs+0x6>
 80024cc:	2001      	movs	r0, #1
 80024ce:	f007 fc97 	bl	8009e00 <EXTI_GenerateSWInterrupt>
 80024d2:	bd10      	pop	{r4, pc}
 80024d4:	20000a34 	andcs	r0, r0, r4, lsr sl

080024d8 <ff_wtoupper>:
 80024d8:	2200      	movs	r2, #0
 80024da:	e000      	b.n	80024de <ff_wtoupper+0x6>
 80024dc:	3201      	adds	r2, #1
 80024de:	4b06      	ldr	r3, [pc, #24]	; (80024f8 <ff_wtoupper+0x20>)
 80024e0:	f833 3012 	ldrh.w	r3, [r3, r2, lsl #1]
 80024e4:	b10b      	cbz	r3, 80024ea <ff_wtoupper+0x12>
 80024e6:	4283      	cmp	r3, r0
 80024e8:	d1f8      	bne.n	80024dc <ff_wtoupper+0x4>
 80024ea:	b123      	cbz	r3, 80024f6 <ff_wtoupper+0x1e>
 80024ec:	4b02      	ldr	r3, [pc, #8]	; (80024f8 <ff_wtoupper+0x20>)
 80024ee:	eb03 0242 	add.w	r2, r3, r2, lsl #1
 80024f2:	f8b2 01e0 	ldrh.w	r0, [r2, #480]	; 0x1e0
 80024f6:	4770      	bx	lr
 80024f8:	0800b5cc 	stmdaeq	r0, {r2, r3, r6, r7, r8, sl, ip, sp, pc}

080024fc <crc_xmodem_update>:
 80024fc:	ea80 2001 	eor.w	r0, r0, r1, lsl #8
 8002500:	2300      	movs	r3, #0
 8002502:	e00c      	b.n	800251e <crc_xmodem_update+0x22>
 8002504:	f410 4f00 	tst.w	r0, #32768	; 0x8000
 8002508:	d005      	beq.n	8002516 <crc_xmodem_update+0x1a>
 800250a:	f241 0121 	movw	r1, #4129	; 0x1021
 800250e:	ea81 0040 	eor.w	r0, r1, r0, lsl #1
 8002512:	b280      	uxth	r0, r0
 8002514:	e001      	b.n	800251a <crc_xmodem_update+0x1e>
 8002516:	0040      	lsls	r0, r0, #1
 8002518:	b280      	uxth	r0, r0
 800251a:	3301      	adds	r3, #1
 800251c:	b29b      	uxth	r3, r3
 800251e:	2b07      	cmp	r3, #7
 8002520:	d9f0      	bls.n	8002504 <crc_xmodem_update+0x8>
 8002522:	4770      	bx	lr

08002524 <sum_sfn.lto_priv.25>:
 8002524:	210b      	movs	r1, #11
 8002526:	2300      	movs	r3, #0
 8002528:	01da      	lsls	r2, r3, #7
 800252a:	ea42 0353 	orr.w	r3, r2, r3, lsr #1
 800252e:	7802      	ldrb	r2, [r0, #0]
 8002530:	4413      	add	r3, r2
 8002532:	f003 03ff 	and.w	r3, r3, #255	; 0xff
 8002536:	3001      	adds	r0, #1
 8002538:	3901      	subs	r1, #1
 800253a:	d1f5      	bne.n	8002528 <sum_sfn.lto_priv.25+0x4>
 800253c:	4618      	mov	r0, r3
 800253e:	4770      	bx	lr

08002540 <fit_lfn.lto_priv.24>:
 8002540:	b4f0      	push	{r4, r5, r6, r7}
 8002542:	734b      	strb	r3, [r1, #13]
 8002544:	230f      	movs	r3, #15
 8002546:	72cb      	strb	r3, [r1, #11]
 8002548:	2500      	movs	r5, #0
 800254a:	730d      	strb	r5, [r1, #12]
 800254c:	768d      	strb	r5, [r1, #26]
 800254e:	76cd      	strb	r5, [r1, #27]
 8002550:	1e53      	subs	r3, r2, #1
 8002552:	eb03 0643 	add.w	r6, r3, r3, lsl #1
 8002556:	eb03 0686 	add.w	r6, r3, r6, lsl #2
 800255a:	462b      	mov	r3, r5
 800255c:	f64f 74ff 	movw	r4, #65535	; 0xffff
 8002560:	42a3      	cmp	r3, r4
 8002562:	d002      	beq.n	800256a <fit_lfn.lto_priv.24+0x2a>
 8002564:	f830 3016 	ldrh.w	r3, [r0, r6, lsl #1]
 8002568:	3601      	adds	r6, #1
 800256a:	4c0d      	ldr	r4, [pc, #52]	; (80025a0 <fit_lfn.lto_priv.24+0x60>)
 800256c:	442c      	add	r4, r5
 800256e:	f894 43c0 	ldrb.w	r4, [r4, #960]	; 0x3c0
 8002572:	550b      	strb	r3, [r1, r4]
 8002574:	440c      	add	r4, r1
 8002576:	0a1f      	lsrs	r7, r3, #8
 8002578:	7067      	strb	r7, [r4, #1]
 800257a:	b90b      	cbnz	r3, 8002580 <fit_lfn.lto_priv.24+0x40>
 800257c:	f64f 73ff 	movw	r3, #65535	; 0xffff
 8002580:	3501      	adds	r5, #1
 8002582:	2d0c      	cmp	r5, #12
 8002584:	d9ea      	bls.n	800255c <fit_lfn.lto_priv.24+0x1c>
 8002586:	f64f 74ff 	movw	r4, #65535	; 0xffff
 800258a:	42a3      	cmp	r3, r4
 800258c:	d002      	beq.n	8002594 <fit_lfn.lto_priv.24+0x54>
 800258e:	f830 3016 	ldrh.w	r3, [r0, r6, lsl #1]
 8002592:	b90b      	cbnz	r3, 8002598 <fit_lfn.lto_priv.24+0x58>
 8002594:	f042 0240 	orr.w	r2, r2, #64	; 0x40
 8002598:	700a      	strb	r2, [r1, #0]
 800259a:	bcf0      	pop	{r4, r5, r6, r7}
 800259c:	4770      	bx	lr
 800259e:	bf00      	nop
 80025a0:	0800b5cc 	stmdaeq	r0, {r2, r3, r6, r7, r8, sl, ip, sp, pc}

080025a4 <cmp_lfn.lto_priv.27>:
 80025a4:	e92d 43f8 	stmdb	sp!, {r3, r4, r5, r6, r7, r8, r9, lr}
 80025a8:	4680      	mov	r8, r0
 80025aa:	460d      	mov	r5, r1
 80025ac:	780e      	ldrb	r6, [r1, #0]
 80025ae:	f026 0640 	bic.w	r6, r6, #64	; 0x40
 80025b2:	1e73      	subs	r3, r6, #1
 80025b4:	eb03 0643 	add.w	r6, r3, r3, lsl #1
 80025b8:	eb03 0686 	add.w	r6, r3, r6, lsl #2
 80025bc:	2701      	movs	r7, #1
 80025be:	2400      	movs	r4, #0
 80025c0:	4b1e      	ldr	r3, [pc, #120]	; (800263c <cmp_lfn.lto_priv.27+0x98>)
 80025c2:	4423      	add	r3, r4
 80025c4:	f893 33c0 	ldrb.w	r3, [r3, #960]	; 0x3c0
 80025c8:	18ea      	adds	r2, r5, r3
 80025ca:	7850      	ldrb	r0, [r2, #1]
 80025cc:	5ceb      	ldrb	r3, [r5, r3]
 80025ce:	ea43 2000 	orr.w	r0, r3, r0, lsl #8
 80025d2:	b177      	cbz	r7, 80025f2 <cmp_lfn.lto_priv.27+0x4e>
 80025d4:	f7ff ff80 	bl	80024d8 <ff_wtoupper>
 80025d8:	4607      	mov	r7, r0
 80025da:	2efe      	cmp	r6, #254	; 0xfe
 80025dc:	d81b      	bhi.n	8002616 <cmp_lfn.lto_priv.27+0x72>
 80025de:	f106 0901 	add.w	r9, r6, #1
 80025e2:	f838 0016 	ldrh.w	r0, [r8, r6, lsl #1]
 80025e6:	f7ff ff77 	bl	80024d8 <ff_wtoupper>
 80025ea:	42b8      	cmp	r0, r7
 80025ec:	d116      	bne.n	800261c <cmp_lfn.lto_priv.27+0x78>
 80025ee:	464e      	mov	r6, r9
 80025f0:	e003      	b.n	80025fa <cmp_lfn.lto_priv.27+0x56>
 80025f2:	f64f 73ff 	movw	r3, #65535	; 0xffff
 80025f6:	4298      	cmp	r0, r3
 80025f8:	d113      	bne.n	8002622 <cmp_lfn.lto_priv.27+0x7e>
 80025fa:	3401      	adds	r4, #1
 80025fc:	2c0c      	cmp	r4, #12
 80025fe:	d9df      	bls.n	80025c0 <cmp_lfn.lto_priv.27+0x1c>
 8002600:	782b      	ldrb	r3, [r5, #0]
 8002602:	f013 0f40 	tst.w	r3, #64	; 0x40
 8002606:	d00f      	beq.n	8002628 <cmp_lfn.lto_priv.27+0x84>
 8002608:	b18f      	cbz	r7, 800262e <cmp_lfn.lto_priv.27+0x8a>
 800260a:	f838 3016 	ldrh.w	r3, [r8, r6, lsl #1]
 800260e:	b98b      	cbnz	r3, 8002634 <cmp_lfn.lto_priv.27+0x90>
 8002610:	2001      	movs	r0, #1
 8002612:	e8bd 83f8 	ldmia.w	sp!, {r3, r4, r5, r6, r7, r8, r9, pc}
 8002616:	2000      	movs	r0, #0
 8002618:	e8bd 83f8 	ldmia.w	sp!, {r3, r4, r5, r6, r7, r8, r9, pc}
 800261c:	2000      	movs	r0, #0
 800261e:	e8bd 83f8 	ldmia.w	sp!, {r3, r4, r5, r6, r7, r8, r9, pc}
 8002622:	2000      	movs	r0, #0
 8002624:	e8bd 83f8 	ldmia.w	sp!, {r3, r4, r5, r6, r7, r8, r9, pc}
 8002628:	2001      	movs	r0, #1
 800262a:	e8bd 83f8 	ldmia.w	sp!, {r3, r4, r5, r6, r7, r8, r9, pc}
 800262e:	2001      	movs	r0, #1
 8002630:	e8bd 83f8 	ldmia.w	sp!, {r3, r4, r5, r6, r7, r8, r9, pc}
 8002634:	2000      	movs	r0, #0
 8002636:	e8bd 83f8 	ldmia.w	sp!, {r3, r4, r5, r6, r7, r8, r9, pc}
 800263a:	bf00      	nop
 800263c:	0800b5cc 	stmdaeq	r0, {r2, r3, r6, r7, r8, sl, ip, sp, pc}

08002640 <clust2sect>:
 8002640:	3902      	subs	r1, #2
 8002642:	6983      	ldr	r3, [r0, #24]
 8002644:	3b02      	subs	r3, #2
 8002646:	428b      	cmp	r3, r1
 8002648:	d904      	bls.n	8002654 <clust2sect+0x14>
 800264a:	7883      	ldrb	r3, [r0, #2]
 800264c:	6a80      	ldr	r0, [r0, #40]	; 0x28
 800264e:	fb01 0003 	mla	r0, r1, r3, r0
 8002652:	4770      	bx	lr
 8002654:	2000      	movs	r0, #0
 8002656:	4770      	bx	lr

08002658 <move_window.lto_priv.18>:
 8002658:	e92d 41f0 	stmdb	sp!, {r4, r5, r6, r7, r8, lr}
 800265c:	6ac7      	ldr	r7, [r0, #44]	; 0x2c
 800265e:	428f      	cmp	r7, r1
 8002660:	d02d      	beq.n	80026be <move_window.lto_priv.18+0x66>
 8002662:	460e      	mov	r6, r1
 8002664:	4604      	mov	r4, r0
 8002666:	7903      	ldrb	r3, [r0, #4]
 8002668:	b1eb      	cbz	r3, 80026a6 <move_window.lto_priv.18+0x4e>
 800266a:	f100 0830 	add.w	r8, r0, #48	; 0x30
 800266e:	7840      	ldrb	r0, [r0, #1]
 8002670:	4641      	mov	r1, r8
 8002672:	463a      	mov	r2, r7
 8002674:	2301      	movs	r3, #1
 8002676:	f001 faaf 	bl	8003bd8 <disk_write>
 800267a:	bb10      	cbnz	r0, 80026c2 <move_window.lto_priv.18+0x6a>
 800267c:	2300      	movs	r3, #0
 800267e:	7123      	strb	r3, [r4, #4]
 8002680:	6a22      	ldr	r2, [r4, #32]
 8002682:	69e3      	ldr	r3, [r4, #28]
 8002684:	4413      	add	r3, r2
 8002686:	42bb      	cmp	r3, r7
 8002688:	d90d      	bls.n	80026a6 <move_window.lto_priv.18+0x4e>
 800268a:	78e5      	ldrb	r5, [r4, #3]
 800268c:	e009      	b.n	80026a2 <move_window.lto_priv.18+0x4a>
 800268e:	69e3      	ldr	r3, [r4, #28]
 8002690:	441f      	add	r7, r3
 8002692:	7860      	ldrb	r0, [r4, #1]
 8002694:	4641      	mov	r1, r8
 8002696:	463a      	mov	r2, r7
 8002698:	2301      	movs	r3, #1
 800269a:	f001 fa9d 	bl	8003bd8 <disk_write>
 800269e:	3d01      	subs	r5, #1
 80026a0:	b2ed      	uxtb	r5, r5
 80026a2:	2d01      	cmp	r5, #1
 80026a4:	d8f3      	bhi.n	800268e <move_window.lto_priv.18+0x36>
 80026a6:	b176      	cbz	r6, 80026c6 <move_window.lto_priv.18+0x6e>
 80026a8:	7860      	ldrb	r0, [r4, #1]
 80026aa:	f104 0130 	add.w	r1, r4, #48	; 0x30
 80026ae:	4632      	mov	r2, r6
 80026b0:	2301      	movs	r3, #1
 80026b2:	f001 fd21 	bl	80040f8 <disk_read>
 80026b6:	4603      	mov	r3, r0
 80026b8:	b938      	cbnz	r0, 80026ca <move_window.lto_priv.18+0x72>
 80026ba:	62e6      	str	r6, [r4, #44]	; 0x2c
 80026bc:	e006      	b.n	80026cc <move_window.lto_priv.18+0x74>
 80026be:	2300      	movs	r3, #0
 80026c0:	e004      	b.n	80026cc <move_window.lto_priv.18+0x74>
 80026c2:	2301      	movs	r3, #1
 80026c4:	e002      	b.n	80026cc <move_window.lto_priv.18+0x74>
 80026c6:	2300      	movs	r3, #0
 80026c8:	e000      	b.n	80026cc <move_window.lto_priv.18+0x74>
 80026ca:	2301      	movs	r3, #1
 80026cc:	4618      	mov	r0, r3
 80026ce:	e8bd 81f0 	ldmia.w	sp!, {r4, r5, r6, r7, r8, pc}
 80026d2:	bf00      	nop

080026d4 <put_fat>:
 80026d4:	b5f8      	push	{r3, r4, r5, r6, r7, lr}
 80026d6:	460c      	mov	r4, r1
 80026d8:	2901      	cmp	r1, #1
 80026da:	d979      	bls.n	80027d0 <put_fat+0xfc>
 80026dc:	4605      	mov	r5, r0
 80026de:	4616      	mov	r6, r2
 80026e0:	6983      	ldr	r3, [r0, #24]
 80026e2:	428b      	cmp	r3, r1
 80026e4:	d976      	bls.n	80027d4 <put_fat+0x100>
 80026e6:	7803      	ldrb	r3, [r0, #0]
 80026e8:	2b02      	cmp	r3, #2
 80026ea:	d03e      	beq.n	800276a <put_fat+0x96>
 80026ec:	2b03      	cmp	r3, #3
 80026ee:	d04e      	beq.n	800278e <put_fat+0xba>
 80026f0:	2b01      	cmp	r3, #1
 80026f2:	d169      	bne.n	80027c8 <put_fat+0xf4>
 80026f4:	eb01 0751 	add.w	r7, r1, r1, lsr #1
 80026f8:	6a01      	ldr	r1, [r0, #32]
 80026fa:	eb01 2157 	add.w	r1, r1, r7, lsr #9
 80026fe:	f7ff ffab 	bl	8002658 <move_window.lto_priv.18>
 8002702:	4603      	mov	r3, r0
 8002704:	2800      	cmp	r0, #0
 8002706:	d160      	bne.n	80027ca <put_fat+0xf6>
 8002708:	f3c7 0108 	ubfx	r1, r7, #0, #9
 800270c:	f014 0401 	ands.w	r4, r4, #1
 8002710:	d009      	beq.n	8002726 <put_fat+0x52>
 8002712:	186b      	adds	r3, r5, r1
 8002714:	f893 2030 	ldrb.w	r2, [r3, #48]	; 0x30
 8002718:	b2f3      	uxtb	r3, r6
 800271a:	f002 020f 	and.w	r2, r2, #15
 800271e:	ea42 1303 	orr.w	r3, r2, r3, lsl #4
 8002722:	b2db      	uxtb	r3, r3
 8002724:	e000      	b.n	8002728 <put_fat+0x54>
 8002726:	b2f3      	uxtb	r3, r6
 8002728:	4429      	add	r1, r5
 800272a:	f881 3030 	strb.w	r3, [r1, #48]	; 0x30
 800272e:	3701      	adds	r7, #1
 8002730:	2301      	movs	r3, #1
 8002732:	712b      	strb	r3, [r5, #4]
 8002734:	6a29      	ldr	r1, [r5, #32]
 8002736:	4628      	mov	r0, r5
 8002738:	eb01 2157 	add.w	r1, r1, r7, lsr #9
 800273c:	f7ff ff8c 	bl	8002658 <move_window.lto_priv.18>
 8002740:	4603      	mov	r3, r0
 8002742:	2800      	cmp	r0, #0
 8002744:	d141      	bne.n	80027ca <put_fat+0xf6>
 8002746:	f3c7 0708 	ubfx	r7, r7, #0, #9
 800274a:	b114      	cbz	r4, 8002752 <put_fat+0x7e>
 800274c:	f3c6 1607 	ubfx	r6, r6, #4, #8
 8002750:	e007      	b.n	8002762 <put_fat+0x8e>
 8002752:	19ea      	adds	r2, r5, r7
 8002754:	f892 2030 	ldrb.w	r2, [r2, #48]	; 0x30
 8002758:	f022 020f 	bic.w	r2, r2, #15
 800275c:	f3c6 2603 	ubfx	r6, r6, #8, #4
 8002760:	4316      	orrs	r6, r2
 8002762:	442f      	add	r7, r5
 8002764:	f887 6030 	strb.w	r6, [r7, #48]	; 0x30
 8002768:	e02f      	b.n	80027ca <put_fat+0xf6>
 800276a:	6a01      	ldr	r1, [r0, #32]
 800276c:	eb01 2114 	add.w	r1, r1, r4, lsr #8
 8002770:	f7ff ff72 	bl	8002658 <move_window.lto_priv.18>
 8002774:	4603      	mov	r3, r0
 8002776:	bb40      	cbnz	r0, 80027ca <put_fat+0xf6>
 8002778:	0064      	lsls	r4, r4, #1
 800277a:	f404 74ff 	and.w	r4, r4, #510	; 0x1fe
 800277e:	192a      	adds	r2, r5, r4
 8002780:	f882 6030 	strb.w	r6, [r2, #48]	; 0x30
 8002784:	f3c6 2607 	ubfx	r6, r6, #8, #8
 8002788:	f882 6031 	strb.w	r6, [r2, #49]	; 0x31
 800278c:	e01d      	b.n	80027ca <put_fat+0xf6>
 800278e:	6a01      	ldr	r1, [r0, #32]
 8002790:	eb01 11d4 	add.w	r1, r1, r4, lsr #7
 8002794:	f7ff ff60 	bl	8002658 <move_window.lto_priv.18>
 8002798:	4603      	mov	r3, r0
 800279a:	b9b0      	cbnz	r0, 80027ca <put_fat+0xf6>
 800279c:	00a4      	lsls	r4, r4, #2
 800279e:	f404 74fe 	and.w	r4, r4, #508	; 0x1fc
 80027a2:	f104 0230 	add.w	r2, r4, #48	; 0x30
 80027a6:	442a      	add	r2, r5
 80027a8:	78d1      	ldrb	r1, [r2, #3]
 80027aa:	0609      	lsls	r1, r1, #24
 80027ac:	442c      	add	r4, r5
 80027ae:	f001 4170 	and.w	r1, r1, #4026531840	; 0xf0000000
 80027b2:	430e      	orrs	r6, r1
 80027b4:	f884 6030 	strb.w	r6, [r4, #48]	; 0x30
 80027b8:	f3c6 2107 	ubfx	r1, r6, #8, #8
 80027bc:	7051      	strb	r1, [r2, #1]
 80027be:	0c31      	lsrs	r1, r6, #16
 80027c0:	7091      	strb	r1, [r2, #2]
 80027c2:	0e36      	lsrs	r6, r6, #24
 80027c4:	70d6      	strb	r6, [r2, #3]
 80027c6:	e000      	b.n	80027ca <put_fat+0xf6>
 80027c8:	2302      	movs	r3, #2
 80027ca:	2201      	movs	r2, #1
 80027cc:	712a      	strb	r2, [r5, #4]
 80027ce:	e002      	b.n	80027d6 <put_fat+0x102>
 80027d0:	2302      	movs	r3, #2
 80027d2:	e000      	b.n	80027d6 <put_fat+0x102>
 80027d4:	2302      	movs	r3, #2
 80027d6:	4618      	mov	r0, r3
 80027d8:	bdf8      	pop	{r3, r4, r5, r6, r7, pc}
 80027da:	bf00      	nop

080027dc <get_fat>:
 80027dc:	2901      	cmp	r1, #1
 80027de:	d95e      	bls.n	800289e <get_fat+0xc2>
 80027e0:	b5f8      	push	{r3, r4, r5, r6, r7, lr}
 80027e2:	6983      	ldr	r3, [r0, #24]
 80027e4:	428b      	cmp	r3, r1
 80027e6:	d95c      	bls.n	80028a2 <get_fat+0xc6>
 80027e8:	460c      	mov	r4, r1
 80027ea:	4605      	mov	r5, r0
 80027ec:	7803      	ldrb	r3, [r0, #0]
 80027ee:	2b02      	cmp	r3, #2
 80027f0:	d029      	beq.n	8002846 <get_fat+0x6a>
 80027f2:	2b03      	cmp	r3, #3
 80027f4:	d038      	beq.n	8002868 <get_fat+0x8c>
 80027f6:	2b01      	cmp	r3, #1
 80027f8:	d155      	bne.n	80028a6 <get_fat+0xca>
 80027fa:	eb01 0751 	add.w	r7, r1, r1, lsr #1
 80027fe:	6a01      	ldr	r1, [r0, #32]
 8002800:	eb01 2157 	add.w	r1, r1, r7, lsr #9
 8002804:	f7ff ff28 	bl	8002658 <move_window.lto_priv.18>
 8002808:	2800      	cmp	r0, #0
 800280a:	d14f      	bne.n	80028ac <get_fat+0xd0>
 800280c:	f3c7 0308 	ubfx	r3, r7, #0, #9
 8002810:	442b      	add	r3, r5
 8002812:	f893 6030 	ldrb.w	r6, [r3, #48]	; 0x30
 8002816:	3701      	adds	r7, #1
 8002818:	6a29      	ldr	r1, [r5, #32]
 800281a:	4628      	mov	r0, r5
 800281c:	eb01 2157 	add.w	r1, r1, r7, lsr #9
 8002820:	f7ff ff1a 	bl	8002658 <move_window.lto_priv.18>
 8002824:	2800      	cmp	r0, #0
 8002826:	d144      	bne.n	80028b2 <get_fat+0xd6>
 8002828:	f3c7 0708 	ubfx	r7, r7, #0, #9
 800282c:	19e8      	adds	r0, r5, r7
 800282e:	f890 0030 	ldrb.w	r0, [r0, #48]	; 0x30
 8002832:	ea46 2000 	orr.w	r0, r6, r0, lsl #8
 8002836:	f014 0f01 	tst.w	r4, #1
 800283a:	d001      	beq.n	8002840 <get_fat+0x64>
 800283c:	0900      	lsrs	r0, r0, #4
 800283e:	bdf8      	pop	{r3, r4, r5, r6, r7, pc}
 8002840:	f3c0 000b 	ubfx	r0, r0, #0, #12
 8002844:	bdf8      	pop	{r3, r4, r5, r6, r7, pc}
 8002846:	6a01      	ldr	r1, [r0, #32]
 8002848:	eb01 2114 	add.w	r1, r1, r4, lsr #8
 800284c:	f7ff ff04 	bl	8002658 <move_window.lto_priv.18>
 8002850:	bb90      	cbnz	r0, 80028b8 <get_fat+0xdc>
 8002852:	0061      	lsls	r1, r4, #1
 8002854:	f401 71ff 	and.w	r1, r1, #510	; 0x1fe
 8002858:	186b      	adds	r3, r5, r1
 800285a:	f893 0031 	ldrb.w	r0, [r3, #49]	; 0x31
 800285e:	f893 3030 	ldrb.w	r3, [r3, #48]	; 0x30
 8002862:	ea43 2000 	orr.w	r0, r3, r0, lsl #8
 8002866:	bdf8      	pop	{r3, r4, r5, r6, r7, pc}
 8002868:	6a01      	ldr	r1, [r0, #32]
 800286a:	eb01 11d4 	add.w	r1, r1, r4, lsr #7
 800286e:	f7ff fef3 	bl	8002658 <move_window.lto_priv.18>
 8002872:	bb20      	cbnz	r0, 80028be <get_fat+0xe2>
 8002874:	00a1      	lsls	r1, r4, #2
 8002876:	f401 71fe 	and.w	r1, r1, #508	; 0x1fc
 800287a:	f101 0230 	add.w	r2, r1, #48	; 0x30
 800287e:	442a      	add	r2, r5
 8002880:	78d0      	ldrb	r0, [r2, #3]
 8002882:	7893      	ldrb	r3, [r2, #2]
 8002884:	041b      	lsls	r3, r3, #16
 8002886:	ea43 6300 	orr.w	r3, r3, r0, lsl #24
 800288a:	7850      	ldrb	r0, [r2, #1]
 800288c:	ea43 2000 	orr.w	r0, r3, r0, lsl #8
 8002890:	440d      	add	r5, r1
 8002892:	f895 3030 	ldrb.w	r3, [r5, #48]	; 0x30
 8002896:	4318      	orrs	r0, r3
 8002898:	f020 4070 	bic.w	r0, r0, #4026531840	; 0xf0000000
 800289c:	bdf8      	pop	{r3, r4, r5, r6, r7, pc}
 800289e:	2001      	movs	r0, #1
 80028a0:	4770      	bx	lr
 80028a2:	2001      	movs	r0, #1
 80028a4:	bdf8      	pop	{r3, r4, r5, r6, r7, pc}
 80028a6:	f04f 30ff 	mov.w	r0, #4294967295
 80028aa:	bdf8      	pop	{r3, r4, r5, r6, r7, pc}
 80028ac:	f04f 30ff 	mov.w	r0, #4294967295
 80028b0:	bdf8      	pop	{r3, r4, r5, r6, r7, pc}
 80028b2:	f04f 30ff 	mov.w	r0, #4294967295
 80028b6:	bdf8      	pop	{r3, r4, r5, r6, r7, pc}
 80028b8:	f04f 30ff 	mov.w	r0, #4294967295
 80028bc:	bdf8      	pop	{r3, r4, r5, r6, r7, pc}
 80028be:	f04f 30ff 	mov.w	r0, #4294967295
 80028c2:	bdf8      	pop	{r3, r4, r5, r6, r7, pc}

080028c4 <dir_sdi.lto_priv.20>:
 80028c4:	b570      	push	{r4, r5, r6, lr}
 80028c6:	4605      	mov	r5, r0
 80028c8:	460c      	mov	r4, r1
 80028ca:	80e9      	strh	r1, [r5, #6]
 80028cc:	6881      	ldr	r1, [r0, #8]
 80028ce:	2901      	cmp	r1, #1
 80028d0:	d036      	beq.n	8002940 <dir_sdi.lto_priv.20+0x7c>
 80028d2:	6803      	ldr	r3, [r0, #0]
 80028d4:	699a      	ldr	r2, [r3, #24]
 80028d6:	428a      	cmp	r2, r1
 80028d8:	d934      	bls.n	8002944 <dir_sdi.lto_priv.20+0x80>
 80028da:	b919      	cbnz	r1, 80028e4 <dir_sdi.lto_priv.20+0x20>
 80028dc:	781a      	ldrb	r2, [r3, #0]
 80028de:	2a03      	cmp	r2, #3
 80028e0:	d100      	bne.n	80028e4 <dir_sdi.lto_priv.20+0x20>
 80028e2:	6a59      	ldr	r1, [r3, #36]	; 0x24
 80028e4:	b941      	cbnz	r1, 80028f8 <dir_sdi.lto_priv.20+0x34>
 80028e6:	60e9      	str	r1, [r5, #12]
 80028e8:	891a      	ldrh	r2, [r3, #8]
 80028ea:	42a2      	cmp	r2, r4
 80028ec:	d92c      	bls.n	8002948 <dir_sdi.lto_priv.20+0x84>
 80028ee:	6a5b      	ldr	r3, [r3, #36]	; 0x24
 80028f0:	eb03 1314 	add.w	r3, r3, r4, lsr #4
 80028f4:	612b      	str	r3, [r5, #16]
 80028f6:	e01a      	b.n	800292e <dir_sdi.lto_priv.20+0x6a>
 80028f8:	789e      	ldrb	r6, [r3, #2]
 80028fa:	0136      	lsls	r6, r6, #4
 80028fc:	e00e      	b.n	800291c <dir_sdi.lto_priv.20+0x58>
 80028fe:	6828      	ldr	r0, [r5, #0]
 8002900:	f7ff ff6c 	bl	80027dc <get_fat>
 8002904:	4601      	mov	r1, r0
 8002906:	f1b0 3fff 	cmp.w	r0, #4294967295
 800290a:	d01f      	beq.n	800294c <dir_sdi.lto_priv.20+0x88>
 800290c:	2801      	cmp	r0, #1
 800290e:	d91f      	bls.n	8002950 <dir_sdi.lto_priv.20+0x8c>
 8002910:	682b      	ldr	r3, [r5, #0]
 8002912:	699b      	ldr	r3, [r3, #24]
 8002914:	4283      	cmp	r3, r0
 8002916:	d91d      	bls.n	8002954 <dir_sdi.lto_priv.20+0x90>
 8002918:	1ba4      	subs	r4, r4, r6
 800291a:	b2a4      	uxth	r4, r4
 800291c:	42b4      	cmp	r4, r6
 800291e:	d2ee      	bcs.n	80028fe <dir_sdi.lto_priv.20+0x3a>
 8002920:	60e9      	str	r1, [r5, #12]
 8002922:	6828      	ldr	r0, [r5, #0]
 8002924:	f7ff fe8c 	bl	8002640 <clust2sect>
 8002928:	eb00 1014 	add.w	r0, r0, r4, lsr #4
 800292c:	6128      	str	r0, [r5, #16]
 800292e:	682b      	ldr	r3, [r5, #0]
 8002930:	f004 040f 	and.w	r4, r4, #15
 8002934:	eb03 1444 	add.w	r4, r3, r4, lsl #5
 8002938:	3430      	adds	r4, #48	; 0x30
 800293a:	616c      	str	r4, [r5, #20]
 800293c:	2000      	movs	r0, #0
 800293e:	bd70      	pop	{r4, r5, r6, pc}
 8002940:	2002      	movs	r0, #2
 8002942:	bd70      	pop	{r4, r5, r6, pc}
 8002944:	2002      	movs	r0, #2
 8002946:	bd70      	pop	{r4, r5, r6, pc}
 8002948:	2002      	movs	r0, #2
 800294a:	bd70      	pop	{r4, r5, r6, pc}
 800294c:	2001      	movs	r0, #1
 800294e:	bd70      	pop	{r4, r5, r6, pc}
 8002950:	2002      	movs	r0, #2
 8002952:	bd70      	pop	{r4, r5, r6, pc}
 8002954:	2002      	movs	r0, #2
 8002956:	bd70      	pop	{r4, r5, r6, pc}

08002958 <create_chain.lto_priv.16>:
 8002958:	b5f8      	push	{r3, r4, r5, r6, r7, lr}
 800295a:	4605      	mov	r5, r0
 800295c:	460f      	mov	r7, r1
 800295e:	b929      	cbnz	r1, 800296c <create_chain.lto_priv.16+0x14>
 8002960:	68c6      	ldr	r6, [r0, #12]
 8002962:	b166      	cbz	r6, 800297e <create_chain.lto_priv.16+0x26>
 8002964:	6983      	ldr	r3, [r0, #24]
 8002966:	42b3      	cmp	r3, r6
 8002968:	d90b      	bls.n	8002982 <create_chain.lto_priv.16+0x2a>
 800296a:	e00b      	b.n	8002984 <create_chain.lto_priv.16+0x2c>
 800296c:	f7ff ff36 	bl	80027dc <get_fat>
 8002970:	2801      	cmp	r0, #1
 8002972:	d941      	bls.n	80029f8 <create_chain.lto_priv.16+0xa0>
 8002974:	69ab      	ldr	r3, [r5, #24]
 8002976:	4283      	cmp	r3, r0
 8002978:	d843      	bhi.n	8002a02 <create_chain.lto_priv.16+0xaa>
 800297a:	463e      	mov	r6, r7
 800297c:	e002      	b.n	8002984 <create_chain.lto_priv.16+0x2c>
 800297e:	2601      	movs	r6, #1
 8002980:	e000      	b.n	8002984 <create_chain.lto_priv.16+0x2c>
 8002982:	2601      	movs	r6, #1
 8002984:	4634      	mov	r4, r6
 8002986:	3401      	adds	r4, #1
 8002988:	69ab      	ldr	r3, [r5, #24]
 800298a:	42a3      	cmp	r3, r4
 800298c:	d802      	bhi.n	8002994 <create_chain.lto_priv.16+0x3c>
 800298e:	2e01      	cmp	r6, #1
 8002990:	d934      	bls.n	80029fc <create_chain.lto_priv.16+0xa4>
 8002992:	2402      	movs	r4, #2
 8002994:	4628      	mov	r0, r5
 8002996:	4621      	mov	r1, r4
 8002998:	f7ff ff20 	bl	80027dc <get_fat>
 800299c:	4603      	mov	r3, r0
 800299e:	b148      	cbz	r0, 80029b4 <create_chain.lto_priv.16+0x5c>
 80029a0:	f1b0 3fff 	cmp.w	r0, #4294967295
 80029a4:	d001      	beq.n	80029aa <create_chain.lto_priv.16+0x52>
 80029a6:	2801      	cmp	r0, #1
 80029a8:	d101      	bne.n	80029ae <create_chain.lto_priv.16+0x56>
 80029aa:	4618      	mov	r0, r3
 80029ac:	bdf8      	pop	{r3, r4, r5, r6, r7, pc}
 80029ae:	42b4      	cmp	r4, r6
 80029b0:	d1e9      	bne.n	8002986 <create_chain.lto_priv.16+0x2e>
 80029b2:	e025      	b.n	8002a00 <create_chain.lto_priv.16+0xa8>
 80029b4:	4628      	mov	r0, r5
 80029b6:	4621      	mov	r1, r4
 80029b8:	f06f 4270 	mvn.w	r2, #4026531840	; 0xf0000000
 80029bc:	f7ff fe8a 	bl	80026d4 <put_fat>
 80029c0:	4603      	mov	r3, r0
 80029c2:	b930      	cbnz	r0, 80029d2 <create_chain.lto_priv.16+0x7a>
 80029c4:	b12f      	cbz	r7, 80029d2 <create_chain.lto_priv.16+0x7a>
 80029c6:	4628      	mov	r0, r5
 80029c8:	4639      	mov	r1, r7
 80029ca:	4622      	mov	r2, r4
 80029cc:	f7ff fe82 	bl	80026d4 <put_fat>
 80029d0:	4603      	mov	r3, r0
 80029d2:	b94b      	cbnz	r3, 80029e8 <create_chain.lto_priv.16+0x90>
 80029d4:	60ec      	str	r4, [r5, #12]
 80029d6:	692b      	ldr	r3, [r5, #16]
 80029d8:	f1b3 3fff 	cmp.w	r3, #4294967295
 80029dc:	d00a      	beq.n	80029f4 <create_chain.lto_priv.16+0x9c>
 80029de:	3b01      	subs	r3, #1
 80029e0:	612b      	str	r3, [r5, #16]
 80029e2:	2301      	movs	r3, #1
 80029e4:	716b      	strb	r3, [r5, #5]
 80029e6:	e005      	b.n	80029f4 <create_chain.lto_priv.16+0x9c>
 80029e8:	2b01      	cmp	r3, #1
 80029ea:	d102      	bne.n	80029f2 <create_chain.lto_priv.16+0x9a>
 80029ec:	f04f 34ff 	mov.w	r4, #4294967295
 80029f0:	e000      	b.n	80029f4 <create_chain.lto_priv.16+0x9c>
 80029f2:	2401      	movs	r4, #1
 80029f4:	4620      	mov	r0, r4
 80029f6:	bdf8      	pop	{r3, r4, r5, r6, r7, pc}
 80029f8:	2001      	movs	r0, #1
 80029fa:	bdf8      	pop	{r3, r4, r5, r6, r7, pc}
 80029fc:	2000      	movs	r0, #0
 80029fe:	bdf8      	pop	{r3, r4, r5, r6, r7, pc}
 8002a00:	2000      	movs	r0, #0
 8002a02:	bdf8      	pop	{r3, r4, r5, r6, r7, pc}

08002a04 <remove_chain.lto_priv.11>:
 8002a04:	b5f8      	push	{r3, r4, r5, r6, r7, lr}
 8002a06:	460d      	mov	r5, r1
 8002a08:	2901      	cmp	r1, #1
 8002a0a:	d924      	bls.n	8002a56 <remove_chain.lto_priv.11+0x52>
 8002a0c:	4604      	mov	r4, r0
 8002a0e:	6983      	ldr	r3, [r0, #24]
 8002a10:	428b      	cmp	r3, r1
 8002a12:	d922      	bls.n	8002a5a <remove_chain.lto_priv.11+0x56>
 8002a14:	2700      	movs	r7, #0
 8002a16:	e01a      	b.n	8002a4e <remove_chain.lto_priv.11+0x4a>
 8002a18:	4620      	mov	r0, r4
 8002a1a:	4629      	mov	r1, r5
 8002a1c:	f7ff fede 	bl	80027dc <get_fat>
 8002a20:	4606      	mov	r6, r0
 8002a22:	b1f8      	cbz	r0, 8002a64 <remove_chain.lto_priv.11+0x60>
 8002a24:	2801      	cmp	r0, #1
 8002a26:	d01a      	beq.n	8002a5e <remove_chain.lto_priv.11+0x5a>
 8002a28:	f1b0 3fff 	cmp.w	r0, #4294967295
 8002a2c:	d019      	beq.n	8002a62 <remove_chain.lto_priv.11+0x5e>
 8002a2e:	4620      	mov	r0, r4
 8002a30:	4629      	mov	r1, r5
 8002a32:	2200      	movs	r2, #0
 8002a34:	f7ff fe4e 	bl	80026d4 <put_fat>
 8002a38:	4607      	mov	r7, r0
 8002a3a:	b998      	cbnz	r0, 8002a64 <remove_chain.lto_priv.11+0x60>
 8002a3c:	6923      	ldr	r3, [r4, #16]
 8002a3e:	f1b3 3fff 	cmp.w	r3, #4294967295
 8002a42:	d003      	beq.n	8002a4c <remove_chain.lto_priv.11+0x48>
 8002a44:	3301      	adds	r3, #1
 8002a46:	6123      	str	r3, [r4, #16]
 8002a48:	2301      	movs	r3, #1
 8002a4a:	7163      	strb	r3, [r4, #5]
 8002a4c:	4635      	mov	r5, r6
 8002a4e:	69a3      	ldr	r3, [r4, #24]
 8002a50:	42ab      	cmp	r3, r5
 8002a52:	d8e1      	bhi.n	8002a18 <remove_chain.lto_priv.11+0x14>
 8002a54:	e006      	b.n	8002a64 <remove_chain.lto_priv.11+0x60>
 8002a56:	2702      	movs	r7, #2
 8002a58:	e004      	b.n	8002a64 <remove_chain.lto_priv.11+0x60>
 8002a5a:	2702      	movs	r7, #2
 8002a5c:	e002      	b.n	8002a64 <remove_chain.lto_priv.11+0x60>
 8002a5e:	2702      	movs	r7, #2
 8002a60:	e000      	b.n	8002a64 <remove_chain.lto_priv.11+0x60>
 8002a62:	2701      	movs	r7, #1
 8002a64:	4638      	mov	r0, r7
 8002a66:	bdf8      	pop	{r3, r4, r5, r6, r7, pc}

08002a68 <chk_chr.lto_priv.21>:
 8002a68:	e000      	b.n	8002a6c <chk_chr.lto_priv.21+0x4>
 8002a6a:	3001      	adds	r0, #1
 8002a6c:	7803      	ldrb	r3, [r0, #0]
 8002a6e:	b10b      	cbz	r3, 8002a74 <chk_chr.lto_priv.21+0xc>
 8002a70:	428b      	cmp	r3, r1
 8002a72:	d1fa      	bne.n	8002a6a <chk_chr.lto_priv.21+0x2>
 8002a74:	4618      	mov	r0, r3
 8002a76:	4770      	bx	lr

08002a78 <mem_cmp.lto_priv.26>:
 8002a78:	b470      	push	{r4, r5, r6}
 8002a7a:	2300      	movs	r3, #0
 8002a7c:	e001      	b.n	8002a82 <mem_cmp.lto_priv.26+0xa>
 8002a7e:	4629      	mov	r1, r5
 8002a80:	4630      	mov	r0, r6
 8002a82:	1e54      	subs	r4, r2, #1
 8002a84:	b132      	cbz	r2, 8002a94 <mem_cmp.lto_priv.26+0x1c>
 8002a86:	1c46      	adds	r6, r0, #1
 8002a88:	7803      	ldrb	r3, [r0, #0]
 8002a8a:	1c4d      	adds	r5, r1, #1
 8002a8c:	7808      	ldrb	r0, [r1, #0]
 8002a8e:	4622      	mov	r2, r4
 8002a90:	1a1b      	subs	r3, r3, r0
 8002a92:	d0f4      	beq.n	8002a7e <mem_cmp.lto_priv.26+0x6>
 8002a94:	4618      	mov	r0, r3
 8002a96:	bc70      	pop	{r4, r5, r6}
 8002a98:	4770      	bx	lr
 8002a9a:	bf00      	nop

08002a9c <mem_set.lto_priv.22>:
 8002a9c:	e002      	b.n	8002aa4 <mem_set.lto_priv.22+0x8>
 8002a9e:	7001      	strb	r1, [r0, #0]
 8002aa0:	461a      	mov	r2, r3
 8002aa2:	3001      	adds	r0, #1
 8002aa4:	1e53      	subs	r3, r2, #1
 8002aa6:	2a00      	cmp	r2, #0
 8002aa8:	d1f9      	bne.n	8002a9e <mem_set.lto_priv.22+0x2>
 8002aaa:	4770      	bx	lr

08002aac <dir_next.lto_priv.23>:
 8002aac:	e92d 41f0 	stmdb	sp!, {r4, r5, r6, r7, r8, lr}
 8002ab0:	88c4      	ldrh	r4, [r0, #6]
 8002ab2:	3401      	adds	r4, #1
 8002ab4:	b2a4      	uxth	r4, r4
 8002ab6:	2c00      	cmp	r4, #0
 8002ab8:	d069      	beq.n	8002b8e <dir_next.lto_priv.23+0xe2>
 8002aba:	6903      	ldr	r3, [r0, #16]
 8002abc:	2b00      	cmp	r3, #0
 8002abe:	d069      	beq.n	8002b94 <dir_next.lto_priv.23+0xe8>
 8002ac0:	460e      	mov	r6, r1
 8002ac2:	4605      	mov	r5, r0
 8002ac4:	f014 070f 	ands.w	r7, r4, #15
 8002ac8:	d158      	bne.n	8002b7c <dir_next.lto_priv.23+0xd0>
 8002aca:	3301      	adds	r3, #1
 8002acc:	6103      	str	r3, [r0, #16]
 8002ace:	68c1      	ldr	r1, [r0, #12]
 8002ad0:	b921      	cbnz	r1, 8002adc <dir_next.lto_priv.23+0x30>
 8002ad2:	6803      	ldr	r3, [r0, #0]
 8002ad4:	891b      	ldrh	r3, [r3, #8]
 8002ad6:	42a3      	cmp	r3, r4
 8002ad8:	d95f      	bls.n	8002b9a <dir_next.lto_priv.23+0xee>
 8002ada:	e04f      	b.n	8002b7c <dir_next.lto_priv.23+0xd0>
 8002adc:	6800      	ldr	r0, [r0, #0]
 8002ade:	7883      	ldrb	r3, [r0, #2]
 8002ae0:	3b01      	subs	r3, #1
 8002ae2:	ea13 1314 	ands.w	r3, r3, r4, lsr #4
 8002ae6:	d149      	bne.n	8002b7c <dir_next.lto_priv.23+0xd0>
 8002ae8:	f7ff fe78 	bl	80027dc <get_fat>
 8002aec:	4680      	mov	r8, r0
 8002aee:	2801      	cmp	r0, #1
 8002af0:	d956      	bls.n	8002ba0 <dir_next.lto_priv.23+0xf4>
 8002af2:	f1b0 3fff 	cmp.w	r0, #4294967295
 8002af6:	d056      	beq.n	8002ba6 <dir_next.lto_priv.23+0xfa>
 8002af8:	6828      	ldr	r0, [r5, #0]
 8002afa:	6983      	ldr	r3, [r0, #24]
 8002afc:	4543      	cmp	r3, r8
 8002afe:	d836      	bhi.n	8002b6e <dir_next.lto_priv.23+0xc2>
 8002b00:	2e00      	cmp	r6, #0
 8002b02:	d053      	beq.n	8002bac <dir_next.lto_priv.23+0x100>
 8002b04:	68e9      	ldr	r1, [r5, #12]
 8002b06:	f7ff ff27 	bl	8002958 <create_chain.lto_priv.16>
 8002b0a:	4680      	mov	r8, r0
 8002b0c:	2800      	cmp	r0, #0
 8002b0e:	d050      	beq.n	8002bb2 <dir_next.lto_priv.23+0x106>
 8002b10:	2801      	cmp	r0, #1
 8002b12:	d051      	beq.n	8002bb8 <dir_next.lto_priv.23+0x10c>
 8002b14:	f1b0 3fff 	cmp.w	r0, #4294967295
 8002b18:	d051      	beq.n	8002bbe <dir_next.lto_priv.23+0x112>
 8002b1a:	6828      	ldr	r0, [r5, #0]
 8002b1c:	2100      	movs	r1, #0
 8002b1e:	f7ff fd9b 	bl	8002658 <move_window.lto_priv.18>
 8002b22:	2800      	cmp	r0, #0
 8002b24:	d14e      	bne.n	8002bc4 <dir_next.lto_priv.23+0x118>
 8002b26:	6828      	ldr	r0, [r5, #0]
 8002b28:	3030      	adds	r0, #48	; 0x30
 8002b2a:	2100      	movs	r1, #0
 8002b2c:	f44f 7200 	mov.w	r2, #512	; 0x200
 8002b30:	f7ff ffb4 	bl	8002a9c <mem_set.lto_priv.22>
 8002b34:	682e      	ldr	r6, [r5, #0]
 8002b36:	4630      	mov	r0, r6
 8002b38:	4641      	mov	r1, r8
 8002b3a:	f7ff fd81 	bl	8002640 <clust2sect>
 8002b3e:	62f0      	str	r0, [r6, #44]	; 0x2c
 8002b40:	2600      	movs	r6, #0
 8002b42:	e00d      	b.n	8002b60 <dir_next.lto_priv.23+0xb4>
 8002b44:	2201      	movs	r2, #1
 8002b46:	711a      	strb	r2, [r3, #4]
 8002b48:	6828      	ldr	r0, [r5, #0]
 8002b4a:	2100      	movs	r1, #0
 8002b4c:	f7ff fd84 	bl	8002658 <move_window.lto_priv.18>
 8002b50:	2800      	cmp	r0, #0
 8002b52:	d13a      	bne.n	8002bca <dir_next.lto_priv.23+0x11e>
 8002b54:	682a      	ldr	r2, [r5, #0]
 8002b56:	6ad3      	ldr	r3, [r2, #44]	; 0x2c
 8002b58:	3301      	adds	r3, #1
 8002b5a:	62d3      	str	r3, [r2, #44]	; 0x2c
 8002b5c:	3601      	adds	r6, #1
 8002b5e:	b2f6      	uxtb	r6, r6
 8002b60:	682b      	ldr	r3, [r5, #0]
 8002b62:	789a      	ldrb	r2, [r3, #2]
 8002b64:	42b2      	cmp	r2, r6
 8002b66:	d8ed      	bhi.n	8002b44 <dir_next.lto_priv.23+0x98>
 8002b68:	6ada      	ldr	r2, [r3, #44]	; 0x2c
 8002b6a:	1b92      	subs	r2, r2, r6
 8002b6c:	62da      	str	r2, [r3, #44]	; 0x2c
 8002b6e:	f8c5 800c 	str.w	r8, [r5, #12]
 8002b72:	6828      	ldr	r0, [r5, #0]
 8002b74:	4641      	mov	r1, r8
 8002b76:	f7ff fd63 	bl	8002640 <clust2sect>
 8002b7a:	6128      	str	r0, [r5, #16]
 8002b7c:	80ec      	strh	r4, [r5, #6]
 8002b7e:	682b      	ldr	r3, [r5, #0]
 8002b80:	eb03 1347 	add.w	r3, r3, r7, lsl #5
 8002b84:	3330      	adds	r3, #48	; 0x30
 8002b86:	616b      	str	r3, [r5, #20]
 8002b88:	2000      	movs	r0, #0
 8002b8a:	e8bd 81f0 	ldmia.w	sp!, {r4, r5, r6, r7, r8, pc}
 8002b8e:	2004      	movs	r0, #4
 8002b90:	e8bd 81f0 	ldmia.w	sp!, {r4, r5, r6, r7, r8, pc}
 8002b94:	2004      	movs	r0, #4
 8002b96:	e8bd 81f0 	ldmia.w	sp!, {r4, r5, r6, r7, r8, pc}
 8002b9a:	2004      	movs	r0, #4
 8002b9c:	e8bd 81f0 	ldmia.w	sp!, {r4, r5, r6, r7, r8, pc}
 8002ba0:	2002      	movs	r0, #2
 8002ba2:	e8bd 81f0 	ldmia.w	sp!, {r4, r5, r6, r7, r8, pc}
 8002ba6:	2001      	movs	r0, #1
 8002ba8:	e8bd 81f0 	ldmia.w	sp!, {r4, r5, r6, r7, r8, pc}
 8002bac:	2004      	movs	r0, #4
 8002bae:	e8bd 81f0 	ldmia.w	sp!, {r4, r5, r6, r7, r8, pc}
 8002bb2:	2007      	movs	r0, #7
 8002bb4:	e8bd 81f0 	ldmia.w	sp!, {r4, r5, r6, r7, r8, pc}
 8002bb8:	2002      	movs	r0, #2
 8002bba:	e8bd 81f0 	ldmia.w	sp!, {r4, r5, r6, r7, r8, pc}
 8002bbe:	2001      	movs	r0, #1
 8002bc0:	e8bd 81f0 	ldmia.w	sp!, {r4, r5, r6, r7, r8, pc}
 8002bc4:	2001      	movs	r0, #1
 8002bc6:	e8bd 81f0 	ldmia.w	sp!, {r4, r5, r6, r7, r8, pc}
 8002bca:	2001      	movs	r0, #1
 8002bcc:	e8bd 81f0 	ldmia.w	sp!, {r4, r5, r6, r7, r8, pc}

08002bd0 <sync.lto_priv.17>:
 8002bd0:	b5f8      	push	{r3, r4, r5, r6, r7, lr}
 8002bd2:	4604      	mov	r4, r0
 8002bd4:	2100      	movs	r1, #0
 8002bd6:	f7ff fd3f 	bl	8002658 <move_window.lto_priv.18>
 8002bda:	4605      	mov	r5, r0
 8002bdc:	2800      	cmp	r0, #0
 8002bde:	d151      	bne.n	8002c84 <sync.lto_priv.17+0xb4>
 8002be0:	7823      	ldrb	r3, [r4, #0]
 8002be2:	2b03      	cmp	r3, #3
 8002be4:	d147      	bne.n	8002c76 <sync.lto_priv.17+0xa6>
 8002be6:	7963      	ldrb	r3, [r4, #5]
 8002be8:	2b00      	cmp	r3, #0
 8002bea:	d044      	beq.n	8002c76 <sync.lto_priv.17+0xa6>
 8002bec:	2600      	movs	r6, #0
 8002bee:	62e6      	str	r6, [r4, #44]	; 0x2c
 8002bf0:	f104 0730 	add.w	r7, r4, #48	; 0x30
 8002bf4:	4638      	mov	r0, r7
 8002bf6:	4631      	mov	r1, r6
 8002bf8:	f44f 7200 	mov.w	r2, #512	; 0x200
 8002bfc:	f7ff ff4e 	bl	8002a9c <mem_set.lto_priv.22>
 8002c00:	2355      	movs	r3, #85	; 0x55
 8002c02:	f884 322e 	strb.w	r3, [r4, #558]	; 0x22e
 8002c06:	23aa      	movs	r3, #170	; 0xaa
 8002c08:	f884 322f 	strb.w	r3, [r4, #559]	; 0x22f
 8002c0c:	2352      	movs	r3, #82	; 0x52
 8002c0e:	f884 3030 	strb.w	r3, [r4, #48]	; 0x30
 8002c12:	f884 3031 	strb.w	r3, [r4, #49]	; 0x31
 8002c16:	2361      	movs	r3, #97	; 0x61
 8002c18:	f884 3032 	strb.w	r3, [r4, #50]	; 0x32
 8002c1c:	2241      	movs	r2, #65	; 0x41
 8002c1e:	f884 2033 	strb.w	r2, [r4, #51]	; 0x33
 8002c22:	2172      	movs	r1, #114	; 0x72
 8002c24:	f884 1214 	strb.w	r1, [r4, #532]	; 0x214
 8002c28:	f884 1215 	strb.w	r1, [r4, #533]	; 0x215
 8002c2c:	f884 2216 	strb.w	r2, [r4, #534]	; 0x216
 8002c30:	f884 3217 	strb.w	r3, [r4, #535]	; 0x217
 8002c34:	6923      	ldr	r3, [r4, #16]
 8002c36:	f884 3218 	strb.w	r3, [r4, #536]	; 0x218
 8002c3a:	f3c3 2207 	ubfx	r2, r3, #8, #8
 8002c3e:	f884 2219 	strb.w	r2, [r4, #537]	; 0x219
 8002c42:	0c1a      	lsrs	r2, r3, #16
 8002c44:	f884 221a 	strb.w	r2, [r4, #538]	; 0x21a
 8002c48:	0e1b      	lsrs	r3, r3, #24
 8002c4a:	f884 321b 	strb.w	r3, [r4, #539]	; 0x21b
 8002c4e:	68e3      	ldr	r3, [r4, #12]
 8002c50:	f884 321c 	strb.w	r3, [r4, #540]	; 0x21c
 8002c54:	f3c3 2207 	ubfx	r2, r3, #8, #8
 8002c58:	f884 221d 	strb.w	r2, [r4, #541]	; 0x21d
 8002c5c:	0c1a      	lsrs	r2, r3, #16
 8002c5e:	f884 221e 	strb.w	r2, [r4, #542]	; 0x21e
 8002c62:	0e1b      	lsrs	r3, r3, #24
 8002c64:	f884 321f 	strb.w	r3, [r4, #543]	; 0x21f
 8002c68:	7860      	ldrb	r0, [r4, #1]
 8002c6a:	4639      	mov	r1, r7
 8002c6c:	6962      	ldr	r2, [r4, #20]
 8002c6e:	2301      	movs	r3, #1
 8002c70:	f000 ffb2 	bl	8003bd8 <disk_write>
 8002c74:	7166      	strb	r6, [r4, #5]
 8002c76:	7860      	ldrb	r0, [r4, #1]
 8002c78:	2100      	movs	r1, #0
 8002c7a:	460a      	mov	r2, r1
 8002c7c:	f001 f8e4 	bl	8003e48 <disk_ioctl>
 8002c80:	b100      	cbz	r0, 8002c84 <sync.lto_priv.17+0xb4>
 8002c82:	2501      	movs	r5, #1
 8002c84:	4628      	mov	r0, r5
 8002c86:	bdf8      	pop	{r3, r4, r5, r6, r7, pc}

08002c88 <mem_cpy.lto_priv.19>:
 8002c88:	e004      	b.n	8002c94 <mem_cpy.lto_priv.19+0xc>
 8002c8a:	780a      	ldrb	r2, [r1, #0]
 8002c8c:	7002      	strb	r2, [r0, #0]
 8002c8e:	461a      	mov	r2, r3
 8002c90:	3101      	adds	r1, #1
 8002c92:	3001      	adds	r0, #1
 8002c94:	1e53      	subs	r3, r2, #1
 8002c96:	2a00      	cmp	r2, #0
 8002c98:	d1f7      	bne.n	8002c8a <mem_cpy.lto_priv.19+0x2>
 8002c9a:	4770      	bx	lr

08002c9c <gen_numname>:
 8002c9c:	b570      	push	{r4, r5, r6, lr}
 8002c9e:	b082      	sub	sp, #8
 8002ca0:	4605      	mov	r5, r0
 8002ca2:	4616      	mov	r6, r2
 8002ca4:	461c      	mov	r4, r3
 8002ca6:	220b      	movs	r2, #11
 8002ca8:	f7ff ffee 	bl	8002c88 <mem_cpy.lto_priv.19>
 8002cac:	2c05      	cmp	r4, #5
 8002cae:	d909      	bls.n	8002cc4 <gen_numname+0x28>
 8002cb0:	03e3      	lsls	r3, r4, #15
 8002cb2:	ea43 0454 	orr.w	r4, r3, r4, lsr #1
 8002cb6:	8833      	ldrh	r3, [r6, #0]
 8002cb8:	441c      	add	r4, r3
 8002cba:	b2a4      	uxth	r4, r4
 8002cbc:	8873      	ldrh	r3, [r6, #2]
 8002cbe:	3602      	adds	r6, #2
 8002cc0:	2b00      	cmp	r3, #0
 8002cc2:	d1f5      	bne.n	8002cb0 <gen_numname+0x14>
 8002cc4:	2307      	movs	r3, #7
 8002cc6:	e000      	b.n	8002cca <gen_numname+0x2e>
 8002cc8:	4613      	mov	r3, r2
 8002cca:	f004 020f 	and.w	r2, r4, #15
 8002cce:	f102 0130 	add.w	r1, r2, #48	; 0x30
 8002cd2:	2939      	cmp	r1, #57	; 0x39
 8002cd4:	d901      	bls.n	8002cda <gen_numname+0x3e>
 8002cd6:	f102 0137 	add.w	r1, r2, #55	; 0x37
 8002cda:	1e5a      	subs	r2, r3, #1
 8002cdc:	a802      	add	r0, sp, #8
 8002cde:	4403      	add	r3, r0
 8002ce0:	f803 1c08 	strb.w	r1, [r3, #-8]
 8002ce4:	0924      	lsrs	r4, r4, #4
 8002ce6:	d1ef      	bne.n	8002cc8 <gen_numname+0x2c>
 8002ce8:	217e      	movs	r1, #126	; 0x7e
 8002cea:	4603      	mov	r3, r0
 8002cec:	4413      	add	r3, r2
 8002cee:	f803 1c08 	strb.w	r1, [r3, #-8]
 8002cf2:	2300      	movs	r3, #0
 8002cf4:	e000      	b.n	8002cf8 <gen_numname+0x5c>
 8002cf6:	3301      	adds	r3, #1
 8002cf8:	4293      	cmp	r3, r2
 8002cfa:	d202      	bcs.n	8002d02 <gen_numname+0x66>
 8002cfc:	5ce9      	ldrb	r1, [r5, r3]
 8002cfe:	2920      	cmp	r1, #32
 8002d00:	d1f9      	bne.n	8002cf6 <gen_numname+0x5a>
 8002d02:	1c59      	adds	r1, r3, #1
 8002d04:	442b      	add	r3, r5
 8002d06:	2a07      	cmp	r2, #7
 8002d08:	d805      	bhi.n	8002d16 <gen_numname+0x7a>
 8002d0a:	a802      	add	r0, sp, #8
 8002d0c:	4410      	add	r0, r2
 8002d0e:	f810 0c08 	ldrb.w	r0, [r0, #-8]
 8002d12:	3201      	adds	r2, #1
 8002d14:	e000      	b.n	8002d18 <gen_numname+0x7c>
 8002d16:	2020      	movs	r0, #32
 8002d18:	7018      	strb	r0, [r3, #0]
 8002d1a:	460b      	mov	r3, r1
 8002d1c:	2907      	cmp	r1, #7
 8002d1e:	d9f0      	bls.n	8002d02 <gen_numname+0x66>
 8002d20:	b002      	add	sp, #8
 8002d22:	bd70      	pop	{r4, r5, r6, pc}

08002d24 <get_fattime>:
 8002d24:	b500      	push	{lr}
 8002d26:	b085      	sub	sp, #20
 8002d28:	a801      	add	r0, sp, #4
 8002d2a:	f002 fde3 	bl	80058f4 <rtc_gettime>
 8002d2e:	f8bd 3004 	ldrh.w	r3, [sp, #4]
 8002d32:	f2a3 70bc 	subw	r0, r3, #1980	; 0x7bc
 8002d36:	f89d 3006 	ldrb.w	r3, [sp, #6]
 8002d3a:	055b      	lsls	r3, r3, #21
 8002d3c:	ea43 6340 	orr.w	r3, r3, r0, lsl #25
 8002d40:	f89d 0007 	ldrb.w	r0, [sp, #7]
 8002d44:	ea43 4300 	orr.w	r3, r3, r0, lsl #16
 8002d48:	f89d 2009 	ldrb.w	r2, [sp, #9]
 8002d4c:	02d2      	lsls	r2, r2, #11
 8002d4e:	b292      	uxth	r2, r2
 8002d50:	4313      	orrs	r3, r2
 8002d52:	f89d 000a 	ldrb.w	r0, [sp, #10]
 8002d56:	ea43 1340 	orr.w	r3, r3, r0, lsl #5
 8002d5a:	f89d 000b 	ldrb.w	r0, [sp, #11]
 8002d5e:	ea43 0050 	orr.w	r0, r3, r0, lsr #1
 8002d62:	b005      	add	sp, #20
 8002d64:	f85d fb04 	ldr.w	pc, [sp], #4

08002d68 <ff_convert>:
 8002d68:	287f      	cmp	r0, #127	; 0x7f
 8002d6a:	d919      	bls.n	8002da0 <ff_convert+0x38>
 8002d6c:	b199      	cbz	r1, 8002d96 <ff_convert+0x2e>
 8002d6e:	28ff      	cmp	r0, #255	; 0xff
 8002d70:	d805      	bhi.n	8002d7e <ff_convert+0x16>
 8002d72:	4b0c      	ldr	r3, [pc, #48]	; (8002da4 <ff_convert+0x3c>)
 8002d74:	eb03 0340 	add.w	r3, r3, r0, lsl #1
 8002d78:	f8b3 02d0 	ldrh.w	r0, [r3, #720]	; 0x2d0
 8002d7c:	4770      	bx	lr
 8002d7e:	2000      	movs	r0, #0
 8002d80:	4770      	bx	lr
 8002d82:	4a08      	ldr	r2, [pc, #32]	; (8002da4 <ff_convert+0x3c>)
 8002d84:	eb02 0243 	add.w	r2, r2, r3, lsl #1
 8002d88:	f8b2 23d0 	ldrh.w	r2, [r2, #976]	; 0x3d0
 8002d8c:	4282      	cmp	r2, r0
 8002d8e:	d005      	beq.n	8002d9c <ff_convert+0x34>
 8002d90:	3301      	adds	r3, #1
 8002d92:	b29b      	uxth	r3, r3
 8002d94:	e000      	b.n	8002d98 <ff_convert+0x30>
 8002d96:	2300      	movs	r3, #0
 8002d98:	2b7f      	cmp	r3, #127	; 0x7f
 8002d9a:	d9f2      	bls.n	8002d82 <ff_convert+0x1a>
 8002d9c:	3380      	adds	r3, #128	; 0x80
 8002d9e:	b2d8      	uxtb	r0, r3
 8002da0:	4770      	bx	lr
 8002da2:	bf00      	nop
 8002da4:	0800b5cc 	stmdaeq	r0, {r2, r3, r6, r7, r8, sl, ip, sp, pc}

08002da8 <Delay>:
 8002da8:	b082      	sub	sp, #8
 8002daa:	9001      	str	r0, [sp, #4]
 8002dac:	9b01      	ldr	r3, [sp, #4]
 8002dae:	eb03 0383 	add.w	r3, r3, r3, lsl #2
 8002db2:	9301      	str	r3, [sp, #4]
 8002db4:	e002      	b.n	8002dbc <Delay+0x14>
 8002db6:	9b01      	ldr	r3, [sp, #4]
 8002db8:	3b01      	subs	r3, #1
 8002dba:	9301      	str	r3, [sp, #4]
 8002dbc:	9b01      	ldr	r3, [sp, #4]
 8002dbe:	2b00      	cmp	r3, #0
 8002dc0:	d1f9      	bne.n	8002db6 <Delay+0xe>
 8002dc2:	b002      	add	sp, #8
 8002dc4:	4770      	bx	lr
 8002dc6:	bf00      	nop

08002dc8 <string_CRC16_checksum>:
 8002dc8:	b570      	push	{r4, r5, r6, lr}
 8002dca:	4606      	mov	r6, r0
 8002dcc:	f64f 75ff 	movw	r5, #65535	; 0xffff
 8002dd0:	2402      	movs	r4, #2
 8002dd2:	e006      	b.n	8002de2 <string_CRC16_checksum+0x1a>
 8002dd4:	4628      	mov	r0, r5
 8002dd6:	5d31      	ldrb	r1, [r6, r4]
 8002dd8:	f7ff fb90 	bl	80024fc <crc_xmodem_update>
 8002ddc:	4605      	mov	r5, r0
 8002dde:	3401      	adds	r4, #1
 8002de0:	b2a4      	uxth	r4, r4
 8002de2:	4630      	mov	r0, r6
 8002de4:	f006 fb2a 	bl	800943c <strlen>
 8002de8:	4284      	cmp	r4, r0
 8002dea:	d3f3      	bcc.n	8002dd4 <string_CRC16_checksum+0xc>
 8002dec:	4628      	mov	r0, r5
 8002dee:	bd70      	pop	{r4, r5, r6, pc}

08002df0 <init_buffer>:
 8002df0:	b538      	push	{r3, r4, r5, lr}
 8002df2:	4604      	mov	r4, r0
 8002df4:	460d      	mov	r5, r1
 8002df6:	0088      	lsls	r0, r1, #2
 8002df8:	f005 ffe8 	bl	8008dcc <malloc>
 8002dfc:	60a0      	str	r0, [r4, #8]
 8002dfe:	80a5      	strh	r5, [r4, #4]
 8002e00:	bd38      	pop	{r3, r4, r5, pc}
 8002e02:	bf00      	nop

08002e04 <Empty_Buffer>:
 8002e04:	8803      	ldrh	r3, [r0, #0]
 8002e06:	b29b      	uxth	r3, r3
 8002e08:	8043      	strh	r3, [r0, #2]
 8002e0a:	4770      	bx	lr

08002e0c <Pop_From_Buffer>:
 8002e0c:	b410      	push	{r4}
 8002e0e:	4602      	mov	r2, r0
 8002e10:	6881      	ldr	r1, [r0, #8]
 8002e12:	8843      	ldrh	r3, [r0, #2]
 8002e14:	f851 0023 	ldr.w	r0, [r1, r3, lsl #2]
 8002e18:	3301      	adds	r3, #1
 8002e1a:	8894      	ldrh	r4, [r2, #4]
 8002e1c:	fb93 f1f4 	sdiv	r1, r3, r4
 8002e20:	fb04 3311 	mls	r3, r4, r1, r3
 8002e24:	8053      	strh	r3, [r2, #2]
 8002e26:	f85d 4b04 	ldr.w	r4, [sp], #4
 8002e2a:	4770      	bx	lr

08002e2c <Get_From_Buffer>:
 8002e2c:	884a      	ldrh	r2, [r1, #2]
 8002e2e:	b292      	uxth	r2, r2
 8002e30:	880b      	ldrh	r3, [r1, #0]
 8002e32:	b29b      	uxth	r3, r3
 8002e34:	429a      	cmp	r2, r3
 8002e36:	d103      	bne.n	8002e40 <Get_From_Buffer+0x14>
 8002e38:	2300      	movs	r3, #0
 8002e3a:	6003      	str	r3, [r0, #0]
 8002e3c:	2001      	movs	r0, #1
 8002e3e:	4770      	bx	lr
 8002e40:	688a      	ldr	r2, [r1, #8]
 8002e42:	884b      	ldrh	r3, [r1, #2]
 8002e44:	b29b      	uxth	r3, r3
 8002e46:	f852 3023 	ldr.w	r3, [r2, r3, lsl #2]
 8002e4a:	6003      	str	r3, [r0, #0]
 8002e4c:	884b      	ldrh	r3, [r1, #2]
 8002e4e:	3301      	adds	r3, #1
 8002e50:	b29b      	uxth	r3, r3
 8002e52:	804b      	strh	r3, [r1, #2]
 8002e54:	888b      	ldrh	r3, [r1, #4]
 8002e56:	b298      	uxth	r0, r3
 8002e58:	884b      	ldrh	r3, [r1, #2]
 8002e5a:	b29b      	uxth	r3, r3
 8002e5c:	fbb3 f2f0 	udiv	r2, r3, r0
 8002e60:	fb00 3312 	mls	r3, r0, r2, r3
 8002e64:	b29b      	uxth	r3, r3
 8002e66:	804b      	strh	r3, [r1, #2]
 8002e68:	2000      	movs	r0, #0
 8002e6a:	4770      	bx	lr

08002e6c <Add_To_Buffer>:
 8002e6c:	b410      	push	{r4}
 8002e6e:	688c      	ldr	r4, [r1, #8]
 8002e70:	880b      	ldrh	r3, [r1, #0]
 8002e72:	b29b      	uxth	r3, r3
 8002e74:	1c5a      	adds	r2, r3, #1
 8002e76:	b292      	uxth	r2, r2
 8002e78:	800a      	strh	r2, [r1, #0]
 8002e7a:	f844 0023 	str.w	r0, [r4, r3, lsl #2]
 8002e7e:	888b      	ldrh	r3, [r1, #4]
 8002e80:	b298      	uxth	r0, r3
 8002e82:	880b      	ldrh	r3, [r1, #0]
 8002e84:	b29b      	uxth	r3, r3
 8002e86:	fbb3 f2f0 	udiv	r2, r3, r0
 8002e8a:	fb00 3312 	mls	r3, r0, r2, r3
 8002e8e:	b29b      	uxth	r3, r3
 8002e90:	800b      	strh	r3, [r1, #0]
 8002e92:	880a      	ldrh	r2, [r1, #0]
 8002e94:	b292      	uxth	r2, r2
 8002e96:	884b      	ldrh	r3, [r1, #2]
 8002e98:	b29b      	uxth	r3, r3
 8002e9a:	429a      	cmp	r2, r3
 8002e9c:	d10a      	bne.n	8002eb4 <Add_To_Buffer+0x48>
 8002e9e:	884b      	ldrh	r3, [r1, #2]
 8002ea0:	b29b      	uxth	r3, r3
 8002ea2:	3301      	adds	r3, #1
 8002ea4:	8888      	ldrh	r0, [r1, #4]
 8002ea6:	b280      	uxth	r0, r0
 8002ea8:	fb93 f2f0 	sdiv	r2, r3, r0
 8002eac:	fb00 3312 	mls	r3, r0, r2, r3
 8002eb0:	b29b      	uxth	r3, r3
 8002eb2:	804b      	strh	r3, [r1, #2]
 8002eb4:	f85d 4b04 	ldr.w	r4, [sp], #4
 8002eb8:	4770      	bx	lr
 8002eba:	bf00      	nop

08002ebc <SCSI_Format_Cmd>:
 8002ebc:	b508      	push	{r3, lr}
 8002ebe:	f003 fecb 	bl	8006c58 <MAL_GetStatus>
 8002ec2:	b118      	cbz	r0, 8002ecc <SCSI_Format_Cmd+0x10>
 8002ec4:	2000      	movs	r0, #0
 8002ec6:	2101      	movs	r1, #1
 8002ec8:	f003 fbf4 	bl	80066b4 <Set_CSW>
 8002ecc:	bd08      	pop	{r3, pc}
 8002ece:	bf00      	nop

08002ed0 <SCSI_Start_Stop_Unit_Cmd>:
 8002ed0:	b508      	push	{r3, lr}
 8002ed2:	2000      	movs	r0, #0
 8002ed4:	2101      	movs	r1, #1
 8002ed6:	f003 fbed 	bl	80066b4 <Set_CSW>
 8002eda:	bd08      	pop	{r3, pc}

08002edc <Set_Scsi_Sense_Data>:
 8002edc:	4b01      	ldr	r3, [pc, #4]	; (8002ee4 <Set_Scsi_Sense_Data+0x8>)
 8002ede:	7099      	strb	r1, [r3, #2]
 8002ee0:	731a      	strb	r2, [r3, #12]
 8002ee2:	4770      	bx	lr
 8002ee4:	20000008 	andcs	r0, r0, r8

08002ee8 <SCSI_Address_Management>:
 8002ee8:	b510      	push	{r4, lr}
 8002eea:	4604      	mov	r4, r0
 8002eec:	441a      	add	r2, r3
 8002eee:	481c      	ldr	r0, [pc, #112]	; (8002f60 <SCSI_Address_Management+0x78>)
 8002ef0:	f850 0024 	ldr.w	r0, [r0, r4, lsl #2]
 8002ef4:	4282      	cmp	r2, r0
 8002ef6:	d912      	bls.n	8002f1e <SCSI_Address_Management+0x36>
 8002ef8:	292a      	cmp	r1, #42	; 0x2a
 8002efa:	d102      	bne.n	8002f02 <SCSI_Address_Management+0x1a>
 8002efc:	2002      	movs	r0, #2
 8002efe:	f003 fbaf 	bl	8006660 <Bot_Abort>
 8002f02:	2000      	movs	r0, #0
 8002f04:	f003 fbac 	bl	8006660 <Bot_Abort>
 8002f08:	4620      	mov	r0, r4
 8002f0a:	2105      	movs	r1, #5
 8002f0c:	2221      	movs	r2, #33	; 0x21
 8002f0e:	f7ff ffe5 	bl	8002edc <Set_Scsi_Sense_Data>
 8002f12:	2001      	movs	r0, #1
 8002f14:	2100      	movs	r1, #0
 8002f16:	f003 fbcd 	bl	80066b4 <Set_CSW>
 8002f1a:	2000      	movs	r0, #0
 8002f1c:	bd10      	pop	{r4, pc}
 8002f1e:	4a10      	ldr	r2, [pc, #64]	; (8002f60 <SCSI_Address_Management+0x78>)
 8002f20:	6910      	ldr	r0, [r2, #16]
 8002f22:	eb02 0484 	add.w	r4, r2, r4, lsl #2
 8002f26:	6aa2      	ldr	r2, [r4, #40]	; 0x28
 8002f28:	fb03 f302 	mul.w	r3, r3, r2
 8002f2c:	4298      	cmp	r0, r3
 8002f2e:	d014      	beq.n	8002f5a <SCSI_Address_Management+0x72>
 8002f30:	292a      	cmp	r1, #42	; 0x2a
 8002f32:	d103      	bne.n	8002f3c <SCSI_Address_Management+0x54>
 8002f34:	2002      	movs	r0, #2
 8002f36:	f003 fb93 	bl	8006660 <Bot_Abort>
 8002f3a:	e002      	b.n	8002f42 <SCSI_Address_Management+0x5a>
 8002f3c:	2000      	movs	r0, #0
 8002f3e:	f003 fb8f 	bl	8006660 <Bot_Abort>
 8002f42:	4b07      	ldr	r3, [pc, #28]	; (8002f60 <SCSI_Address_Management+0x78>)
 8002f44:	7d58      	ldrb	r0, [r3, #21]
 8002f46:	2105      	movs	r1, #5
 8002f48:	2224      	movs	r2, #36	; 0x24
 8002f4a:	f7ff ffc7 	bl	8002edc <Set_Scsi_Sense_Data>
 8002f4e:	2001      	movs	r0, #1
 8002f50:	2100      	movs	r1, #0
 8002f52:	f003 fbaf 	bl	80066b4 <Set_CSW>
 8002f56:	2000      	movs	r0, #0
 8002f58:	bd10      	pop	{r4, pc}
 8002f5a:	2001      	movs	r0, #1
 8002f5c:	bd10      	pop	{r4, pc}
 8002f5e:	bf00      	nop
 8002f60:	20000a40 	andcs	r0, r0, r0, asr #20

08002f64 <SCSI_Invalid_Cmd>:
 8002f64:	b508      	push	{r3, lr}
 8002f66:	4b0f      	ldr	r3, [pc, #60]	; (8002fa4 <SCSI_Invalid_Cmd+0x40>)
 8002f68:	691b      	ldr	r3, [r3, #16]
 8002f6a:	b91b      	cbnz	r3, 8002f74 <SCSI_Invalid_Cmd+0x10>
 8002f6c:	2000      	movs	r0, #0
 8002f6e:	f003 fb77 	bl	8006660 <Bot_Abort>
 8002f72:	e00b      	b.n	8002f8c <SCSI_Invalid_Cmd+0x28>
 8002f74:	4b0b      	ldr	r3, [pc, #44]	; (8002fa4 <SCSI_Invalid_Cmd+0x40>)
 8002f76:	f993 3014 	ldrsb.w	r3, [r3, #20]
 8002f7a:	2b00      	cmp	r3, #0
 8002f7c:	da03      	bge.n	8002f86 <SCSI_Invalid_Cmd+0x22>
 8002f7e:	2000      	movs	r0, #0
 8002f80:	f003 fb6e 	bl	8006660 <Bot_Abort>
 8002f84:	e002      	b.n	8002f8c <SCSI_Invalid_Cmd+0x28>
 8002f86:	2002      	movs	r0, #2
 8002f88:	f003 fb6a 	bl	8006660 <Bot_Abort>
 8002f8c:	4b05      	ldr	r3, [pc, #20]	; (8002fa4 <SCSI_Invalid_Cmd+0x40>)
 8002f8e:	7d58      	ldrb	r0, [r3, #21]
 8002f90:	2105      	movs	r1, #5
 8002f92:	2220      	movs	r2, #32
 8002f94:	f7ff ffa2 	bl	8002edc <Set_Scsi_Sense_Data>
 8002f98:	2001      	movs	r0, #1
 8002f9a:	2100      	movs	r1, #0
 8002f9c:	f003 fb8a 	bl	80066b4 <Set_CSW>
 8002fa0:	bd08      	pop	{r3, pc}
 8002fa2:	bf00      	nop
 8002fa4:	20000a40 	andcs	r0, r0, r0, asr #20

08002fa8 <SCSI_TestUnitReady_Cmd>:
 8002fa8:	b508      	push	{r3, lr}
 8002faa:	f003 fe55 	bl	8006c58 <MAL_GetStatus>
 8002fae:	b168      	cbz	r0, 8002fcc <SCSI_TestUnitReady_Cmd+0x24>
 8002fb0:	4b09      	ldr	r3, [pc, #36]	; (8002fd8 <SCSI_TestUnitReady_Cmd+0x30>)
 8002fb2:	7d58      	ldrb	r0, [r3, #21]
 8002fb4:	2102      	movs	r1, #2
 8002fb6:	223a      	movs	r2, #58	; 0x3a
 8002fb8:	f7ff ff90 	bl	8002edc <Set_Scsi_Sense_Data>
 8002fbc:	2001      	movs	r0, #1
 8002fbe:	4601      	mov	r1, r0
 8002fc0:	f003 fb78 	bl	80066b4 <Set_CSW>
 8002fc4:	2000      	movs	r0, #0
 8002fc6:	f003 fb4b 	bl	8006660 <Bot_Abort>
 8002fca:	bd08      	pop	{r3, pc}
 8002fcc:	2000      	movs	r0, #0
 8002fce:	2101      	movs	r1, #1
 8002fd0:	f003 fb70 	bl	80066b4 <Set_CSW>
 8002fd4:	bd08      	pop	{r3, pc}
 8002fd6:	bf00      	nop
 8002fd8:	20000a40 	andcs	r0, r0, r0, asr #20

08002fdc <SCSI_Verify10_Cmd>:
 8002fdc:	b508      	push	{r3, lr}
 8002fde:	4b0d      	ldr	r3, [pc, #52]	; (8003014 <SCSI_Verify10_Cmd+0x38>)
 8002fe0:	691b      	ldr	r3, [r3, #16]
 8002fe2:	b94b      	cbnz	r3, 8002ff8 <SCSI_Verify10_Cmd+0x1c>
 8002fe4:	4b0b      	ldr	r3, [pc, #44]	; (8003014 <SCSI_Verify10_Cmd+0x38>)
 8002fe6:	7e1b      	ldrb	r3, [r3, #24]
 8002fe8:	f013 0f04 	tst.w	r3, #4
 8002fec:	d104      	bne.n	8002ff8 <SCSI_Verify10_Cmd+0x1c>
 8002fee:	2000      	movs	r0, #0
 8002ff0:	2101      	movs	r1, #1
 8002ff2:	f003 fb5f 	bl	80066b4 <Set_CSW>
 8002ff6:	bd08      	pop	{r3, pc}
 8002ff8:	2002      	movs	r0, #2
 8002ffa:	f003 fb31 	bl	8006660 <Bot_Abort>
 8002ffe:	4b05      	ldr	r3, [pc, #20]	; (8003014 <SCSI_Verify10_Cmd+0x38>)
 8003000:	7d58      	ldrb	r0, [r3, #21]
 8003002:	2105      	movs	r1, #5
 8003004:	2224      	movs	r2, #36	; 0x24
 8003006:	f7ff ff69 	bl	8002edc <Set_Scsi_Sense_Data>
 800300a:	2001      	movs	r0, #1
 800300c:	2100      	movs	r1, #0
 800300e:	f003 fb51 	bl	80066b4 <Set_CSW>
 8003012:	bd08      	pop	{r3, pc}
 8003014:	20000a40 	andcs	r0, r0, r0, asr #20

08003018 <SCSI_Write10_Cmd>:
 8003018:	b510      	push	{r4, lr}
 800301a:	460c      	mov	r4, r1
 800301c:	4613      	mov	r3, r2
 800301e:	4a17      	ldr	r2, [pc, #92]	; (800307c <SCSI_Write10_Cmd+0x64>)
 8003020:	f892 2030 	ldrb.w	r2, [r2, #48]	; 0x30
 8003024:	bb1a      	cbnz	r2, 800306e <SCSI_Write10_Cmd+0x56>
 8003026:	4a15      	ldr	r2, [pc, #84]	; (800307c <SCSI_Write10_Cmd+0x64>)
 8003028:	7d50      	ldrb	r0, [r2, #21]
 800302a:	212a      	movs	r1, #42	; 0x2a
 800302c:	4622      	mov	r2, r4
 800302e:	f7ff ff5b 	bl	8002ee8 <SCSI_Address_Management>
 8003032:	b308      	cbz	r0, 8003078 <SCSI_Write10_Cmd+0x60>
 8003034:	4b11      	ldr	r3, [pc, #68]	; (800307c <SCSI_Write10_Cmd+0x64>)
 8003036:	f993 3014 	ldrsb.w	r3, [r3, #20]
 800303a:	2b00      	cmp	r3, #0
 800303c:	db09      	blt.n	8003052 <SCSI_Write10_Cmd+0x3a>
 800303e:	2201      	movs	r2, #1
 8003040:	4b0e      	ldr	r3, [pc, #56]	; (800307c <SCSI_Write10_Cmd+0x64>)
 8003042:	f883 2030 	strb.w	r2, [r3, #48]	; 0x30
 8003046:	2002      	movs	r0, #2
 8003048:	f44f 5140 	mov.w	r1, #12288	; 0x3000
 800304c:	f008 f92b 	bl	800b2a6 <SetEPRxStatus>
 8003050:	bd10      	pop	{r4, pc}
 8003052:	2000      	movs	r0, #0
 8003054:	f003 fb04 	bl	8006660 <Bot_Abort>
 8003058:	4b08      	ldr	r3, [pc, #32]	; (800307c <SCSI_Write10_Cmd+0x64>)
 800305a:	7d58      	ldrb	r0, [r3, #21]
 800305c:	2105      	movs	r1, #5
 800305e:	2224      	movs	r2, #36	; 0x24
 8003060:	f7ff ff3c 	bl	8002edc <Set_Scsi_Sense_Data>
 8003064:	2001      	movs	r0, #1
 8003066:	2100      	movs	r1, #0
 8003068:	f003 fb24 	bl	80066b4 <Set_CSW>
 800306c:	bd10      	pop	{r4, pc}
 800306e:	2a01      	cmp	r2, #1
 8003070:	d102      	bne.n	8003078 <SCSI_Write10_Cmd+0x60>
 8003072:	461a      	mov	r2, r3
 8003074:	f003 fd00 	bl	8006a78 <Write_Memory>
 8003078:	bd10      	pop	{r4, pc}
 800307a:	bf00      	nop
 800307c:	20000a40 	andcs	r0, r0, r0, asr #20

08003080 <SCSI_Read10_Cmd>:
 8003080:	b570      	push	{r4, r5, r6, lr}
 8003082:	4606      	mov	r6, r0
 8003084:	460d      	mov	r5, r1
 8003086:	4614      	mov	r4, r2
 8003088:	4b16      	ldr	r3, [pc, #88]	; (80030e4 <SCSI_Read10_Cmd+0x64>)
 800308a:	f893 3030 	ldrb.w	r3, [r3, #48]	; 0x30
 800308e:	bb23      	cbnz	r3, 80030da <SCSI_Read10_Cmd+0x5a>
 8003090:	4b14      	ldr	r3, [pc, #80]	; (80030e4 <SCSI_Read10_Cmd+0x64>)
 8003092:	7d58      	ldrb	r0, [r3, #21]
 8003094:	2128      	movs	r1, #40	; 0x28
 8003096:	462a      	mov	r2, r5
 8003098:	4623      	mov	r3, r4
 800309a:	f7ff ff25 	bl	8002ee8 <SCSI_Address_Management>
 800309e:	b300      	cbz	r0, 80030e2 <SCSI_Read10_Cmd+0x62>
 80030a0:	4b10      	ldr	r3, [pc, #64]	; (80030e4 <SCSI_Read10_Cmd+0x64>)
 80030a2:	f993 3014 	ldrsb.w	r3, [r3, #20]
 80030a6:	2b00      	cmp	r3, #0
 80030a8:	da09      	bge.n	80030be <SCSI_Read10_Cmd+0x3e>
 80030aa:	2202      	movs	r2, #2
 80030ac:	4b0d      	ldr	r3, [pc, #52]	; (80030e4 <SCSI_Read10_Cmd+0x64>)
 80030ae:	f883 2030 	strb.w	r2, [r3, #48]	; 0x30
 80030b2:	4630      	mov	r0, r6
 80030b4:	4629      	mov	r1, r5
 80030b6:	4622      	mov	r2, r4
 80030b8:	f003 fd46 	bl	8006b48 <Read_Memory>
 80030bc:	bd70      	pop	{r4, r5, r6, pc}
 80030be:	2002      	movs	r0, #2
 80030c0:	f003 face 	bl	8006660 <Bot_Abort>
 80030c4:	4b07      	ldr	r3, [pc, #28]	; (80030e4 <SCSI_Read10_Cmd+0x64>)
 80030c6:	7d58      	ldrb	r0, [r3, #21]
 80030c8:	2105      	movs	r1, #5
 80030ca:	2224      	movs	r2, #36	; 0x24
 80030cc:	f7ff ff06 	bl	8002edc <Set_Scsi_Sense_Data>
 80030d0:	2001      	movs	r0, #1
 80030d2:	4601      	mov	r1, r0
 80030d4:	f003 faee 	bl	80066b4 <Set_CSW>
 80030d8:	bd70      	pop	{r4, r5, r6, pc}
 80030da:	2b02      	cmp	r3, #2
 80030dc:	d101      	bne.n	80030e2 <SCSI_Read10_Cmd+0x62>
 80030de:	f003 fd33 	bl	8006b48 <Read_Memory>
 80030e2:	bd70      	pop	{r4, r5, r6, pc}
 80030e4:	20000a40 	andcs	r0, r0, r0, asr #20

080030e8 <SCSI_RequestSense_Cmd>:
 80030e8:	b508      	push	{r3, lr}
 80030ea:	4b04      	ldr	r3, [pc, #16]	; (80030fc <SCSI_RequestSense_Cmd+0x14>)
 80030ec:	7ed9      	ldrb	r1, [r3, #27]
 80030ee:	2912      	cmp	r1, #18
 80030f0:	d900      	bls.n	80030f4 <SCSI_RequestSense_Cmd+0xc>
 80030f2:	2112      	movs	r1, #18
 80030f4:	4802      	ldr	r0, [pc, #8]	; (8003100 <SCSI_RequestSense_Cmd+0x18>)
 80030f6:	f003 fca5 	bl	8006a44 <Transfer_Data_Request>
 80030fa:	bd08      	pop	{r3, pc}
 80030fc:	20000a40 	andcs	r0, r0, r0, asr #20
 8003100:	20000008 	andcs	r0, r0, r8

08003104 <SCSI_ModeSense10_Cmd>:
 8003104:	b508      	push	{r3, lr}
 8003106:	4802      	ldr	r0, [pc, #8]	; (8003110 <SCSI_ModeSense10_Cmd+0xc>)
 8003108:	2108      	movs	r1, #8
 800310a:	f003 fc9b 	bl	8006a44 <Transfer_Data_Request>
 800310e:	bd08      	pop	{r3, pc}
 8003110:	2000001c 	andcs	r0, r0, ip, lsl r0

08003114 <SCSI_ModeSense6_Cmd>:
 8003114:	b508      	push	{r3, lr}
 8003116:	4802      	ldr	r0, [pc, #8]	; (8003120 <SCSI_ModeSense6_Cmd+0xc>)
 8003118:	2104      	movs	r1, #4
 800311a:	f003 fc93 	bl	8006a44 <Transfer_Data_Request>
 800311e:	bd08      	pop	{r3, pc}
 8003120:	20000024 	andcs	r0, r0, r4, lsr #32

08003124 <SCSI_ReadCapacity10_Cmd>:
 8003124:	b510      	push	{r4, lr}
 8003126:	4604      	mov	r4, r0
 8003128:	f003 fd96 	bl	8006c58 <MAL_GetStatus>
 800312c:	b168      	cbz	r0, 800314a <SCSI_ReadCapacity10_Cmd+0x26>
 800312e:	4b1a      	ldr	r3, [pc, #104]	; (8003198 <SCSI_ReadCapacity10_Cmd+0x74>)
 8003130:	7d58      	ldrb	r0, [r3, #21]
 8003132:	2102      	movs	r1, #2
 8003134:	223a      	movs	r2, #58	; 0x3a
 8003136:	f7ff fed1 	bl	8002edc <Set_Scsi_Sense_Data>
 800313a:	2001      	movs	r0, #1
 800313c:	4601      	mov	r1, r0
 800313e:	f003 fab9 	bl	80066b4 <Set_CSW>
 8003142:	2000      	movs	r0, #0
 8003144:	f003 fa8c 	bl	8006660 <Bot_Abort>
 8003148:	bd10      	pop	{r4, pc}
 800314a:	4813      	ldr	r0, [pc, #76]	; (8003198 <SCSI_ReadCapacity10_Cmd+0x74>)
 800314c:	f850 2024 	ldr.w	r2, [r0, r4, lsl #2]
 8003150:	1e53      	subs	r3, r2, #1
 8003152:	0e19      	lsrs	r1, r3, #24
 8003154:	f880 1034 	strb.w	r1, [r0, #52]	; 0x34
 8003158:	f3c3 4107 	ubfx	r1, r3, #16, #8
 800315c:	f880 1035 	strb.w	r1, [r0, #53]	; 0x35
 8003160:	f3c3 2307 	ubfx	r3, r3, #8, #8
 8003164:	f880 3036 	strb.w	r3, [r0, #54]	; 0x36
 8003168:	3a01      	subs	r2, #1
 800316a:	f880 2037 	strb.w	r2, [r0, #55]	; 0x37
 800316e:	eb00 0484 	add.w	r4, r0, r4, lsl #2
 8003172:	6aa3      	ldr	r3, [r4, #40]	; 0x28
 8003174:	0e1a      	lsrs	r2, r3, #24
 8003176:	f880 2038 	strb.w	r2, [r0, #56]	; 0x38
 800317a:	f3c3 4207 	ubfx	r2, r3, #16, #8
 800317e:	f880 2039 	strb.w	r2, [r0, #57]	; 0x39
 8003182:	f3c3 2207 	ubfx	r2, r3, #8, #8
 8003186:	f880 203a 	strb.w	r2, [r0, #58]	; 0x3a
 800318a:	f880 303b 	strb.w	r3, [r0, #59]	; 0x3b
 800318e:	3034      	adds	r0, #52	; 0x34
 8003190:	2108      	movs	r1, #8
 8003192:	f003 fc57 	bl	8006a44 <Transfer_Data_Request>
 8003196:	bd10      	pop	{r4, pc}
 8003198:	20000a40 	andcs	r0, r0, r0, asr #20

0800319c <SCSI_ReadFormatCapacity_Cmd>:
 800319c:	b510      	push	{r4, lr}
 800319e:	4604      	mov	r4, r0
 80031a0:	f003 fd5a 	bl	8006c58 <MAL_GetStatus>
 80031a4:	b168      	cbz	r0, 80031c2 <SCSI_ReadFormatCapacity_Cmd+0x26>
 80031a6:	4b18      	ldr	r3, [pc, #96]	; (8003208 <SCSI_ReadFormatCapacity_Cmd+0x6c>)
 80031a8:	7d58      	ldrb	r0, [r3, #21]
 80031aa:	2102      	movs	r1, #2
 80031ac:	223a      	movs	r2, #58	; 0x3a
 80031ae:	f7ff fe95 	bl	8002edc <Set_Scsi_Sense_Data>
 80031b2:	2001      	movs	r0, #1
 80031b4:	4601      	mov	r1, r0
 80031b6:	f003 fa7d 	bl	80066b4 <Set_CSW>
 80031ba:	2000      	movs	r0, #0
 80031bc:	f003 fa50 	bl	8006660 <Bot_Abort>
 80031c0:	bd10      	pop	{r4, pc}
 80031c2:	4b11      	ldr	r3, [pc, #68]	; (8003208 <SCSI_ReadFormatCapacity_Cmd+0x6c>)
 80031c4:	f853 2024 	ldr.w	r2, [r3, r4, lsl #2]
 80031c8:	0e11      	lsrs	r1, r2, #24
 80031ca:	4810      	ldr	r0, [pc, #64]	; (800320c <SCSI_ReadFormatCapacity_Cmd+0x70>)
 80031cc:	f880 1024 	strb.w	r1, [r0, #36]	; 0x24
 80031d0:	f3c2 4107 	ubfx	r1, r2, #16, #8
 80031d4:	f880 1025 	strb.w	r1, [r0, #37]	; 0x25
 80031d8:	f3c2 2107 	ubfx	r1, r2, #8, #8
 80031dc:	f880 1026 	strb.w	r1, [r0, #38]	; 0x26
 80031e0:	f880 2027 	strb.w	r2, [r0, #39]	; 0x27
 80031e4:	eb03 0384 	add.w	r3, r3, r4, lsl #2
 80031e8:	6a9b      	ldr	r3, [r3, #40]	; 0x28
 80031ea:	f3c3 4207 	ubfx	r2, r3, #16, #8
 80031ee:	f880 2029 	strb.w	r2, [r0, #41]	; 0x29
 80031f2:	f3c3 2207 	ubfx	r2, r3, #8, #8
 80031f6:	f880 202a 	strb.w	r2, [r0, #42]	; 0x2a
 80031fa:	f880 302b 	strb.w	r3, [r0, #43]	; 0x2b
 80031fe:	3020      	adds	r0, #32
 8003200:	210c      	movs	r1, #12
 8003202:	f003 fc1f 	bl	8006a44 <Transfer_Data_Request>
 8003206:	bd10      	pop	{r4, pc}
 8003208:	20000a40 	andcs	r0, r0, r0, asr #20
 800320c:	20000008 	andcs	r0, r0, r8

08003210 <SCSI_Inquiry_Cmd>:
 8003210:	b508      	push	{r3, lr}
 8003212:	4b0b      	ldr	r3, [pc, #44]	; (8003240 <SCSI_Inquiry_Cmd+0x30>)
 8003214:	7e1b      	ldrb	r3, [r3, #24]
 8003216:	f013 0f01 	tst.w	r3, #1
 800321a:	d109      	bne.n	8003230 <SCSI_Inquiry_Cmd+0x20>
 800321c:	b908      	cbnz	r0, 8003222 <SCSI_Inquiry_Cmd+0x12>
 800321e:	4809      	ldr	r0, [pc, #36]	; (8003244 <SCSI_Inquiry_Cmd+0x34>)
 8003220:	e000      	b.n	8003224 <SCSI_Inquiry_Cmd+0x14>
 8003222:	4809      	ldr	r0, [pc, #36]	; (8003248 <SCSI_Inquiry_Cmd+0x38>)
 8003224:	4b06      	ldr	r3, [pc, #24]	; (8003240 <SCSI_Inquiry_Cmd+0x30>)
 8003226:	7ed9      	ldrb	r1, [r3, #27]
 8003228:	2924      	cmp	r1, #36	; 0x24
 800322a:	d804      	bhi.n	8003236 <SCSI_Inquiry_Cmd+0x26>
 800322c:	b289      	uxth	r1, r1
 800322e:	e003      	b.n	8003238 <SCSI_Inquiry_Cmd+0x28>
 8003230:	2105      	movs	r1, #5
 8003232:	4806      	ldr	r0, [pc, #24]	; (800324c <SCSI_Inquiry_Cmd+0x3c>)
 8003234:	e000      	b.n	8003238 <SCSI_Inquiry_Cmd+0x28>
 8003236:	2124      	movs	r1, #36	; 0x24
 8003238:	f003 fc04 	bl	8006a44 <Transfer_Data_Request>
 800323c:	bd08      	pop	{r3, pc}
 800323e:	bf00      	nop
 8003240:	20000a40 	andcs	r0, r0, r0, asr #20
 8003244:	20000034 	andcs	r0, r0, r4, lsr r0
 8003248:	20000058 	andcs	r0, r0, r8, asr r0
 800324c:	20001874 	andcs	r1, r0, r4, ror r8

08003250 <rStrLen>:
 8003250:	2200      	movs	r2, #0
 8003252:	1c53      	adds	r3, r2, #1
 8003254:	b2db      	uxtb	r3, r3
 8003256:	5c81      	ldrb	r1, [r0, r2]
 8003258:	461a      	mov	r2, r3
 800325a:	2900      	cmp	r1, #0
 800325c:	d1f9      	bne.n	8003252 <rStrLen+0x2>
 800325e:	4618      	mov	r0, r3
 8003260:	4770      	bx	lr
 8003262:	bf00      	nop

08003264 <Isdigit>:
 8003264:	3830      	subs	r0, #48	; 0x30
 8003266:	b2c0      	uxtb	r0, r0
 8003268:	2809      	cmp	r0, #9
 800326a:	d801      	bhi.n	8003270 <Isdigit+0xc>
 800326c:	2001      	movs	r0, #1
 800326e:	4770      	bx	lr
 8003270:	2000      	movs	r0, #0
 8003272:	4770      	bx	lr

08003274 <atoiRamRom>:
 8003274:	b5f8      	push	{r3, r4, r5, r6, r7, lr}
 8003276:	4607      	mov	r7, r0
 8003278:	2500      	movs	r5, #0
 800327a:	462c      	mov	r4, r5
 800327c:	e007      	b.n	800328e <atoiRamRom+0x1a>
 800327e:	eb04 0384 	add.w	r3, r4, r4, lsl #2
 8003282:	005b      	lsls	r3, r3, #1
 8003284:	3501      	adds	r5, #1
 8003286:	b2ed      	uxtb	r5, r5
 8003288:	f1a6 0430 	sub.w	r4, r6, #48	; 0x30
 800328c:	441c      	add	r4, r3
 800328e:	5d7e      	ldrb	r6, [r7, r5]
 8003290:	4630      	mov	r0, r6
 8003292:	f7ff ffe7 	bl	8003264 <Isdigit>
 8003296:	2800      	cmp	r0, #0
 8003298:	d1f1      	bne.n	800327e <atoiRamRom+0xa>
 800329a:	4620      	mov	r0, r4
 800329c:	bdf8      	pop	{r3, r4, r5, r6, r7, pc}
 800329e:	bf00      	nop

080032a0 <xmit_datablock>:
 80032a0:	b538      	push	{r3, r4, r5, lr}
 80032a2:	4605      	mov	r5, r0
 80032a4:	460c      	mov	r4, r1
 80032a6:	f002 fa9b 	bl	80057e0 <wait_ready.lto_priv.2>
 80032aa:	28ff      	cmp	r0, #255	; 0xff
 80032ac:	d118      	bne.n	80032e0 <xmit_datablock+0x40>
 80032ae:	4620      	mov	r0, r4
 80032b0:	f002 fa72 	bl	8005798 <stm32_spi_rw.lto_priv.6>
 80032b4:	2cfd      	cmp	r4, #253	; 0xfd
 80032b6:	d015      	beq.n	80032e4 <xmit_datablock+0x44>
 80032b8:	2000      	movs	r0, #0
 80032ba:	4629      	mov	r1, r5
 80032bc:	f44f 7200 	mov.w	r2, #512	; 0x200
 80032c0:	f002 f9fc 	bl	80056bc <stm32_dma_transfer.lto_priv.7>
 80032c4:	20ff      	movs	r0, #255	; 0xff
 80032c6:	f002 fa67 	bl	8005798 <stm32_spi_rw.lto_priv.6>
 80032ca:	20ff      	movs	r0, #255	; 0xff
 80032cc:	f002 fa64 	bl	8005798 <stm32_spi_rw.lto_priv.6>
 80032d0:	f002 fa74 	bl	80057bc <rcvr_spi.lto_priv.1>
 80032d4:	f000 001f 	and.w	r0, r0, #31
 80032d8:	2805      	cmp	r0, #5
 80032da:	d005      	beq.n	80032e8 <xmit_datablock+0x48>
 80032dc:	2000      	movs	r0, #0
 80032de:	bd38      	pop	{r3, r4, r5, pc}
 80032e0:	2000      	movs	r0, #0
 80032e2:	bd38      	pop	{r3, r4, r5, pc}
 80032e4:	2001      	movs	r0, #1
 80032e6:	bd38      	pop	{r3, r4, r5, pc}
 80032e8:	2001      	movs	r0, #1
 80032ea:	bd38      	pop	{r3, r4, r5, pc}

080032ec <power_off_>:
 80032ec:	b510      	push	{r4, lr}
 80032ee:	b082      	sub	sp, #8
 80032f0:	4b16      	ldr	r3, [pc, #88]	; (800334c <power_off_+0x60>)
 80032f2:	781b      	ldrb	r3, [r3, #0]
 80032f4:	f013 0f01 	tst.w	r3, #1
 80032f8:	d108      	bne.n	800330c <power_off_+0x20>
 80032fa:	4815      	ldr	r0, [pc, #84]	; (8003350 <power_off_+0x64>)
 80032fc:	f44f 7180 	mov.w	r1, #256	; 0x100
 8003300:	f006 fdea 	bl	8009ed8 <GPIO_ResetBits>
 8003304:	f002 fa6c 	bl	80057e0 <wait_ready.lto_priv.2>
 8003308:	f002 fa5e 	bl	80057c8 <release_spi>
 800330c:	4c11      	ldr	r4, [pc, #68]	; (8003354 <power_off_+0x68>)
 800330e:	4620      	mov	r0, r4
 8003310:	f007 f852 	bl	800a3b8 <SPI_I2S_DeInit>
 8003314:	4620      	mov	r0, r4
 8003316:	2100      	movs	r1, #0
 8003318:	f007 f89f 	bl	800a45a <SPI_Cmd>
 800331c:	f44f 4080 	mov.w	r0, #16384	; 0x4000
 8003320:	2100      	movs	r1, #0
 8003322:	f006 ffb7 	bl	800a294 <RCC_APB1PeriphClockCmd>
 8003326:	f44f 4360 	mov.w	r3, #57344	; 0xe000
 800332a:	f8ad 3004 	strh.w	r3, [sp, #4]
 800332e:	2328      	movs	r3, #40	; 0x28
 8003330:	f88d 3007 	strb.w	r3, [sp, #7]
 8003334:	4806      	ldr	r0, [pc, #24]	; (8003350 <power_off_+0x64>)
 8003336:	a901      	add	r1, sp, #4
 8003338:	f006 fd7e 	bl	8009e38 <GPIO_Init>
 800333c:	4a03      	ldr	r2, [pc, #12]	; (800334c <power_off_+0x60>)
 800333e:	7813      	ldrb	r3, [r2, #0]
 8003340:	f043 0301 	orr.w	r3, r3, #1
 8003344:	7013      	strb	r3, [r2, #0]
 8003346:	b002      	add	sp, #8
 8003348:	bd10      	pop	{r4, pc}
 800334a:	bf00      	nop
 800334c:	2000007c 	andcs	r0, r0, ip, ror r0
 8003350:	40010c00 	andmi	r0, r1, r0, lsl #24
 8003354:	40003800 	andmi	r3, r0, r0, lsl #16

08003358 <ReadADC1_noblock>:
 8003358:	b510      	push	{r4, lr}
 800335a:	4601      	mov	r1, r0
 800335c:	4c05      	ldr	r4, [pc, #20]	; (8003374 <ReadADC1_noblock+0x1c>)
 800335e:	4620      	mov	r0, r4
 8003360:	2201      	movs	r2, #1
 8003362:	4613      	mov	r3, r2
 8003364:	f006 fb2a 	bl	80099bc <ADC_RegularChannelConfig>
 8003368:	4620      	mov	r0, r4
 800336a:	2101      	movs	r1, #1
 800336c:	f006 fb1d 	bl	80099aa <ADC_SoftwareStartConvCmd>
 8003370:	bd10      	pop	{r4, pc}
 8003372:	bf00      	nop
 8003374:	40012400 	andmi	r2, r1, r0, lsl #8

08003378 <ADC_Configuration>:
 8003378:	e92d 41f0 	stmdb	sp!, {r4, r5, r6, r7, r8, lr}
 800337c:	b086      	sub	sp, #24
 800337e:	2000      	movs	r0, #0
 8003380:	f006 fefe 	bl	800a180 <RCC_ADCCLKConfig>
 8003384:	f44f 7000 	mov.w	r0, #512	; 0x200
 8003388:	2101      	movs	r1, #1
 800338a:	f006 ff77 	bl	800a27c <RCC_APB2PeriphClockCmd>
 800338e:	f44f 6080 	mov.w	r0, #1024	; 0x400
 8003392:	2101      	movs	r1, #1
 8003394:	f006 ff72 	bl	800a27c <RCC_APB2PeriphClockCmd>
 8003398:	2001      	movs	r0, #1
 800339a:	4601      	mov	r1, r0
 800339c:	f006 ff62 	bl	800a264 <RCC_AHBPeriphClockCmd>
 80033a0:	4f31      	ldr	r7, [pc, #196]	; (8003468 <ADC_Configuration+0xf0>)
 80033a2:	4638      	mov	r0, r7
 80033a4:	f006 fa94 	bl	80098d0 <ADC_DeInit>
 80033a8:	4e30      	ldr	r6, [pc, #192]	; (800346c <ADC_Configuration+0xf4>)
 80033aa:	4630      	mov	r0, r6
 80033ac:	f006 fa90 	bl	80098d0 <ADC_DeInit>
 80033b0:	2500      	movs	r5, #0
 80033b2:	9501      	str	r5, [sp, #4]
 80033b4:	2401      	movs	r4, #1
 80033b6:	f88d 4008 	strb.w	r4, [sp, #8]
 80033ba:	f88d 5009 	strb.w	r5, [sp, #9]
 80033be:	f44f 2860 	mov.w	r8, #917504	; 0xe0000
 80033c2:	f8cd 800c 	str.w	r8, [sp, #12]
 80033c6:	9504      	str	r5, [sp, #16]
 80033c8:	f88d 4014 	strb.w	r4, [sp, #20]
 80033cc:	4630      	mov	r0, r6
 80033ce:	a901      	add	r1, sp, #4
 80033d0:	f006 faac 	bl	800992c <ADC_Init>
 80033d4:	4630      	mov	r0, r6
 80033d6:	4621      	mov	r1, r4
 80033d8:	f006 fb6e 	bl	8009ab8 <ADC_InjectedSequencerLengthConfig>
 80033dc:	4630      	mov	r0, r6
 80033de:	4621      	mov	r1, r4
 80033e0:	4622      	mov	r2, r4
 80033e2:	2307      	movs	r3, #7
 80033e4:	f006 fb3e 	bl	8009a64 <ADC_InjectedChannelConfig>
 80033e8:	4630      	mov	r0, r6
 80033ea:	f44f 41e0 	mov.w	r1, #28672	; 0x7000
 80033ee:	f006 fb2a 	bl	8009a46 <ADC_ExternalTrigInjectedConvConfig>
 80033f2:	9501      	str	r5, [sp, #4]
 80033f4:	f88d 5008 	strb.w	r5, [sp, #8]
 80033f8:	f88d 5009 	strb.w	r5, [sp, #9]
 80033fc:	f8cd 800c 	str.w	r8, [sp, #12]
 8003400:	9504      	str	r5, [sp, #16]
 8003402:	f88d 4014 	strb.w	r4, [sp, #20]
 8003406:	4638      	mov	r0, r7
 8003408:	a901      	add	r1, sp, #4
 800340a:	f006 fa8f 	bl	800992c <ADC_Init>
 800340e:	4638      	mov	r0, r7
 8003410:	4621      	mov	r1, r4
 8003412:	f006 faaf 	bl	8009974 <ADC_Cmd>
 8003416:	4638      	mov	r0, r7
 8003418:	f006 fab5 	bl	8009986 <ADC_ResetCalibration>
 800341c:	4812      	ldr	r0, [pc, #72]	; (8003468 <ADC_Configuration+0xf0>)
 800341e:	f006 fab7 	bl	8009990 <ADC_GetResetCalibrationStatus>
 8003422:	2800      	cmp	r0, #0
 8003424:	d1fa      	bne.n	800341c <ADC_Configuration+0xa4>
 8003426:	4810      	ldr	r0, [pc, #64]	; (8003468 <ADC_Configuration+0xf0>)
 8003428:	f006 fab6 	bl	8009998 <ADC_StartCalibration>
 800342c:	480e      	ldr	r0, [pc, #56]	; (8003468 <ADC_Configuration+0xf0>)
 800342e:	f006 fab8 	bl	80099a2 <ADC_GetCalibrationStatus>
 8003432:	2800      	cmp	r0, #0
 8003434:	d1fa      	bne.n	800342c <ADC_Configuration+0xb4>
 8003436:	4c0d      	ldr	r4, [pc, #52]	; (800346c <ADC_Configuration+0xf4>)
 8003438:	4620      	mov	r0, r4
 800343a:	2101      	movs	r1, #1
 800343c:	f006 fa9a 	bl	8009974 <ADC_Cmd>
 8003440:	4620      	mov	r0, r4
 8003442:	f006 faa0 	bl	8009986 <ADC_ResetCalibration>
 8003446:	4809      	ldr	r0, [pc, #36]	; (800346c <ADC_Configuration+0xf4>)
 8003448:	f006 faa2 	bl	8009990 <ADC_GetResetCalibrationStatus>
 800344c:	2800      	cmp	r0, #0
 800344e:	d1fa      	bne.n	8003446 <ADC_Configuration+0xce>
 8003450:	4806      	ldr	r0, [pc, #24]	; (800346c <ADC_Configuration+0xf4>)
 8003452:	f006 faa1 	bl	8009998 <ADC_StartCalibration>
 8003456:	4805      	ldr	r0, [pc, #20]	; (800346c <ADC_Configuration+0xf4>)
 8003458:	f006 faa3 	bl	80099a2 <ADC_GetCalibrationStatus>
 800345c:	2800      	cmp	r0, #0
 800345e:	d1fa      	bne.n	8003456 <ADC_Configuration+0xde>
 8003460:	b006      	add	sp, #24
 8003462:	e8bd 81f0 	ldmia.w	sp!, {r4, r5, r6, r7, r8, pc}
 8003466:	bf00      	nop
 8003468:	40012400 	andmi	r2, r1, r0, lsl #8
 800346c:	40012800 	andmi	r2, r1, r0, lsl #16

08003470 <wave_terminate>:
 8003470:	b570      	push	{r4, r5, r6, lr}
 8003472:	b084      	sub	sp, #16
 8003474:	4604      	mov	r4, r0
 8003476:	f002 fb83 	bl	8005b80 <f_sync>
 800347a:	4620      	mov	r0, r4
 800347c:	f002 fa4c 	bl	8005918 <f_truncate>
 8003480:	68e5      	ldr	r5, [r4, #12]
 8003482:	f015 0f01 	tst.w	r5, #1
 8003486:	d00a      	beq.n	800349e <wave_terminate+0x2e>
 8003488:	a904      	add	r1, sp, #16
 800348a:	2300      	movs	r3, #0
 800348c:	f801 3d09 	strb.w	r3, [r1, #-9]!
 8003490:	4620      	mov	r0, r4
 8003492:	2201      	movs	r2, #1
 8003494:	ab03      	add	r3, sp, #12
 8003496:	f002 fbd3 	bl	8005c40 <f_write>
 800349a:	1c6e      	adds	r6, r5, #1
 800349c:	e000      	b.n	80034a0 <wave_terminate+0x30>
 800349e:	462e      	mov	r6, r5
 80034a0:	4620      	mov	r0, r4
 80034a2:	2104      	movs	r1, #4
 80034a4:	f002 faa6 	bl	80059f4 <f_lseek>
 80034a8:	f1a6 0308 	sub.w	r3, r6, #8
 80034ac:	ae04      	add	r6, sp, #16
 80034ae:	f846 3d08 	str.w	r3, [r6, #-8]!
 80034b2:	4620      	mov	r0, r4
 80034b4:	4631      	mov	r1, r6
 80034b6:	2204      	movs	r2, #4
 80034b8:	ab03      	add	r3, sp, #12
 80034ba:	f002 fbc1 	bl	8005c40 <f_write>
 80034be:	4620      	mov	r0, r4
 80034c0:	2128      	movs	r1, #40	; 0x28
 80034c2:	f002 fa97 	bl	80059f4 <f_lseek>
 80034c6:	3d2c      	subs	r5, #44	; 0x2c
 80034c8:	9502      	str	r5, [sp, #8]
 80034ca:	4620      	mov	r0, r4
 80034cc:	4631      	mov	r1, r6
 80034ce:	2204      	movs	r2, #4
 80034d0:	ab03      	add	r3, sp, #12
 80034d2:	f002 fbb5 	bl	8005c40 <f_write>
 80034d6:	4620      	mov	r0, r4
 80034d8:	f002 fb52 	bl	8005b80 <f_sync>
 80034dc:	4620      	mov	r0, r4
 80034de:	f002 fba5 	bl	8005c2c <f_close>
 80034e2:	b004      	add	sp, #16
 80034e4:	bd70      	pop	{r4, r5, r6, pc}
 80034e6:	bf00      	nop

080034e8 <write_wave_samples>:
 80034e8:	e92d 41f0 	stmdb	sp!, {r4, r5, r6, r7, r8, lr}
 80034ec:	b088      	sub	sp, #32
 80034ee:	f8dd 8038 	ldr.w	r8, [sp, #56]	; 0x38
 80034f2:	2600      	movs	r6, #0
 80034f4:	9601      	str	r6, [sp, #4]
 80034f6:	9602      	str	r6, [sp, #8]
 80034f8:	9603      	str	r6, [sp, #12]
 80034fa:	9604      	str	r6, [sp, #16]
 80034fc:	9605      	str	r6, [sp, #20]
 80034fe:	9606      	str	r6, [sp, #24]
 8003500:	f88d 601c 	strb.w	r6, [sp, #28]
 8003504:	785c      	ldrb	r4, [r3, #1]
 8003506:	f88d 4004 	strb.w	r4, [sp, #4]
 800350a:	781f      	ldrb	r7, [r3, #0]
 800350c:	e015      	b.n	800353a <write_wave_samples+0x52>
 800350e:	ea4f 0ed7 	mov.w	lr, r7, lsr #3
 8003512:	f10d 0c04 	add.w	ip, sp, #4
 8003516:	f838 5016 	ldrh.w	r5, [r8, r6, lsl #1]
 800351a:	2401      	movs	r4, #1
 800351c:	4094      	lsls	r4, r2
 800351e:	3c01      	subs	r4, #1
 8003520:	402c      	ands	r4, r5
 8003522:	f007 0507 	and.w	r5, r7, #7
 8003526:	40ac      	lsls	r4, r5
 8003528:	f85c 500e 	ldr.w	r5, [ip, lr]
 800352c:	432c      	orrs	r4, r5
 800352e:	f84c 400e 	str.w	r4, [ip, lr]
 8003532:	4417      	add	r7, r2
 8003534:	b2ff      	uxtb	r7, r7
 8003536:	3601      	adds	r6, #1
 8003538:	b2f6      	uxtb	r6, r6
 800353a:	428e      	cmp	r6, r1
 800353c:	d3e7      	bcc.n	800350e <write_wave_samples+0x26>
 800353e:	f007 0207 	and.w	r2, r7, #7
 8003542:	701a      	strb	r2, [r3, #0]
 8003544:	08fa      	lsrs	r2, r7, #3
 8003546:	a908      	add	r1, sp, #32
 8003548:	4411      	add	r1, r2
 800354a:	f811 1c1c 	ldrb.w	r1, [r1, #-28]
 800354e:	7059      	strb	r1, [r3, #1]
 8003550:	a901      	add	r1, sp, #4
 8003552:	466b      	mov	r3, sp
 8003554:	f002 fb74 	bl	8005c40 <f_write>
 8003558:	b008      	add	sp, #32
 800355a:	e8bd 81f0 	ldmia.w	sp!, {r4, r5, r6, r7, r8, pc}
 800355e:	bf00      	nop

08003560 <write_wave_header>:
 8003560:	b5f0      	push	{r4, r5, r6, r7, lr}
 8003562:	b08d      	sub	sp, #52	; 0x34
 8003564:	2400      	movs	r4, #0
 8003566:	9405      	str	r4, [sp, #20]
 8003568:	9406      	str	r4, [sp, #24]
 800356a:	9407      	str	r4, [sp, #28]
 800356c:	9408      	str	r4, [sp, #32]
 800356e:	9409      	str	r4, [sp, #36]	; 0x24
 8003570:	2452      	movs	r4, #82	; 0x52
 8003572:	f88d 4004 	strb.w	r4, [sp, #4]
 8003576:	2449      	movs	r4, #73	; 0x49
 8003578:	f88d 4005 	strb.w	r4, [sp, #5]
 800357c:	2446      	movs	r4, #70	; 0x46
 800357e:	f88d 4006 	strb.w	r4, [sp, #6]
 8003582:	f88d 4007 	strb.w	r4, [sp, #7]
 8003586:	24ff      	movs	r4, #255	; 0xff
 8003588:	f88d 4008 	strb.w	r4, [sp, #8]
 800358c:	f88d 4009 	strb.w	r4, [sp, #9]
 8003590:	f88d 400a 	strb.w	r4, [sp, #10]
 8003594:	2504      	movs	r5, #4
 8003596:	f88d 500b 	strb.w	r5, [sp, #11]
 800359a:	2657      	movs	r6, #87	; 0x57
 800359c:	f88d 600c 	strb.w	r6, [sp, #12]
 80035a0:	2641      	movs	r6, #65	; 0x41
 80035a2:	f88d 600d 	strb.w	r6, [sp, #13]
 80035a6:	2656      	movs	r6, #86	; 0x56
 80035a8:	f88d 600e 	strb.w	r6, [sp, #14]
 80035ac:	2645      	movs	r6, #69	; 0x45
 80035ae:	f88d 600f 	strb.w	r6, [sp, #15]
 80035b2:	2666      	movs	r6, #102	; 0x66
 80035b4:	f88d 6010 	strb.w	r6, [sp, #16]
 80035b8:	266d      	movs	r6, #109	; 0x6d
 80035ba:	f88d 6011 	strb.w	r6, [sp, #17]
 80035be:	2774      	movs	r7, #116	; 0x74
 80035c0:	f88d 7012 	strb.w	r7, [sp, #18]
 80035c4:	2620      	movs	r6, #32
 80035c6:	f88d 6013 	strb.w	r6, [sp, #19]
 80035ca:	2610      	movs	r6, #16
 80035cc:	f88d 6014 	strb.w	r6, [sp, #20]
 80035d0:	2601      	movs	r6, #1
 80035d2:	f88d 6018 	strb.w	r6, [sp, #24]
 80035d6:	2664      	movs	r6, #100	; 0x64
 80035d8:	f88d 6028 	strb.w	r6, [sp, #40]	; 0x28
 80035dc:	2661      	movs	r6, #97	; 0x61
 80035de:	f88d 6029 	strb.w	r6, [sp, #41]	; 0x29
 80035e2:	f88d 702a 	strb.w	r7, [sp, #42]	; 0x2a
 80035e6:	f88d 602b 	strb.w	r6, [sp, #43]	; 0x2b
 80035ea:	26df      	movs	r6, #223	; 0xdf
 80035ec:	f88d 602c 	strb.w	r6, [sp, #44]	; 0x2c
 80035f0:	f88d 402d 	strb.w	r4, [sp, #45]	; 0x2d
 80035f4:	f88d 402e 	strb.w	r4, [sp, #46]	; 0x2e
 80035f8:	f88d 502f 	strb.w	r5, [sp, #47]	; 0x2f
 80035fc:	f88d 101a 	strb.w	r1, [sp, #26]
 8003600:	f8ad 201c 	strh.w	r2, [sp, #28]
 8003604:	fb03 f202 	mul.w	r2, r3, r2
 8003608:	fb01 f202 	mul.w	r2, r1, r2
 800360c:	2a00      	cmp	r2, #0
 800360e:	da00      	bge.n	8003612 <write_wave_header+0xb2>
 8003610:	3207      	adds	r2, #7
 8003612:	10d2      	asrs	r2, r2, #3
 8003614:	f8ad 2020 	strh.w	r2, [sp, #32]
 8003618:	fb01 f103 	mul.w	r1, r1, r3
 800361c:	10c9      	asrs	r1, r1, #3
 800361e:	f88d 1024 	strb.w	r1, [sp, #36]	; 0x24
 8003622:	f88d 3026 	strb.w	r3, [sp, #38]	; 0x26
 8003626:	a901      	add	r1, sp, #4
 8003628:	222c      	movs	r2, #44	; 0x2c
 800362a:	466b      	mov	r3, sp
 800362c:	f002 fb08 	bl	8005c40 <f_write>
 8003630:	b00d      	add	sp, #52	; 0x34
 8003632:	bdf0      	pop	{r4, r5, r6, r7, pc}

08003634 <rprintfChar>:
 8003634:	b510      	push	{r4, lr}
 8003636:	4604      	mov	r4, r0
 8003638:	280a      	cmp	r0, #10
 800363a:	d103      	bne.n	8003644 <rprintfChar+0x10>
 800363c:	4b04      	ldr	r3, [pc, #16]	; (8003650 <rprintfChar+0x1c>)
 800363e:	681b      	ldr	r3, [r3, #0]
 8003640:	200d      	movs	r0, #13
 8003642:	4798      	blx	r3
 8003644:	4b02      	ldr	r3, [pc, #8]	; (8003650 <rprintfChar+0x1c>)
 8003646:	681b      	ldr	r3, [r3, #0]
 8003648:	4620      	mov	r0, r4
 800364a:	4798      	blx	r3
 800364c:	bd10      	pop	{r4, pc}
 800364e:	bf00      	nop
 8003650:	20000a7c 	andcs	r0, r0, ip, ror sl

08003654 <rprintfFloat>:
 8003654:	e92d 43f8 	stmdb	sp!, {r3, r4, r5, r6, r7, r8, r9, lr}
 8003658:	4680      	mov	r8, r0
 800365a:	460e      	mov	r6, r1
 800365c:	4608      	mov	r0, r1
 800365e:	2100      	movs	r1, #0
 8003660:	f7fd fcc4 	bl	8000fec <__aeabi_fcmplt>
 8003664:	b110      	cbz	r0, 800366c <rprintfFloat+0x18>
 8003666:	202d      	movs	r0, #45	; 0x2d
 8003668:	f7ff ffe4 	bl	8003634 <rprintfChar>
 800366c:	4630      	mov	r0, r6
 800366e:	2100      	movs	r1, #0
 8003670:	f7fd fcda 	bl	8001028 <__aeabi_fcmpgt>
 8003674:	b908      	cbnz	r0, 800367a <rprintfFloat+0x26>
 8003676:	f106 4600 	add.w	r6, r6, #2147483648	; 0x80000000
 800367a:	f04f 547e 	mov.w	r4, #1065353216	; 0x3f800000
 800367e:	2500      	movs	r5, #0
 8003680:	e00e      	b.n	80036a0 <rprintfFloat+0x4c>
 8003682:	4630      	mov	r0, r6
 8003684:	4621      	mov	r1, r4
 8003686:	f7fd fbc7 	bl	8000e18 <__aeabi_fdiv>
 800368a:	4923      	ldr	r1, [pc, #140]	; (8003718 <rprintfFloat+0xc4>)
 800368c:	f7fd fcae 	bl	8000fec <__aeabi_fcmplt>
 8003690:	b940      	cbnz	r0, 80036a4 <rprintfFloat+0x50>
 8003692:	4620      	mov	r0, r4
 8003694:	4920      	ldr	r1, [pc, #128]	; (8003718 <rprintfFloat+0xc4>)
 8003696:	f7fd fb0b 	bl	8000cb0 <__aeabi_fmul>
 800369a:	4604      	mov	r4, r0
 800369c:	3501      	adds	r5, #1
 800369e:	b2ed      	uxtb	r5, r5
 80036a0:	2d0e      	cmp	r5, #14
 80036a2:	d9ee      	bls.n	8003682 <rprintfFloat+0x2e>
 80036a4:	2500      	movs	r5, #0
 80036a6:	f04f 0901 	mov.w	r9, #1
 80036aa:	e031      	b.n	8003710 <rprintfFloat+0xbc>
 80036ac:	4630      	mov	r0, r6
 80036ae:	4621      	mov	r1, r4
 80036b0:	f7fd fbb2 	bl	8000e18 <__aeabi_fdiv>
 80036b4:	f7fd fcc2 	bl	800103c <__aeabi_f2uiz>
 80036b8:	b2c7      	uxtb	r7, r0
 80036ba:	f107 0030 	add.w	r0, r7, #48	; 0x30
 80036be:	b2c0      	uxtb	r0, r0
 80036c0:	f7ff ffb8 	bl	8003634 <rprintfChar>
 80036c4:	4620      	mov	r0, r4
 80036c6:	f04f 517e 	mov.w	r1, #1065353216	; 0x3f800000
 80036ca:	f7fd fc85 	bl	8000fd8 <__aeabi_fcmpeq>
 80036ce:	b150      	cbz	r0, 80036e6 <rprintfFloat+0x92>
 80036d0:	f1b8 0f00 	cmp.w	r8, #0
 80036d4:	d005      	beq.n	80036e2 <rprintfFloat+0x8e>
 80036d6:	202e      	movs	r0, #46	; 0x2e
 80036d8:	f7ff ffac 	bl	8003634 <rprintfChar>
 80036dc:	f04f 0900 	mov.w	r9, #0
 80036e0:	e001      	b.n	80036e6 <rprintfFloat+0x92>
 80036e2:	f04f 0900 	mov.w	r9, #0
 80036e6:	f1b9 0f00 	cmp.w	r9, #0
 80036ea:	d101      	bne.n	80036f0 <rprintfFloat+0x9c>
 80036ec:	3501      	adds	r5, #1
 80036ee:	b2ed      	uxtb	r5, r5
 80036f0:	4638      	mov	r0, r7
 80036f2:	f7fd fa89 	bl	8000c08 <__aeabi_i2f>
 80036f6:	4621      	mov	r1, r4
 80036f8:	f7fd fada 	bl	8000cb0 <__aeabi_fmul>
 80036fc:	4601      	mov	r1, r0
 80036fe:	4630      	mov	r0, r6
 8003700:	f7fd f9cc 	bl	8000a9c <__aeabi_fsub>
 8003704:	4606      	mov	r6, r0
 8003706:	4620      	mov	r0, r4
 8003708:	4903      	ldr	r1, [pc, #12]	; (8003718 <rprintfFloat+0xc4>)
 800370a:	f7fd fb85 	bl	8000e18 <__aeabi_fdiv>
 800370e:	4604      	mov	r4, r0
 8003710:	4545      	cmp	r5, r8
 8003712:	d9cb      	bls.n	80036ac <rprintfFloat+0x58>
 8003714:	e8bd 83f8 	ldmia.w	sp!, {r3, r4, r5, r6, r7, r8, r9, pc}
 8003718:	41200000 	teqmi	r0, r0

0800371c <rprintf2RamRom>:
 800371c:	b40f      	push	{r0, r1, r2, r3}
 800371e:	e92d 4ff0 	stmdb	sp!, {r4, r5, r6, r7, r8, r9, sl, fp, lr}
 8003722:	b083      	sub	sp, #12
 8003724:	ab0c      	add	r3, sp, #48	; 0x30
 8003726:	f853 5b04 	ldr.w	r5, [r3], #4
 800372a:	9301      	str	r3, [sp, #4]
 800372c:	2400      	movs	r4, #0
 800372e:	e194      	b.n	8003a5a <rprintf2RamRom+0x33e>
 8003730:	2825      	cmp	r0, #37	; 0x25
 8003732:	d002      	beq.n	800373a <rprintf2RamRom+0x1e>
 8003734:	f7ff ff7e 	bl	8003634 <rprintfChar>
 8003738:	e18d      	b.n	8003a56 <rprintf2RamRom+0x33a>
 800373a:	3401      	adds	r4, #1
 800373c:	b2e4      	uxtb	r4, r4
 800373e:	5d2b      	ldrb	r3, [r5, r4]
 8003740:	2b2d      	cmp	r3, #45	; 0x2d
 8003742:	d104      	bne.n	800374e <rprintf2RamRom+0x32>
 8003744:	3401      	adds	r4, #1
 8003746:	b2e4      	uxtb	r4, r4
 8003748:	f04f 0901 	mov.w	r9, #1
 800374c:	e001      	b.n	8003752 <rprintf2RamRom+0x36>
 800374e:	f04f 0900 	mov.w	r9, #0
 8003752:	5d2b      	ldrb	r3, [r5, r4]
 8003754:	2b30      	cmp	r3, #48	; 0x30
 8003756:	d001      	beq.n	800375c <rprintf2RamRom+0x40>
 8003758:	2b2e      	cmp	r3, #46	; 0x2e
 800375a:	d104      	bne.n	8003766 <rprintf2RamRom+0x4a>
 800375c:	3401      	adds	r4, #1
 800375e:	b2e4      	uxtb	r4, r4
 8003760:	f04f 0830 	mov.w	r8, #48	; 0x30
 8003764:	e001      	b.n	800376a <rprintf2RamRom+0x4e>
 8003766:	f04f 0820 	mov.w	r8, #32
 800376a:	192e      	adds	r6, r5, r4
 800376c:	5d28      	ldrb	r0, [r5, r4]
 800376e:	282a      	cmp	r0, #42	; 0x2a
 8003770:	d106      	bne.n	8003780 <rprintf2RamRom+0x64>
 8003772:	9b01      	ldr	r3, [sp, #4]
 8003774:	1d1a      	adds	r2, r3, #4
 8003776:	9201      	str	r2, [sp, #4]
 8003778:	681f      	ldr	r7, [r3, #0]
 800377a:	3401      	adds	r4, #1
 800377c:	b2e4      	uxtb	r4, r4
 800377e:	e010      	b.n	80037a2 <rprintf2RamRom+0x86>
 8003780:	f7ff fd70 	bl	8003264 <Isdigit>
 8003784:	b160      	cbz	r0, 80037a0 <rprintf2RamRom+0x84>
 8003786:	4630      	mov	r0, r6
 8003788:	f7ff fd74 	bl	8003274 <atoiRamRom>
 800378c:	4607      	mov	r7, r0
 800378e:	e001      	b.n	8003794 <rprintf2RamRom+0x78>
 8003790:	3401      	adds	r4, #1
 8003792:	b2e4      	uxtb	r4, r4
 8003794:	5d28      	ldrb	r0, [r5, r4]
 8003796:	f7ff fd65 	bl	8003264 <Isdigit>
 800379a:	2800      	cmp	r0, #0
 800379c:	d1f8      	bne.n	8003790 <rprintf2RamRom+0x74>
 800379e:	e000      	b.n	80037a2 <rprintf2RamRom+0x86>
 80037a0:	2700      	movs	r7, #0
 80037a2:	5d2b      	ldrb	r3, [r5, r4]
 80037a4:	2b2e      	cmp	r3, #46	; 0x2e
 80037a6:	d11d      	bne.n	80037e4 <rprintf2RamRom+0xc8>
 80037a8:	3401      	adds	r4, #1
 80037aa:	b2e4      	uxtb	r4, r4
 80037ac:	192e      	adds	r6, r5, r4
 80037ae:	5d28      	ldrb	r0, [r5, r4]
 80037b0:	282a      	cmp	r0, #42	; 0x2a
 80037b2:	d107      	bne.n	80037c4 <rprintf2RamRom+0xa8>
 80037b4:	9b01      	ldr	r3, [sp, #4]
 80037b6:	1d1a      	adds	r2, r3, #4
 80037b8:	9201      	str	r2, [sp, #4]
 80037ba:	f8d3 a000 	ldr.w	sl, [r3]
 80037be:	3401      	adds	r4, #1
 80037c0:	b2e4      	uxtb	r4, r4
 80037c2:	e014      	b.n	80037ee <rprintf2RamRom+0xd2>
 80037c4:	f7ff fd4e 	bl	8003264 <Isdigit>
 80037c8:	b178      	cbz	r0, 80037ea <rprintf2RamRom+0xce>
 80037ca:	4630      	mov	r0, r6
 80037cc:	f7ff fd52 	bl	8003274 <atoiRamRom>
 80037d0:	4682      	mov	sl, r0
 80037d2:	e001      	b.n	80037d8 <rprintf2RamRom+0xbc>
 80037d4:	3401      	adds	r4, #1
 80037d6:	b2e4      	uxtb	r4, r4
 80037d8:	5d28      	ldrb	r0, [r5, r4]
 80037da:	f7ff fd43 	bl	8003264 <Isdigit>
 80037de:	2800      	cmp	r0, #0
 80037e0:	d1f8      	bne.n	80037d4 <rprintf2RamRom+0xb8>
 80037e2:	e004      	b.n	80037ee <rprintf2RamRom+0xd2>
 80037e4:	f647 7afe 	movw	sl, #32766	; 0x7ffe
 80037e8:	e001      	b.n	80037ee <rprintf2RamRom+0xd2>
 80037ea:	f647 7afe 	movw	sl, #32766	; 0x7ffe
 80037ee:	5d2b      	ldrb	r3, [r5, r4]
 80037f0:	2b23      	cmp	r3, #35	; 0x23
 80037f2:	d103      	bne.n	80037fc <rprintf2RamRom+0xe0>
 80037f4:	3401      	adds	r4, #1
 80037f6:	b2e4      	uxtb	r4, r4
 80037f8:	2101      	movs	r1, #1
 80037fa:	e000      	b.n	80037fe <rprintf2RamRom+0xe2>
 80037fc:	2100      	movs	r1, #0
 80037fe:	5d2b      	ldrb	r3, [r5, r4]
 8003800:	2b6c      	cmp	r3, #108	; 0x6c
 8003802:	d103      	bne.n	800380c <rprintf2RamRom+0xf0>
 8003804:	3401      	adds	r4, #1
 8003806:	b2e4      	uxtb	r4, r4
 8003808:	2201      	movs	r2, #1
 800380a:	e000      	b.n	800380e <rprintf2RamRom+0xf2>
 800380c:	2200      	movs	r2, #0
 800380e:	5d2b      	ldrb	r3, [r5, r4]
 8003810:	2b66      	cmp	r3, #102	; 0x66
 8003812:	f000 80d5 	beq.w	80039c0 <rprintf2RamRom+0x2a4>
 8003816:	d808      	bhi.n	800382a <rprintf2RamRom+0x10e>
 8003818:	2b63      	cmp	r3, #99	; 0x63
 800381a:	f000 80e3 	beq.w	80039e4 <rprintf2RamRom+0x2c8>
 800381e:	2b64      	cmp	r3, #100	; 0x64
 8003820:	d00f      	beq.n	8003842 <rprintf2RamRom+0x126>
 8003822:	2b25      	cmp	r3, #37	; 0x25
 8003824:	f040 8117 	bne.w	8003a56 <rprintf2RamRom+0x33a>
 8003828:	e112      	b.n	8003a50 <rprintf2RamRom+0x334>
 800382a:	2b73      	cmp	r3, #115	; 0x73
 800382c:	f000 80e1 	beq.w	80039f2 <rprintf2RamRom+0x2d6>
 8003830:	d802      	bhi.n	8003838 <rprintf2RamRom+0x11c>
 8003832:	2b6f      	cmp	r3, #111	; 0x6f
 8003834:	d056      	beq.n	80038e4 <rprintf2RamRom+0x1c8>
 8003836:	e10e      	b.n	8003a56 <rprintf2RamRom+0x33a>
 8003838:	2b75      	cmp	r3, #117	; 0x75
 800383a:	d053      	beq.n	80038e4 <rprintf2RamRom+0x1c8>
 800383c:	2b78      	cmp	r3, #120	; 0x78
 800383e:	d051      	beq.n	80038e4 <rprintf2RamRom+0x1c8>
 8003840:	e109      	b.n	8003a56 <rprintf2RamRom+0x33a>
 8003842:	b122      	cbz	r2, 800384e <rprintf2RamRom+0x132>
 8003844:	9b01      	ldr	r3, [sp, #4]
 8003846:	1d1a      	adds	r2, r3, #4
 8003848:	9201      	str	r2, [sp, #4]
 800384a:	681a      	ldr	r2, [r3, #0]
 800384c:	e003      	b.n	8003856 <rprintf2RamRom+0x13a>
 800384e:	9b01      	ldr	r3, [sp, #4]
 8003850:	1d1a      	adds	r2, r3, #4
 8003852:	9201      	str	r2, [sp, #4]
 8003854:	681a      	ldr	r2, [r3, #0]
 8003856:	2a00      	cmp	r2, #0
 8003858:	da03      	bge.n	8003862 <rprintf2RamRom+0x146>
 800385a:	4252      	negs	r2, r2
 800385c:	f04f 0e01 	mov.w	lr, #1
 8003860:	e001      	b.n	8003866 <rprintf2RamRom+0x14a>
 8003862:	f04f 0e00 	mov.w	lr, #0
 8003866:	4881      	ldr	r0, [pc, #516]	; (8003a6c <rprintf2RamRom+0x350>)
 8003868:	e000      	b.n	800386c <rprintf2RamRom+0x150>
 800386a:	4630      	mov	r0, r6
 800386c:	1c46      	adds	r6, r0, #1
 800386e:	4b80      	ldr	r3, [pc, #512]	; (8003a70 <rprintf2RamRom+0x354>)
 8003870:	fb83 3102 	smull	r3, r1, r3, r2
 8003874:	17d3      	asrs	r3, r2, #31
 8003876:	ebc3 03a1 	rsb	r3, r3, r1, asr #2
 800387a:	4619      	mov	r1, r3
 800387c:	eb03 0383 	add.w	r3, r3, r3, lsl #2
 8003880:	005b      	lsls	r3, r3, #1
 8003882:	1ad3      	subs	r3, r2, r3
 8003884:	3330      	adds	r3, #48	; 0x30
 8003886:	7003      	strb	r3, [r0, #0]
 8003888:	460a      	mov	r2, r1
 800388a:	2900      	cmp	r1, #0
 800388c:	dced      	bgt.n	800386a <rprintf2RamRom+0x14e>
 800388e:	f1be 0f00 	cmp.w	lr, #0
 8003892:	d002      	beq.n	800389a <rprintf2RamRom+0x17e>
 8003894:	1c86      	adds	r6, r0, #2
 8003896:	232d      	movs	r3, #45	; 0x2d
 8003898:	7043      	strb	r3, [r0, #1]
 800389a:	4b74      	ldr	r3, [pc, #464]	; (8003a6c <rprintf2RamRom+0x350>)
 800389c:	1b9b      	subs	r3, r3, r6
 800389e:	441f      	add	r7, r3
 80038a0:	f1b9 0f00 	cmp.w	r9, #0
 80038a4:	d004      	beq.n	80038b0 <rprintf2RamRom+0x194>
 80038a6:	e008      	b.n	80038ba <rprintf2RamRom+0x19e>
 80038a8:	4640      	mov	r0, r8
 80038aa:	f7ff fec3 	bl	8003634 <rprintfChar>
 80038ae:	4657      	mov	r7, sl
 80038b0:	f107 3aff 	add.w	sl, r7, #4294967295
 80038b4:	2f00      	cmp	r7, #0
 80038b6:	dcf7      	bgt.n	80038a8 <rprintf2RamRom+0x18c>
 80038b8:	4657      	mov	r7, sl
 80038ba:	3e01      	subs	r6, #1
 80038bc:	e003      	b.n	80038c6 <rprintf2RamRom+0x1aa>
 80038be:	f816 0901 	ldrb.w	r0, [r6], #-1
 80038c2:	f7ff feb7 	bl	8003634 <rprintfChar>
 80038c6:	4b69      	ldr	r3, [pc, #420]	; (8003a6c <rprintf2RamRom+0x350>)
 80038c8:	429e      	cmp	r6, r3
 80038ca:	d2f8      	bcs.n	80038be <rprintf2RamRom+0x1a2>
 80038cc:	f1b9 0f00 	cmp.w	r9, #0
 80038d0:	d104      	bne.n	80038dc <rprintf2RamRom+0x1c0>
 80038d2:	e0c0      	b.n	8003a56 <rprintf2RamRom+0x33a>
 80038d4:	2020      	movs	r0, #32
 80038d6:	f7ff fead 	bl	8003634 <rprintfChar>
 80038da:	4637      	mov	r7, r6
 80038dc:	1e7e      	subs	r6, r7, #1
 80038de:	2f00      	cmp	r7, #0
 80038e0:	dcf8      	bgt.n	80038d4 <rprintf2RamRom+0x1b8>
 80038e2:	e0b8      	b.n	8003a56 <rprintf2RamRom+0x33a>
 80038e4:	b122      	cbz	r2, 80038f0 <rprintf2RamRom+0x1d4>
 80038e6:	9a01      	ldr	r2, [sp, #4]
 80038e8:	1d10      	adds	r0, r2, #4
 80038ea:	9001      	str	r0, [sp, #4]
 80038ec:	6812      	ldr	r2, [r2, #0]
 80038ee:	e003      	b.n	80038f8 <rprintf2RamRom+0x1dc>
 80038f0:	9a01      	ldr	r2, [sp, #4]
 80038f2:	1d10      	adds	r0, r2, #4
 80038f4:	9001      	str	r0, [sp, #4]
 80038f6:	6812      	ldr	r2, [r2, #0]
 80038f8:	2b75      	cmp	r3, #117	; 0x75
 80038fa:	d111      	bne.n	8003920 <rprintf2RamRom+0x204>
 80038fc:	495b      	ldr	r1, [pc, #364]	; (8003a6c <rprintf2RamRom+0x350>)
 80038fe:	1c4e      	adds	r6, r1, #1
 8003900:	4b5c      	ldr	r3, [pc, #368]	; (8003a74 <rprintf2RamRom+0x358>)
 8003902:	fba3 0302 	umull	r0, r3, r3, r2
 8003906:	08db      	lsrs	r3, r3, #3
 8003908:	4618      	mov	r0, r3
 800390a:	eb03 0383 	add.w	r3, r3, r3, lsl #2
 800390e:	005b      	lsls	r3, r3, #1
 8003910:	1ad3      	subs	r3, r2, r3
 8003912:	3330      	adds	r3, #48	; 0x30
 8003914:	700b      	strb	r3, [r1, #0]
 8003916:	4602      	mov	r2, r0
 8003918:	4631      	mov	r1, r6
 800391a:	2800      	cmp	r0, #0
 800391c:	d1ef      	bne.n	80038fe <rprintf2RamRom+0x1e2>
 800391e:	e02a      	b.n	8003976 <rprintf2RamRom+0x25a>
 8003920:	2b6f      	cmp	r3, #111	; 0x6f
 8003922:	d10e      	bne.n	8003942 <rprintf2RamRom+0x226>
 8003924:	4851      	ldr	r0, [pc, #324]	; (8003a6c <rprintf2RamRom+0x350>)
 8003926:	e000      	b.n	800392a <rprintf2RamRom+0x20e>
 8003928:	4630      	mov	r0, r6
 800392a:	1c46      	adds	r6, r0, #1
 800392c:	f002 0307 	and.w	r3, r2, #7
 8003930:	3330      	adds	r3, #48	; 0x30
 8003932:	7003      	strb	r3, [r0, #0]
 8003934:	08d2      	lsrs	r2, r2, #3
 8003936:	d1f7      	bne.n	8003928 <rprintf2RamRom+0x20c>
 8003938:	b1e9      	cbz	r1, 8003976 <rprintf2RamRom+0x25a>
 800393a:	1c86      	adds	r6, r0, #2
 800393c:	2330      	movs	r3, #48	; 0x30
 800393e:	7043      	strb	r3, [r0, #1]
 8003940:	e019      	b.n	8003976 <rprintf2RamRom+0x25a>
 8003942:	2b78      	cmp	r3, #120	; 0x78
 8003944:	d116      	bne.n	8003974 <rprintf2RamRom+0x258>
 8003946:	4e49      	ldr	r6, [pc, #292]	; (8003a6c <rprintf2RamRom+0x350>)
 8003948:	f002 030f 	and.w	r3, r2, #15
 800394c:	2b09      	cmp	r3, #9
 800394e:	dc03      	bgt.n	8003958 <rprintf2RamRom+0x23c>
 8003950:	3330      	adds	r3, #48	; 0x30
 8003952:	7033      	strb	r3, [r6, #0]
 8003954:	3601      	adds	r6, #1
 8003956:	e002      	b.n	800395e <rprintf2RamRom+0x242>
 8003958:	3357      	adds	r3, #87	; 0x57
 800395a:	7033      	strb	r3, [r6, #0]
 800395c:	3601      	adds	r6, #1
 800395e:	0912      	lsrs	r2, r2, #4
 8003960:	d1f2      	bne.n	8003948 <rprintf2RamRom+0x22c>
 8003962:	b141      	cbz	r1, 8003976 <rprintf2RamRom+0x25a>
 8003964:	4633      	mov	r3, r6
 8003966:	2278      	movs	r2, #120	; 0x78
 8003968:	f803 2b02 	strb.w	r2, [r3], #2
 800396c:	2230      	movs	r2, #48	; 0x30
 800396e:	7072      	strb	r2, [r6, #1]
 8003970:	461e      	mov	r6, r3
 8003972:	e000      	b.n	8003976 <rprintf2RamRom+0x25a>
 8003974:	4e3d      	ldr	r6, [pc, #244]	; (8003a6c <rprintf2RamRom+0x350>)
 8003976:	4b3d      	ldr	r3, [pc, #244]	; (8003a6c <rprintf2RamRom+0x350>)
 8003978:	1b9b      	subs	r3, r3, r6
 800397a:	441f      	add	r7, r3
 800397c:	f1b9 0f00 	cmp.w	r9, #0
 8003980:	d004      	beq.n	800398c <rprintf2RamRom+0x270>
 8003982:	e008      	b.n	8003996 <rprintf2RamRom+0x27a>
 8003984:	4640      	mov	r0, r8
 8003986:	f7ff fe55 	bl	8003634 <rprintfChar>
 800398a:	4657      	mov	r7, sl
 800398c:	f107 3aff 	add.w	sl, r7, #4294967295
 8003990:	2f00      	cmp	r7, #0
 8003992:	dcf7      	bgt.n	8003984 <rprintf2RamRom+0x268>
 8003994:	4657      	mov	r7, sl
 8003996:	3e01      	subs	r6, #1
 8003998:	e003      	b.n	80039a2 <rprintf2RamRom+0x286>
 800399a:	f816 0901 	ldrb.w	r0, [r6], #-1
 800399e:	f7ff fe49 	bl	8003634 <rprintfChar>
 80039a2:	4b32      	ldr	r3, [pc, #200]	; (8003a6c <rprintf2RamRom+0x350>)
 80039a4:	429e      	cmp	r6, r3
 80039a6:	d2f8      	bcs.n	800399a <rprintf2RamRom+0x27e>
 80039a8:	f1b9 0f00 	cmp.w	r9, #0
 80039ac:	d104      	bne.n	80039b8 <rprintf2RamRom+0x29c>
 80039ae:	e052      	b.n	8003a56 <rprintf2RamRom+0x33a>
 80039b0:	2020      	movs	r0, #32
 80039b2:	f7ff fe3f 	bl	8003634 <rprintfChar>
 80039b6:	4637      	mov	r7, r6
 80039b8:	1e7e      	subs	r6, r7, #1
 80039ba:	2f00      	cmp	r7, #0
 80039bc:	dcf8      	bgt.n	80039b0 <rprintf2RamRom+0x294>
 80039be:	e04a      	b.n	8003a56 <rprintf2RamRom+0x33a>
 80039c0:	9b01      	ldr	r3, [sp, #4]
 80039c2:	3307      	adds	r3, #7
 80039c4:	f023 0307 	bic.w	r3, r3, #7
 80039c8:	f103 0208 	add.w	r2, r3, #8
 80039cc:	9201      	str	r2, [sp, #4]
 80039ce:	e9d3 0100 	ldrd	r0, r1, [r3]
 80039d2:	f7fd f80f 	bl	80009f4 <__aeabi_d2f>
 80039d6:	4601      	mov	r1, r0
 80039d8:	b907      	cbnz	r7, 80039dc <rprintf2RamRom+0x2c0>
 80039da:	2709      	movs	r7, #9
 80039dc:	b2f8      	uxtb	r0, r7
 80039de:	f7ff fe39 	bl	8003654 <rprintfFloat>
 80039e2:	e038      	b.n	8003a56 <rprintf2RamRom+0x33a>
 80039e4:	9b01      	ldr	r3, [sp, #4]
 80039e6:	1d1a      	adds	r2, r3, #4
 80039e8:	9201      	str	r2, [sp, #4]
 80039ea:	7818      	ldrb	r0, [r3, #0]
 80039ec:	f7ff fe22 	bl	8003634 <rprintfChar>
 80039f0:	e031      	b.n	8003a56 <rprintf2RamRom+0x33a>
 80039f2:	9b01      	ldr	r3, [sp, #4]
 80039f4:	1d1a      	adds	r2, r3, #4
 80039f6:	9201      	str	r2, [sp, #4]
 80039f8:	681e      	ldr	r6, [r3, #0]
 80039fa:	b906      	cbnz	r6, 80039fe <rprintf2RamRom+0x2e2>
 80039fc:	4e1e      	ldr	r6, [pc, #120]	; (8003a78 <rprintf2RamRom+0x35c>)
 80039fe:	4630      	mov	r0, r6
 8003a00:	f7ff fc26 	bl	8003250 <rStrLen>
 8003a04:	1a3f      	subs	r7, r7, r0
 8003a06:	f1b9 0f00 	cmp.w	r9, #0
 8003a0a:	d004      	beq.n	8003a16 <rprintf2RamRom+0x2fa>
 8003a0c:	e008      	b.n	8003a20 <rprintf2RamRom+0x304>
 8003a0e:	4640      	mov	r0, r8
 8003a10:	f7ff fe10 	bl	8003634 <rprintfChar>
 8003a14:	465f      	mov	r7, fp
 8003a16:	f107 3bff 	add.w	fp, r7, #4294967295
 8003a1a:	2f00      	cmp	r7, #0
 8003a1c:	dcf7      	bgt.n	8003a0e <rprintf2RamRom+0x2f2>
 8003a1e:	465f      	mov	r7, fp
 8003a20:	f04f 0800 	mov.w	r8, #0
 8003a24:	e004      	b.n	8003a30 <rprintf2RamRom+0x314>
 8003a26:	f7ff fe05 	bl	8003634 <rprintfChar>
 8003a2a:	3601      	adds	r6, #1
 8003a2c:	f108 0801 	add.w	r8, r8, #1
 8003a30:	7830      	ldrb	r0, [r6, #0]
 8003a32:	b108      	cbz	r0, 8003a38 <rprintf2RamRom+0x31c>
 8003a34:	45d0      	cmp	r8, sl
 8003a36:	dbf6      	blt.n	8003a26 <rprintf2RamRom+0x30a>
 8003a38:	f1b9 0f00 	cmp.w	r9, #0
 8003a3c:	d104      	bne.n	8003a48 <rprintf2RamRom+0x32c>
 8003a3e:	e00a      	b.n	8003a56 <rprintf2RamRom+0x33a>
 8003a40:	2020      	movs	r0, #32
 8003a42:	f7ff fdf7 	bl	8003634 <rprintfChar>
 8003a46:	4637      	mov	r7, r6
 8003a48:	1e7e      	subs	r6, r7, #1
 8003a4a:	2f00      	cmp	r7, #0
 8003a4c:	dcf8      	bgt.n	8003a40 <rprintf2RamRom+0x324>
 8003a4e:	e002      	b.n	8003a56 <rprintf2RamRom+0x33a>
 8003a50:	2025      	movs	r0, #37	; 0x25
 8003a52:	f7ff fdef 	bl	8003634 <rprintfChar>
 8003a56:	3401      	adds	r4, #1
 8003a58:	b2e4      	uxtb	r4, r4
 8003a5a:	5d28      	ldrb	r0, [r5, r4]
 8003a5c:	2800      	cmp	r0, #0
 8003a5e:	f47f ae67 	bne.w	8003730 <rprintf2RamRom+0x14>
 8003a62:	b003      	add	sp, #12
 8003a64:	e8bd 4ff0 	ldmia.w	sp!, {r4, r5, r6, r7, r8, r9, sl, fp, lr}
 8003a68:	b004      	add	sp, #16
 8003a6a:	4770      	bx	lr
 8003a6c:	20000a80 	andcs	r0, r0, r0, lsl #21
 8003a70:	66666667 	strbtvs	r6, [r6], -r7, ror #12
 8003a74:	cccccccd 	stclgt	12, cr12, [ip], {205}	; 0xcd
 8003a78:	0800bcb0 	stmdaeq	r0, {r4, r5, r7, sl, fp, ip, sp, pc}

08003a7c <rprintfInit>:
 8003a7c:	4b01      	ldr	r3, [pc, #4]	; (8003a84 <rprintfInit+0x8>)
 8003a7e:	6018      	str	r0, [r3, #0]
 8003a80:	4770      	bx	lr
 8003a82:	bf00      	nop
 8003a84:	20000a7c 	andcs	r0, r0, ip, ror sl

08003a88 <pointinpoly>:
 8003a88:	b5f0      	push	{r4, r5, r6, r7, lr}
 8003a8a:	4696      	mov	lr, r2
 8003a8c:	00ca      	lsls	r2, r1, #3
 8003a8e:	f1a2 0408 	sub.w	r4, r2, #8
 8003a92:	5905      	ldr	r5, [r0, r4]
 8003a94:	3a04      	subs	r2, #4
 8003a96:	5887      	ldr	r7, [r0, r2]
 8003a98:	f04f 0c00 	mov.w	ip, #0
 8003a9c:	e01a      	b.n	8003ad4 <pointinpoly+0x4c>
 8003a9e:	6802      	ldr	r2, [r0, #0]
 8003aa0:	6844      	ldr	r4, [r0, #4]
 8003aa2:	42a3      	cmp	r3, r4
 8003aa4:	da01      	bge.n	8003aaa <pointinpoly+0x22>
 8003aa6:	429f      	cmp	r7, r3
 8003aa8:	dc0f      	bgt.n	8003aca <pointinpoly+0x42>
 8003aaa:	42a3      	cmp	r3, r4
 8003aac:	db01      	blt.n	8003ab2 <pointinpoly+0x2a>
 8003aae:	429f      	cmp	r7, r3
 8003ab0:	dd0b      	ble.n	8003aca <pointinpoly+0x42>
 8003ab2:	1aad      	subs	r5, r5, r2
 8003ab4:	1b1e      	subs	r6, r3, r4
 8003ab6:	fb06 f605 	mul.w	r6, r6, r5
 8003aba:	1b3d      	subs	r5, r7, r4
 8003abc:	fb96 f5f5 	sdiv	r5, r6, r5
 8003ac0:	4415      	add	r5, r2
 8003ac2:	4575      	cmp	r5, lr
 8003ac4:	dc01      	bgt.n	8003aca <pointinpoly+0x42>
 8003ac6:	f08c 0c01 	eor.w	ip, ip, #1
 8003aca:	3901      	subs	r1, #1
 8003acc:	b289      	uxth	r1, r1
 8003ace:	3008      	adds	r0, #8
 8003ad0:	4627      	mov	r7, r4
 8003ad2:	4615      	mov	r5, r2
 8003ad4:	2900      	cmp	r1, #0
 8003ad6:	d1e2      	bne.n	8003a9e <pointinpoly+0x16>
 8003ad8:	4660      	mov	r0, ip
 8003ada:	bdf0      	pop	{r4, r5, r6, r7, pc}

08003adc <disk_timerproc>:
 8003adc:	4b11      	ldr	r3, [pc, #68]	; (8003b24 <disk_timerproc+0x48>)
 8003ade:	f8d3 3084 	ldr.w	r3, [r3, #132]	; 0x84
 8003ae2:	f013 03ff 	ands.w	r3, r3, #255	; 0xff
 8003ae6:	d004      	beq.n	8003af2 <disk_timerproc+0x16>
 8003ae8:	3b01      	subs	r3, #1
 8003aea:	b2db      	uxtb	r3, r3
 8003aec:	4a0d      	ldr	r2, [pc, #52]	; (8003b24 <disk_timerproc+0x48>)
 8003aee:	f8c2 3084 	str.w	r3, [r2, #132]	; 0x84
 8003af2:	4b0c      	ldr	r3, [pc, #48]	; (8003b24 <disk_timerproc+0x48>)
 8003af4:	f8d3 3088 	ldr.w	r3, [r3, #136]	; 0x88
 8003af8:	f013 03ff 	ands.w	r3, r3, #255	; 0xff
 8003afc:	d004      	beq.n	8003b08 <disk_timerproc+0x2c>
 8003afe:	3b01      	subs	r3, #1
 8003b00:	b2db      	uxtb	r3, r3
 8003b02:	4a08      	ldr	r2, [pc, #32]	; (8003b24 <disk_timerproc+0x48>)
 8003b04:	f8c2 3088 	str.w	r3, [r2, #136]	; 0x88
 8003b08:	4b06      	ldr	r3, [pc, #24]	; (8003b24 <disk_timerproc+0x48>)
 8003b0a:	f8d3 208c 	ldr.w	r2, [r3, #140]	; 0x8c
 8003b0e:	2100      	movs	r1, #0
 8003b10:	f8c3 108c 	str.w	r1, [r3, #140]	; 0x8c
 8003b14:	b922      	cbnz	r2, 8003b20 <disk_timerproc+0x44>
 8003b16:	4a04      	ldr	r2, [pc, #16]	; (8003b28 <disk_timerproc+0x4c>)
 8003b18:	7813      	ldrb	r3, [r2, #0]
 8003b1a:	f003 03f9 	and.w	r3, r3, #249	; 0xf9
 8003b1e:	7013      	strb	r3, [r2, #0]
 8003b20:	4770      	bx	lr
 8003b22:	bf00      	nop
 8003b24:	20000a7c 	andcs	r0, r0, ip, ror sl
 8003b28:	2000007c 	andcs	r0, r0, ip, ror r0

08003b2c <disk_status>:
 8003b2c:	b918      	cbnz	r0, 8003b36 <disk_status+0xa>
 8003b2e:	4b03      	ldr	r3, [pc, #12]	; (8003b3c <disk_status+0x10>)
 8003b30:	7818      	ldrb	r0, [r3, #0]
 8003b32:	b2c0      	uxtb	r0, r0
 8003b34:	4770      	bx	lr
 8003b36:	2001      	movs	r0, #1
 8003b38:	4770      	bx	lr
 8003b3a:	bf00      	nop
 8003b3c:	2000007c 	andcs	r0, r0, ip, ror r0

08003b40 <send_cmd.lto_priv.10>:
 8003b40:	b570      	push	{r4, r5, r6, lr}
 8003b42:	4604      	mov	r4, r0
 8003b44:	460e      	mov	r6, r1
 8003b46:	f010 0f80 	tst.w	r0, #128	; 0x80
 8003b4a:	d007      	beq.n	8003b5c <send_cmd.lto_priv.10+0x1c>
 8003b4c:	f000 047f 	and.w	r4, r0, #127	; 0x7f
 8003b50:	2077      	movs	r0, #119	; 0x77
 8003b52:	2100      	movs	r1, #0
 8003b54:	f7ff fff4 	bl	8003b40 <send_cmd.lto_priv.10>
 8003b58:	2801      	cmp	r0, #1
 8003b5a:	d839      	bhi.n	8003bd0 <send_cmd.lto_priv.10+0x90>
 8003b5c:	4d1d      	ldr	r5, [pc, #116]	; (8003bd4 <send_cmd.lto_priv.10+0x94>)
 8003b5e:	4628      	mov	r0, r5
 8003b60:	f44f 7180 	mov.w	r1, #256	; 0x100
 8003b64:	f006 f9b6 	bl	8009ed4 <GPIO_SetBits>
 8003b68:	4628      	mov	r0, r5
 8003b6a:	f44f 7180 	mov.w	r1, #256	; 0x100
 8003b6e:	f006 f9b3 	bl	8009ed8 <GPIO_ResetBits>
 8003b72:	f001 fe35 	bl	80057e0 <wait_ready.lto_priv.2>
 8003b76:	28ff      	cmp	r0, #255	; 0xff
 8003b78:	d129      	bne.n	8003bce <send_cmd.lto_priv.10+0x8e>
 8003b7a:	4620      	mov	r0, r4
 8003b7c:	f001 fe0c 	bl	8005798 <stm32_spi_rw.lto_priv.6>
 8003b80:	0e30      	lsrs	r0, r6, #24
 8003b82:	f001 fe09 	bl	8005798 <stm32_spi_rw.lto_priv.6>
 8003b86:	f3c6 4007 	ubfx	r0, r6, #16, #8
 8003b8a:	f001 fe05 	bl	8005798 <stm32_spi_rw.lto_priv.6>
 8003b8e:	f3c6 2007 	ubfx	r0, r6, #8, #8
 8003b92:	f001 fe01 	bl	8005798 <stm32_spi_rw.lto_priv.6>
 8003b96:	b2f0      	uxtb	r0, r6
 8003b98:	f001 fdfe 	bl	8005798 <stm32_spi_rw.lto_priv.6>
 8003b9c:	2c40      	cmp	r4, #64	; 0x40
 8003b9e:	d001      	beq.n	8003ba4 <send_cmd.lto_priv.10+0x64>
 8003ba0:	2001      	movs	r0, #1
 8003ba2:	e000      	b.n	8003ba6 <send_cmd.lto_priv.10+0x66>
 8003ba4:	2095      	movs	r0, #149	; 0x95
 8003ba6:	2c48      	cmp	r4, #72	; 0x48
 8003ba8:	d100      	bne.n	8003bac <send_cmd.lto_priv.10+0x6c>
 8003baa:	2087      	movs	r0, #135	; 0x87
 8003bac:	f001 fdf4 	bl	8005798 <stm32_spi_rw.lto_priv.6>
 8003bb0:	2c4c      	cmp	r4, #76	; 0x4c
 8003bb2:	d101      	bne.n	8003bb8 <send_cmd.lto_priv.10+0x78>
 8003bb4:	f001 fe02 	bl	80057bc <rcvr_spi.lto_priv.1>
 8003bb8:	240a      	movs	r4, #10
 8003bba:	f001 fdff 	bl	80057bc <rcvr_spi.lto_priv.1>
 8003bbe:	f010 0f80 	tst.w	r0, #128	; 0x80
 8003bc2:	d005      	beq.n	8003bd0 <send_cmd.lto_priv.10+0x90>
 8003bc4:	1e63      	subs	r3, r4, #1
 8003bc6:	f013 04ff 	ands.w	r4, r3, #255	; 0xff
 8003bca:	d1f6      	bne.n	8003bba <send_cmd.lto_priv.10+0x7a>
 8003bcc:	bd70      	pop	{r4, r5, r6, pc}
 8003bce:	20ff      	movs	r0, #255	; 0xff
 8003bd0:	bd70      	pop	{r4, r5, r6, pc}
 8003bd2:	bf00      	nop
 8003bd4:	40010c00 	andmi	r0, r1, r0, lsl #24

08003bd8 <disk_write>:
 8003bd8:	2800      	cmp	r0, #0
 8003bda:	d149      	bne.n	8003c70 <disk_write+0x98>
 8003bdc:	b570      	push	{r4, r5, r6, lr}
 8003bde:	460d      	mov	r5, r1
 8003be0:	4616      	mov	r6, r2
 8003be2:	461c      	mov	r4, r3
 8003be4:	2b00      	cmp	r3, #0
 8003be6:	d045      	beq.n	8003c74 <disk_write+0x9c>
 8003be8:	4b25      	ldr	r3, [pc, #148]	; (8003c80 <disk_write+0xa8>)
 8003bea:	781b      	ldrb	r3, [r3, #0]
 8003bec:	f013 0f01 	tst.w	r3, #1
 8003bf0:	d142      	bne.n	8003c78 <disk_write+0xa0>
 8003bf2:	4b23      	ldr	r3, [pc, #140]	; (8003c80 <disk_write+0xa8>)
 8003bf4:	781b      	ldrb	r3, [r3, #0]
 8003bf6:	f013 0f04 	tst.w	r3, #4
 8003bfa:	d13f      	bne.n	8003c7c <disk_write+0xa4>
 8003bfc:	4b21      	ldr	r3, [pc, #132]	; (8003c84 <disk_write+0xac>)
 8003bfe:	f893 3090 	ldrb.w	r3, [r3, #144]	; 0x90
 8003c02:	f013 0f08 	tst.w	r3, #8
 8003c06:	d100      	bne.n	8003c0a <disk_write+0x32>
 8003c08:	0256      	lsls	r6, r2, #9
 8003c0a:	2c01      	cmp	r4, #1
 8003c0c:	d10a      	bne.n	8003c24 <disk_write+0x4c>
 8003c0e:	2058      	movs	r0, #88	; 0x58
 8003c10:	4631      	mov	r1, r6
 8003c12:	f7ff ff95 	bl	8003b40 <send_cmd.lto_priv.10>
 8003c16:	bb28      	cbnz	r0, 8003c64 <disk_write+0x8c>
