
main.elf:     file format elf32-littlearm


Disassembly of section .isr_vector:

08000000 <g_pfnVectors>:
 8000000:	20005000 	andcs	r5, r0, r0
 8000004:	08008399 	stmdaeq	r0, {r0, r3, r4, r7, r8, r9, pc}
 8000008:	080083d9 	stmdaeq	r0, {r0, r3, r4, r6, r7, r8, r9, pc}
 800000c:	080083d9 	stmdaeq	r0, {r0, r3, r4, r6, r7, r8, r9, pc}
 8000010:	080083d9 	stmdaeq	r0, {r0, r3, r4, r6, r7, r8, r9, pc}
 8000014:	080083d9 	stmdaeq	r0, {r0, r3, r4, r6, r7, r8, r9, pc}
 8000018:	080083d9 	stmdaeq	r0, {r0, r3, r4, r6, r7, r8, r9, pc}
	...
 800002c:	080083d9 	stmdaeq	r0, {r0, r3, r4, r6, r7, r8, r9, pc}
 8000030:	080083d9 	stmdaeq	r0, {r0, r3, r4, r6, r7, r8, r9, pc}
 8000034:	00000000 	andeq	r0, r0, r0
 8000038:	080083d9 	stmdaeq	r0, {r0, r3, r4, r6, r7, r8, r9, pc}
 800003c:	080052e9 	stmdaeq	r0, {r0, r3, r5, r6, r7, r9, ip, lr}
 8000040:	080083d9 	stmdaeq	r0, {r0, r3, r4, r6, r7, r8, r9, pc}
 8000044:	080083d9 	stmdaeq	r0, {r0, r3, r4, r6, r7, r8, r9, pc}
 8000048:	080083d9 	stmdaeq	r0, {r0, r3, r4, r6, r7, r8, r9, pc}
 800004c:	080083d9 	stmdaeq	r0, {r0, r3, r4, r6, r7, r8, r9, pc}
 8000050:	080083d9 	stmdaeq	r0, {r0, r3, r4, r6, r7, r8, r9, pc}
 8000054:	080083d9 	stmdaeq	r0, {r0, r3, r4, r6, r7, r8, r9, pc}
 8000058:	0800608d 	stmdaeq	r0, {r0, r2, r3, r7, sp, lr}
 800005c:	080083d9 	stmdaeq	r0, {r0, r3, r4, r6, r7, r8, r9, pc}
 8000060:	080083d9 	stmdaeq	r0, {r0, r3, r4, r6, r7, r8, r9, pc}
 8000064:	080083d9 	stmdaeq	r0, {r0, r3, r4, r6, r7, r8, r9, pc}
 8000068:	080083d9 	stmdaeq	r0, {r0, r3, r4, r6, r7, r8, r9, pc}
 800006c:	080083d9 	stmdaeq	r0, {r0, r3, r4, r6, r7, r8, r9, pc}
 8000070:	08003aa5 	stmdaeq	r0, {r0, r2, r5, r7, r9, fp, ip, sp}
 8000074:	08003acf 	stmdaeq	r0, {r0, r1, r2, r3, r6, r7, r9, fp, ip, sp}
 8000078:	080083d9 	stmdaeq	r0, {r0, r3, r4, r6, r7, r8, r9, pc}
 800007c:	080083d9 	stmdaeq	r0, {r0, r3, r4, r6, r7, r8, r9, pc}
 8000080:	080083d9 	stmdaeq	r0, {r0, r3, r4, r6, r7, r8, r9, pc}
 8000084:	080083d9 	stmdaeq	r0, {r0, r3, r4, r6, r7, r8, r9, pc}
 8000088:	080050fd 	stmdaeq	r0, {r0, r2, r3, r4, r5, r6, r7, ip, lr}
 800008c:	080050f9 	stmdaeq	r0, {r0, r3, r4, r5, r6, r7, ip, lr}
 8000090:	08005025 	stmdaeq	r0, {r0, r2, r5, ip, lr}
 8000094:	080083d9 	stmdaeq	r0, {r0, r3, r4, r6, r7, r8, r9, pc}
 8000098:	080083d9 	stmdaeq	r0, {r0, r3, r4, r6, r7, r8, r9, pc}
 800009c:	080083d9 	stmdaeq	r0, {r0, r3, r4, r6, r7, r8, r9, pc}
 80000a0:	080083d9 	stmdaeq	r0, {r0, r3, r4, r6, r7, r8, r9, pc}
 80000a4:	080083d9 	stmdaeq	r0, {r0, r3, r4, r6, r7, r8, r9, pc}
 80000a8:	080083d9 	stmdaeq	r0, {r0, r3, r4, r6, r7, r8, r9, pc}
 80000ac:	080083d9 	stmdaeq	r0, {r0, r3, r4, r6, r7, r8, r9, pc}
 80000b0:	080083d9 	stmdaeq	r0, {r0, r3, r4, r6, r7, r8, r9, pc}
 80000b4:	080083d9 	stmdaeq	r0, {r0, r3, r4, r6, r7, r8, r9, pc}
 80000b8:	080083d9 	stmdaeq	r0, {r0, r3, r4, r6, r7, r8, r9, pc}
 80000bc:	08005955 	stmdaeq	r0, {r0, r2, r4, r6, r8, fp, ip, lr}
 80000c0:	08005871 	stmdaeq	r0, {r0, r4, r5, r6, fp, ip, lr}
 80000c4:	080083d9 	stmdaeq	r0, {r0, r3, r4, r6, r7, r8, r9, pc}
 80000c8:	080083d9 	stmdaeq	r0, {r0, r3, r4, r6, r7, r8, r9, pc}
 80000cc:	080083d9 	stmdaeq	r0, {r0, r3, r4, r6, r7, r8, r9, pc}
 80000d0:	080083d9 	stmdaeq	r0, {r0, r3, r4, r6, r7, r8, r9, pc}
 80000d4:	080070dd 	stmdaeq	r0, {r0, r2, r3, r4, r6, r7, ip, sp, lr}
 80000d8:	080083d9 	stmdaeq	r0, {r0, r3, r4, r6, r7, r8, r9, pc}
 80000dc:	08006019 	stmdaeq	r0, {r0, r3, r4, sp, lr}
 80000e0:	08003a71 	stmdaeq	r0, {r0, r4, r5, r6, r9, fp, ip, sp}
 80000e4:	080083d9 	stmdaeq	r0, {r0, r3, r4, r6, r7, r8, r9, pc}
 80000e8:	080083d9 	stmdaeq	r0, {r0, r3, r4, r6, r7, r8, r9, pc}
	...
 8000108:	f108f85f 			; <UNDEFINED> instruction: 0xf108f85f

Disassembly of section .text:

08000110 <__aeabi_drsub>:
 8000110:	f081 4100 	eor.w	r1, r1, #2147483648	; 0x80000000
 8000114:	e002      	b.n	800011c <__adddf3>
 8000116:	bf00      	nop

08000118 <__aeabi_dsub>:
 8000118:	f083 4300 	eor.w	r3, r3, #2147483648	; 0x80000000

0800011c <__adddf3>:
 800011c:	b530      	push	{r4, r5, lr}
 800011e:	ea4f 0441 	mov.w	r4, r1, lsl #1
 8000122:	ea4f 0543 	mov.w	r5, r3, lsl #1
 8000126:	ea94 0f05 	teq	r4, r5
 800012a:	bf08      	it	eq
 800012c:	ea90 0f02 	teqeq	r0, r2
 8000130:	bf1f      	itttt	ne
 8000132:	ea54 0c00 	orrsne.w	ip, r4, r0
 8000136:	ea55 0c02 	orrsne.w	ip, r5, r2
 800013a:	ea7f 5c64 	mvnsne.w	ip, r4, asr #21
 800013e:	ea7f 5c65 	mvnsne.w	ip, r5, asr #21
 8000142:	f000 80e2 	beq.w	800030a <__adddf3+0x1ee>
 8000146:	ea4f 5454 	mov.w	r4, r4, lsr #21
 800014a:	ebd4 5555 	rsbs	r5, r4, r5, lsr #21
 800014e:	bfb8      	it	lt
 8000150:	426d      	neglt	r5, r5
 8000152:	dd0c      	ble.n	800016e <__adddf3+0x52>
 8000154:	442c      	add	r4, r5
 8000156:	ea80 0202 	eor.w	r2, r0, r2
 800015a:	ea81 0303 	eor.w	r3, r1, r3
 800015e:	ea82 0000 	eor.w	r0, r2, r0
 8000162:	ea83 0101 	eor.w	r1, r3, r1
 8000166:	ea80 0202 	eor.w	r2, r0, r2
 800016a:	ea81 0303 	eor.w	r3, r1, r3
 800016e:	2d36      	cmp	r5, #54	; 0x36
 8000170:	bf88      	it	hi
 8000172:	bd30      	pophi	{r4, r5, pc}
 8000174:	f011 4f00 	tst.w	r1, #2147483648	; 0x80000000
 8000178:	ea4f 3101 	mov.w	r1, r1, lsl #12
 800017c:	f44f 1c80 	mov.w	ip, #1048576	; 0x100000
 8000180:	ea4c 3111 	orr.w	r1, ip, r1, lsr #12
 8000184:	d002      	beq.n	800018c <__adddf3+0x70>
 8000186:	4240      	negs	r0, r0
 8000188:	eb61 0141 	sbc.w	r1, r1, r1, lsl #1
 800018c:	f013 4f00 	tst.w	r3, #2147483648	; 0x80000000
 8000190:	ea4f 3303 	mov.w	r3, r3, lsl #12
 8000194:	ea4c 3313 	orr.w	r3, ip, r3, lsr #12
 8000198:	d002      	beq.n	80001a0 <__adddf3+0x84>
 800019a:	4252      	negs	r2, r2
 800019c:	eb63 0343 	sbc.w	r3, r3, r3, lsl #1
 80001a0:	ea94 0f05 	teq	r4, r5
 80001a4:	f000 80a7 	beq.w	80002f6 <__adddf3+0x1da>
 80001a8:	f1a4 0401 	sub.w	r4, r4, #1
 80001ac:	f1d5 0e20 	rsbs	lr, r5, #32
 80001b0:	db0d      	blt.n	80001ce <__adddf3+0xb2>
 80001b2:	fa02 fc0e 	lsl.w	ip, r2, lr
 80001b6:	fa22 f205 	lsr.w	r2, r2, r5
 80001ba:	1880      	adds	r0, r0, r2
 80001bc:	f141 0100 	adc.w	r1, r1, #0
 80001c0:	fa03 f20e 	lsl.w	r2, r3, lr
 80001c4:	1880      	adds	r0, r0, r2
 80001c6:	fa43 f305 	asr.w	r3, r3, r5
 80001ca:	4159      	adcs	r1, r3
 80001cc:	e00e      	b.n	80001ec <__adddf3+0xd0>
 80001ce:	f1a5 0520 	sub.w	r5, r5, #32
 80001d2:	f10e 0e20 	add.w	lr, lr, #32
 80001d6:	2a01      	cmp	r2, #1
 80001d8:	fa03 fc0e 	lsl.w	ip, r3, lr
 80001dc:	bf28      	it	cs
 80001de:	f04c 0c02 	orrcs.w	ip, ip, #2
 80001e2:	fa43 f305 	asr.w	r3, r3, r5
 80001e6:	18c0      	adds	r0, r0, r3
 80001e8:	eb51 71e3 	adcs.w	r1, r1, r3, asr #31
 80001ec:	f001 4500 	and.w	r5, r1, #2147483648	; 0x80000000
 80001f0:	d507      	bpl.n	8000202 <__adddf3+0xe6>
 80001f2:	f04f 0e00 	mov.w	lr, #0
 80001f6:	f1dc 0c00 	rsbs	ip, ip, #0
 80001fa:	eb7e 0000 	sbcs.w	r0, lr, r0
 80001fe:	eb6e 0101 	sbc.w	r1, lr, r1
 8000202:	f5b1 1f80 	cmp.w	r1, #1048576	; 0x100000
 8000206:	d31b      	bcc.n	8000240 <__adddf3+0x124>
 8000208:	f5b1 1f00 	cmp.w	r1, #2097152	; 0x200000
 800020c:	d30c      	bcc.n	8000228 <__adddf3+0x10c>
 800020e:	0849      	lsrs	r1, r1, #1
 8000210:	ea5f 0030 	movs.w	r0, r0, rrx
 8000214:	ea4f 0c3c 	mov.w	ip, ip, rrx
 8000218:	f104 0401 	add.w	r4, r4, #1
 800021c:	ea4f 5244 	mov.w	r2, r4, lsl #21
 8000220:	f512 0f80 	cmn.w	r2, #4194304	; 0x400000
 8000224:	f080 809a 	bcs.w	800035c <__adddf3+0x240>
 8000228:	f1bc 4f00 	cmp.w	ip, #2147483648	; 0x80000000
 800022c:	bf08      	it	eq
 800022e:	ea5f 0c50 	movseq.w	ip, r0, lsr #1
 8000232:	f150 0000 	adcs.w	r0, r0, #0
 8000236:	eb41 5104 	adc.w	r1, r1, r4, lsl #20
 800023a:	ea41 0105 	orr.w	r1, r1, r5
 800023e:	bd30      	pop	{r4, r5, pc}
 8000240:	ea5f 0c4c 	movs.w	ip, ip, lsl #1
 8000244:	4140      	adcs	r0, r0
 8000246:	eb41 0101 	adc.w	r1, r1, r1
 800024a:	f411 1f80 	tst.w	r1, #1048576	; 0x100000
 800024e:	f1a4 0401 	sub.w	r4, r4, #1
 8000252:	d1e9      	bne.n	8000228 <__adddf3+0x10c>
 8000254:	f091 0f00 	teq	r1, #0
 8000258:	bf04      	itt	eq
 800025a:	4601      	moveq	r1, r0
 800025c:	2000      	moveq	r0, #0
 800025e:	fab1 f381 	clz	r3, r1
 8000262:	bf08      	it	eq
 8000264:	3320      	addeq	r3, #32
 8000266:	f1a3 030b 	sub.w	r3, r3, #11
 800026a:	f1b3 0220 	subs.w	r2, r3, #32
 800026e:	da0c      	bge.n	800028a <__adddf3+0x16e>
 8000270:	320c      	adds	r2, #12
 8000272:	dd08      	ble.n	8000286 <__adddf3+0x16a>
 8000274:	f102 0c14 	add.w	ip, r2, #20
 8000278:	f1c2 020c 	rsb	r2, r2, #12
 800027c:	fa01 f00c 	lsl.w	r0, r1, ip
 8000280:	fa21 f102 	lsr.w	r1, r1, r2
 8000284:	e00c      	b.n	80002a0 <__adddf3+0x184>
 8000286:	f102 0214 	add.w	r2, r2, #20
 800028a:	bfd8      	it	le
 800028c:	f1c2 0c20 	rsble	ip, r2, #32
 8000290:	fa01 f102 	lsl.w	r1, r1, r2
 8000294:	fa20 fc0c 	lsr.w	ip, r0, ip
 8000298:	bfdc      	itt	le
 800029a:	ea41 010c 	orrle.w	r1, r1, ip
 800029e:	4090      	lslle	r0, r2
 80002a0:	1ae4      	subs	r4, r4, r3
 80002a2:	bfa2      	ittt	ge
 80002a4:	eb01 5104 	addge.w	r1, r1, r4, lsl #20
 80002a8:	4329      	orrge	r1, r5
 80002aa:	bd30      	popge	{r4, r5, pc}
 80002ac:	ea6f 0404 	mvn.w	r4, r4
 80002b0:	3c1f      	subs	r4, #31
 80002b2:	da1c      	bge.n	80002ee <__adddf3+0x1d2>
 80002b4:	340c      	adds	r4, #12
 80002b6:	dc0e      	bgt.n	80002d6 <__adddf3+0x1ba>
 80002b8:	f104 0414 	add.w	r4, r4, #20
 80002bc:	f1c4 0220 	rsb	r2, r4, #32
 80002c0:	fa20 f004 	lsr.w	r0, r0, r4
 80002c4:	fa01 f302 	lsl.w	r3, r1, r2
 80002c8:	ea40 0003 	orr.w	r0, r0, r3
 80002cc:	fa21 f304 	lsr.w	r3, r1, r4
 80002d0:	ea45 0103 	orr.w	r1, r5, r3
 80002d4:	bd30      	pop	{r4, r5, pc}
 80002d6:	f1c4 040c 	rsb	r4, r4, #12
 80002da:	f1c4 0220 	rsb	r2, r4, #32
 80002de:	fa20 f002 	lsr.w	r0, r0, r2
 80002e2:	fa01 f304 	lsl.w	r3, r1, r4
 80002e6:	ea40 0003 	orr.w	r0, r0, r3
 80002ea:	4629      	mov	r1, r5
 80002ec:	bd30      	pop	{r4, r5, pc}
 80002ee:	fa21 f004 	lsr.w	r0, r1, r4
 80002f2:	4629      	mov	r1, r5
 80002f4:	bd30      	pop	{r4, r5, pc}
 80002f6:	f094 0f00 	teq	r4, #0
 80002fa:	f483 1380 	eor.w	r3, r3, #1048576	; 0x100000
 80002fe:	bf06      	itte	eq
 8000300:	f481 1180 	eoreq.w	r1, r1, #1048576	; 0x100000
 8000304:	3401      	addeq	r4, #1
 8000306:	3d01      	subne	r5, #1
 8000308:	e74e      	b.n	80001a8 <__adddf3+0x8c>
 800030a:	ea7f 5c64 	mvns.w	ip, r4, asr #21
 800030e:	bf18      	it	ne
 8000310:	ea7f 5c65 	mvnsne.w	ip, r5, asr #21
 8000314:	d029      	beq.n	800036a <__adddf3+0x24e>
 8000316:	ea94 0f05 	teq	r4, r5
 800031a:	bf08      	it	eq
 800031c:	ea90 0f02 	teqeq	r0, r2
 8000320:	d005      	beq.n	800032e <__adddf3+0x212>
 8000322:	ea54 0c00 	orrs.w	ip, r4, r0
 8000326:	bf04      	itt	eq
 8000328:	4619      	moveq	r1, r3
 800032a:	4610      	moveq	r0, r2
 800032c:	bd30      	pop	{r4, r5, pc}
 800032e:	ea91 0f03 	teq	r1, r3
 8000332:	bf1e      	ittt	ne
 8000334:	2100      	movne	r1, #0
 8000336:	2000      	movne	r0, #0
 8000338:	bd30      	popne	{r4, r5, pc}
 800033a:	ea5f 5c54 	movs.w	ip, r4, lsr #21
 800033e:	d105      	bne.n	800034c <__adddf3+0x230>
 8000340:	0040      	lsls	r0, r0, #1
 8000342:	4149      	adcs	r1, r1
 8000344:	bf28      	it	cs
 8000346:	f041 4100 	orrcs.w	r1, r1, #2147483648	; 0x80000000
 800034a:	bd30      	pop	{r4, r5, pc}
 800034c:	f514 0480 	adds.w	r4, r4, #4194304	; 0x400000
 8000350:	bf3c      	itt	cc
 8000352:	f501 1180 	addcc.w	r1, r1, #1048576	; 0x100000
 8000356:	bd30      	popcc	{r4, r5, pc}
 8000358:	f001 4500 	and.w	r5, r1, #2147483648	; 0x80000000
 800035c:	f045 41fe 	orr.w	r1, r5, #2130706432	; 0x7f000000
 8000360:	f441 0170 	orr.w	r1, r1, #15728640	; 0xf00000
 8000364:	f04f 0000 	mov.w	r0, #0
 8000368:	bd30      	pop	{r4, r5, pc}
 800036a:	ea7f 5c64 	mvns.w	ip, r4, asr #21
 800036e:	bf1a      	itte	ne
 8000370:	4619      	movne	r1, r3
 8000372:	4610      	movne	r0, r2
 8000374:	ea7f 5c65 	mvnseq.w	ip, r5, asr #21
 8000378:	bf1c      	itt	ne
 800037a:	460b      	movne	r3, r1
 800037c:	4602      	movne	r2, r0
 800037e:	ea50 3401 	orrs.w	r4, r0, r1, lsl #12
 8000382:	bf06      	itte	eq
 8000384:	ea52 3503 	orrseq.w	r5, r2, r3, lsl #12
 8000388:	ea91 0f03 	teqeq	r1, r3
 800038c:	f441 2100 	orrne.w	r1, r1, #524288	; 0x80000
 8000390:	bd30      	pop	{r4, r5, pc}
 8000392:	bf00      	nop

08000394 <__aeabi_ui2d>:
 8000394:	f090 0f00 	teq	r0, #0
 8000398:	bf04      	itt	eq
 800039a:	2100      	moveq	r1, #0
 800039c:	4770      	bxeq	lr
 800039e:	b530      	push	{r4, r5, lr}
 80003a0:	f44f 6480 	mov.w	r4, #1024	; 0x400
 80003a4:	f104 0432 	add.w	r4, r4, #50	; 0x32
 80003a8:	f04f 0500 	mov.w	r5, #0
 80003ac:	f04f 0100 	mov.w	r1, #0
 80003b0:	e750      	b.n	8000254 <__adddf3+0x138>
 80003b2:	bf00      	nop

080003b4 <__aeabi_i2d>:
 80003b4:	f090 0f00 	teq	r0, #0
 80003b8:	bf04      	itt	eq
 80003ba:	2100      	moveq	r1, #0
 80003bc:	4770      	bxeq	lr
 80003be:	b530      	push	{r4, r5, lr}
 80003c0:	f44f 6480 	mov.w	r4, #1024	; 0x400
 80003c4:	f104 0432 	add.w	r4, r4, #50	; 0x32
 80003c8:	f010 4500 	ands.w	r5, r0, #2147483648	; 0x80000000
 80003cc:	bf48      	it	mi
 80003ce:	4240      	negmi	r0, r0
 80003d0:	f04f 0100 	mov.w	r1, #0
 80003d4:	e73e      	b.n	8000254 <__adddf3+0x138>
 80003d6:	bf00      	nop

080003d8 <__aeabi_f2d>:
 80003d8:	0042      	lsls	r2, r0, #1
 80003da:	ea4f 01e2 	mov.w	r1, r2, asr #3
 80003de:	ea4f 0131 	mov.w	r1, r1, rrx
 80003e2:	ea4f 7002 	mov.w	r0, r2, lsl #28
 80003e6:	bf1f      	itttt	ne
 80003e8:	f012 437f 	andsne.w	r3, r2, #4278190080	; 0xff000000
 80003ec:	f093 4f7f 	teqne	r3, #4278190080	; 0xff000000
 80003f0:	f081 5160 	eorne.w	r1, r1, #939524096	; 0x38000000
 80003f4:	4770      	bxne	lr
 80003f6:	f092 0f00 	teq	r2, #0
 80003fa:	bf14      	ite	ne
 80003fc:	f093 4f7f 	teqne	r3, #4278190080	; 0xff000000
 8000400:	4770      	bxeq	lr
 8000402:	b530      	push	{r4, r5, lr}
 8000404:	f44f 7460 	mov.w	r4, #896	; 0x380
 8000408:	f001 4500 	and.w	r5, r1, #2147483648	; 0x80000000
 800040c:	f021 4100 	bic.w	r1, r1, #2147483648	; 0x80000000
 8000410:	e720      	b.n	8000254 <__adddf3+0x138>
 8000412:	bf00      	nop

08000414 <__aeabi_ul2d>:
 8000414:	ea50 0201 	orrs.w	r2, r0, r1
 8000418:	bf08      	it	eq
 800041a:	4770      	bxeq	lr
 800041c:	b530      	push	{r4, r5, lr}
 800041e:	f04f 0500 	mov.w	r5, #0
 8000422:	e00a      	b.n	800043a <__aeabi_l2d+0x16>

08000424 <__aeabi_l2d>:
 8000424:	ea50 0201 	orrs.w	r2, r0, r1
 8000428:	bf08      	it	eq
 800042a:	4770      	bxeq	lr
 800042c:	b530      	push	{r4, r5, lr}
 800042e:	f011 4500 	ands.w	r5, r1, #2147483648	; 0x80000000
 8000432:	d502      	bpl.n	800043a <__aeabi_l2d+0x16>
 8000434:	4240      	negs	r0, r0
 8000436:	eb61 0141 	sbc.w	r1, r1, r1, lsl #1
 800043a:	f44f 6480 	mov.w	r4, #1024	; 0x400
 800043e:	f104 0432 	add.w	r4, r4, #50	; 0x32
 8000442:	ea5f 5c91 	movs.w	ip, r1, lsr #22
 8000446:	f43f aedc 	beq.w	8000202 <__adddf3+0xe6>
 800044a:	f04f 0203 	mov.w	r2, #3
 800044e:	ea5f 0cdc 	movs.w	ip, ip, lsr #3
 8000452:	bf18      	it	ne
 8000454:	3203      	addne	r2, #3
 8000456:	ea5f 0cdc 	movs.w	ip, ip, lsr #3
 800045a:	bf18      	it	ne
 800045c:	3203      	addne	r2, #3
 800045e:	eb02 02dc 	add.w	r2, r2, ip, lsr #3
 8000462:	f1c2 0320 	rsb	r3, r2, #32
 8000466:	fa00 fc03 	lsl.w	ip, r0, r3
 800046a:	fa20 f002 	lsr.w	r0, r0, r2
 800046e:	fa01 fe03 	lsl.w	lr, r1, r3
 8000472:	ea40 000e 	orr.w	r0, r0, lr
 8000476:	fa21 f102 	lsr.w	r1, r1, r2
 800047a:	4414      	add	r4, r2
 800047c:	e6c1      	b.n	8000202 <__adddf3+0xe6>
 800047e:	bf00      	nop

08000480 <__aeabi_dmul>:
 8000480:	b570      	push	{r4, r5, r6, lr}
 8000482:	f04f 0cff 	mov.w	ip, #255	; 0xff
 8000486:	f44c 6ce0 	orr.w	ip, ip, #1792	; 0x700
 800048a:	ea1c 5411 	ands.w	r4, ip, r1, lsr #20
 800048e:	bf1d      	ittte	ne
 8000490:	ea1c 5513 	andsne.w	r5, ip, r3, lsr #20
 8000494:	ea94 0f0c 	teqne	r4, ip
 8000498:	ea95 0f0c 	teqne	r5, ip
 800049c:	f000 f8de 	bleq	800065c <__aeabi_dmul+0x1dc>
 80004a0:	442c      	add	r4, r5
 80004a2:	ea81 0603 	eor.w	r6, r1, r3
 80004a6:	ea21 514c 	bic.w	r1, r1, ip, lsl #21
 80004aa:	ea23 534c 	bic.w	r3, r3, ip, lsl #21
 80004ae:	ea50 3501 	orrs.w	r5, r0, r1, lsl #12
 80004b2:	bf18      	it	ne
 80004b4:	ea52 3503 	orrsne.w	r5, r2, r3, lsl #12
 80004b8:	f441 1180 	orr.w	r1, r1, #1048576	; 0x100000
 80004bc:	f443 1380 	orr.w	r3, r3, #1048576	; 0x100000
 80004c0:	d038      	beq.n	8000534 <__aeabi_dmul+0xb4>
 80004c2:	fba0 ce02 	umull	ip, lr, r0, r2
 80004c6:	f04f 0500 	mov.w	r5, #0
 80004ca:	fbe1 e502 	umlal	lr, r5, r1, r2
 80004ce:	f006 4200 	and.w	r2, r6, #2147483648	; 0x80000000
 80004d2:	fbe0 e503 	umlal	lr, r5, r0, r3
 80004d6:	f04f 0600 	mov.w	r6, #0
 80004da:	fbe1 5603 	umlal	r5, r6, r1, r3
 80004de:	f09c 0f00 	teq	ip, #0
 80004e2:	bf18      	it	ne
 80004e4:	f04e 0e01 	orrne.w	lr, lr, #1
 80004e8:	f1a4 04ff 	sub.w	r4, r4, #255	; 0xff
 80004ec:	f5b6 7f00 	cmp.w	r6, #512	; 0x200
 80004f0:	f564 7440 	sbc.w	r4, r4, #768	; 0x300
 80004f4:	d204      	bcs.n	8000500 <__aeabi_dmul+0x80>
 80004f6:	ea5f 0e4e 	movs.w	lr, lr, lsl #1
 80004fa:	416d      	adcs	r5, r5
 80004fc:	eb46 0606 	adc.w	r6, r6, r6
 8000500:	ea42 21c6 	orr.w	r1, r2, r6, lsl #11
 8000504:	ea41 5155 	orr.w	r1, r1, r5, lsr #21
 8000508:	ea4f 20c5 	mov.w	r0, r5, lsl #11
 800050c:	ea40 505e 	orr.w	r0, r0, lr, lsr #21
 8000510:	ea4f 2ece 	mov.w	lr, lr, lsl #11
 8000514:	f1b4 0cfd 	subs.w	ip, r4, #253	; 0xfd
 8000518:	bf88      	it	hi
 800051a:	f5bc 6fe0 	cmphi.w	ip, #1792	; 0x700
 800051e:	d81e      	bhi.n	800055e <__aeabi_dmul+0xde>
 8000520:	f1be 4f00 	cmp.w	lr, #2147483648	; 0x80000000
 8000524:	bf08      	it	eq
 8000526:	ea5f 0e50 	movseq.w	lr, r0, lsr #1
 800052a:	f150 0000 	adcs.w	r0, r0, #0
 800052e:	eb41 5104 	adc.w	r1, r1, r4, lsl #20
 8000532:	bd70      	pop	{r4, r5, r6, pc}
 8000534:	f006 4600 	and.w	r6, r6, #2147483648	; 0x80000000
 8000538:	ea46 0101 	orr.w	r1, r6, r1
 800053c:	ea40 0002 	orr.w	r0, r0, r2
 8000540:	ea81 0103 	eor.w	r1, r1, r3
 8000544:	ebb4 045c 	subs.w	r4, r4, ip, lsr #1
 8000548:	bfc2      	ittt	gt
 800054a:	ebd4 050c 	rsbsgt	r5, r4, ip
 800054e:	ea41 5104 	orrgt.w	r1, r1, r4, lsl #20
 8000552:	bd70      	popgt	{r4, r5, r6, pc}
 8000554:	f441 1180 	orr.w	r1, r1, #1048576	; 0x100000
 8000558:	f04f 0e00 	mov.w	lr, #0
 800055c:	3c01      	subs	r4, #1
 800055e:	f300 80ab 	bgt.w	80006b8 <__aeabi_dmul+0x238>
 8000562:	f114 0f36 	cmn.w	r4, #54	; 0x36
 8000566:	bfde      	ittt	le
 8000568:	2000      	movle	r0, #0
 800056a:	f001 4100 	andle.w	r1, r1, #2147483648	; 0x80000000
 800056e:	bd70      	pople	{r4, r5, r6, pc}
 8000570:	f1c4 0400 	rsb	r4, r4, #0
 8000574:	3c20      	subs	r4, #32
 8000576:	da35      	bge.n	80005e4 <__aeabi_dmul+0x164>
 8000578:	340c      	adds	r4, #12
 800057a:	dc1b      	bgt.n	80005b4 <__aeabi_dmul+0x134>
 800057c:	f104 0414 	add.w	r4, r4, #20
 8000580:	f1c4 0520 	rsb	r5, r4, #32
 8000584:	fa00 f305 	lsl.w	r3, r0, r5
 8000588:	fa20 f004 	lsr.w	r0, r0, r4
 800058c:	fa01 f205 	lsl.w	r2, r1, r5
 8000590:	ea40 0002 	orr.w	r0, r0, r2
 8000594:	f001 4200 	and.w	r2, r1, #2147483648	; 0x80000000
 8000598:	f021 4100 	bic.w	r1, r1, #2147483648	; 0x80000000
 800059c:	eb10 70d3 	adds.w	r0, r0, r3, lsr #31
 80005a0:	fa21 f604 	lsr.w	r6, r1, r4
 80005a4:	eb42 0106 	adc.w	r1, r2, r6
 80005a8:	ea5e 0e43 	orrs.w	lr, lr, r3, lsl #1
 80005ac:	bf08      	it	eq
 80005ae:	ea20 70d3 	biceq.w	r0, r0, r3, lsr #31
 80005b2:	bd70      	pop	{r4, r5, r6, pc}
 80005b4:	f1c4 040c 	rsb	r4, r4, #12
 80005b8:	f1c4 0520 	rsb	r5, r4, #32
 80005bc:	fa00 f304 	lsl.w	r3, r0, r4
 80005c0:	fa20 f005 	lsr.w	r0, r0, r5
 80005c4:	fa01 f204 	lsl.w	r2, r1, r4
 80005c8:	ea40 0002 	orr.w	r0, r0, r2
 80005cc:	f001 4100 	and.w	r1, r1, #2147483648	; 0x80000000
 80005d0:	eb10 70d3 	adds.w	r0, r0, r3, lsr #31
 80005d4:	f141 0100 	adc.w	r1, r1, #0
 80005d8:	ea5e 0e43 	orrs.w	lr, lr, r3, lsl #1
 80005dc:	bf08      	it	eq
 80005de:	ea20 70d3 	biceq.w	r0, r0, r3, lsr #31
 80005e2:	bd70      	pop	{r4, r5, r6, pc}
 80005e4:	f1c4 0520 	rsb	r5, r4, #32
 80005e8:	fa00 f205 	lsl.w	r2, r0, r5
 80005ec:	ea4e 0e02 	orr.w	lr, lr, r2
 80005f0:	fa20 f304 	lsr.w	r3, r0, r4
 80005f4:	fa01 f205 	lsl.w	r2, r1, r5
 80005f8:	ea43 0302 	orr.w	r3, r3, r2
 80005fc:	fa21 f004 	lsr.w	r0, r1, r4
 8000600:	f001 4100 	and.w	r1, r1, #2147483648	; 0x80000000
 8000604:	fa21 f204 	lsr.w	r2, r1, r4
 8000608:	ea20 0002 	bic.w	r0, r0, r2
 800060c:	eb00 70d3 	add.w	r0, r0, r3, lsr #31
 8000610:	ea5e 0e43 	orrs.w	lr, lr, r3, lsl #1
 8000614:	bf08      	it	eq
 8000616:	ea20 70d3 	biceq.w	r0, r0, r3, lsr #31
 800061a:	bd70      	pop	{r4, r5, r6, pc}
 800061c:	f094 0f00 	teq	r4, #0
 8000620:	d10f      	bne.n	8000642 <__aeabi_dmul+0x1c2>
 8000622:	f001 4600 	and.w	r6, r1, #2147483648	; 0x80000000
 8000626:	0040      	lsls	r0, r0, #1
 8000628:	eb41 0101 	adc.w	r1, r1, r1
 800062c:	f411 1f80 	tst.w	r1, #1048576	; 0x100000
 8000630:	bf08      	it	eq
 8000632:	3c01      	subeq	r4, #1
 8000634:	d0f7      	beq.n	8000626 <__aeabi_dmul+0x1a6>
 8000636:	ea41 0106 	orr.w	r1, r1, r6
 800063a:	f095 0f00 	teq	r5, #0
 800063e:	bf18      	it	ne
 8000640:	4770      	bxne	lr
 8000642:	f003 4600 	and.w	r6, r3, #2147483648	; 0x80000000
 8000646:	0052      	lsls	r2, r2, #1
 8000648:	eb43 0303 	adc.w	r3, r3, r3
 800064c:	f413 1f80 	tst.w	r3, #1048576	; 0x100000
 8000650:	bf08      	it	eq
 8000652:	3d01      	subeq	r5, #1
 8000654:	d0f7      	beq.n	8000646 <__aeabi_dmul+0x1c6>
 8000656:	ea43 0306 	orr.w	r3, r3, r6
 800065a:	4770      	bx	lr
 800065c:	ea94 0f0c 	teq	r4, ip
 8000660:	ea0c 5513 	and.w	r5, ip, r3, lsr #20
 8000664:	bf18      	it	ne
 8000666:	ea95 0f0c 	teqne	r5, ip
 800066a:	d00c      	beq.n	8000686 <__aeabi_dmul+0x206>
 800066c:	ea50 0641 	orrs.w	r6, r0, r1, lsl #1
 8000670:	bf18      	it	ne
 8000672:	ea52 0643 	orrsne.w	r6, r2, r3, lsl #1
 8000676:	d1d1      	bne.n	800061c <__aeabi_dmul+0x19c>
 8000678:	ea81 0103 	eor.w	r1, r1, r3
 800067c:	f001 4100 	and.w	r1, r1, #2147483648	; 0x80000000
 8000680:	f04f 0000 	mov.w	r0, #0
 8000684:	bd70      	pop	{r4, r5, r6, pc}
 8000686:	ea50 0641 	orrs.w	r6, r0, r1, lsl #1
 800068a:	bf06      	itte	eq
 800068c:	4610      	moveq	r0, r2
 800068e:	4619      	moveq	r1, r3
 8000690:	ea52 0643 	orrsne.w	r6, r2, r3, lsl #1
 8000694:	d019      	beq.n	80006ca <__aeabi_dmul+0x24a>
 8000696:	ea94 0f0c 	teq	r4, ip
 800069a:	d102      	bne.n	80006a2 <__aeabi_dmul+0x222>
 800069c:	ea50 3601 	orrs.w	r6, r0, r1, lsl #12
 80006a0:	d113      	bne.n	80006ca <__aeabi_dmul+0x24a>
 80006a2:	ea95 0f0c 	teq	r5, ip
 80006a6:	d105      	bne.n	80006b4 <__aeabi_dmul+0x234>
 80006a8:	ea52 3603 	orrs.w	r6, r2, r3, lsl #12
 80006ac:	bf1c      	itt	ne
 80006ae:	4610      	movne	r0, r2
 80006b0:	4619      	movne	r1, r3
 80006b2:	d10a      	bne.n	80006ca <__aeabi_dmul+0x24a>
 80006b4:	ea81 0103 	eor.w	r1, r1, r3
 80006b8:	f001 4100 	and.w	r1, r1, #2147483648	; 0x80000000
 80006bc:	f041 41fe 	orr.w	r1, r1, #2130706432	; 0x7f000000
 80006c0:	f441 0170 	orr.w	r1, r1, #15728640	; 0xf00000
 80006c4:	f04f 0000 	mov.w	r0, #0
 80006c8:	bd70      	pop	{r4, r5, r6, pc}
 80006ca:	f041 41fe 	orr.w	r1, r1, #2130706432	; 0x7f000000
 80006ce:	f441 0178 	orr.w	r1, r1, #16252928	; 0xf80000
 80006d2:	bd70      	pop	{r4, r5, r6, pc}

080006d4 <__aeabi_ddiv>:
 80006d4:	b570      	push	{r4, r5, r6, lr}
 80006d6:	f04f 0cff 	mov.w	ip, #255	; 0xff
 80006da:	f44c 6ce0 	orr.w	ip, ip, #1792	; 0x700
 80006de:	ea1c 5411 	ands.w	r4, ip, r1, lsr #20
 80006e2:	bf1d      	ittte	ne
 80006e4:	ea1c 5513 	andsne.w	r5, ip, r3, lsr #20
 80006e8:	ea94 0f0c 	teqne	r4, ip
 80006ec:	ea95 0f0c 	teqne	r5, ip
 80006f0:	f000 f8a7 	bleq	8000842 <__aeabi_ddiv+0x16e>
 80006f4:	eba4 0405 	sub.w	r4, r4, r5
 80006f8:	ea81 0e03 	eor.w	lr, r1, r3
 80006fc:	ea52 3503 	orrs.w	r5, r2, r3, lsl #12
 8000700:	ea4f 3101 	mov.w	r1, r1, lsl #12
 8000704:	f000 8088 	beq.w	8000818 <__aeabi_ddiv+0x144>
 8000708:	ea4f 3303 	mov.w	r3, r3, lsl #12
 800070c:	f04f 5580 	mov.w	r5, #268435456	; 0x10000000
 8000710:	ea45 1313 	orr.w	r3, r5, r3, lsr #4
 8000714:	ea43 6312 	orr.w	r3, r3, r2, lsr #24
 8000718:	ea4f 2202 	mov.w	r2, r2, lsl #8
 800071c:	ea45 1511 	orr.w	r5, r5, r1, lsr #4
 8000720:	ea45 6510 	orr.w	r5, r5, r0, lsr #24
 8000724:	ea4f 2600 	mov.w	r6, r0, lsl #8
 8000728:	f00e 4100 	and.w	r1, lr, #2147483648	; 0x80000000
 800072c:	429d      	cmp	r5, r3
 800072e:	bf08      	it	eq
 8000730:	4296      	cmpeq	r6, r2
 8000732:	f144 04fd 	adc.w	r4, r4, #253	; 0xfd
 8000736:	f504 7440 	add.w	r4, r4, #768	; 0x300
 800073a:	d202      	bcs.n	8000742 <__aeabi_ddiv+0x6e>
 800073c:	085b      	lsrs	r3, r3, #1
 800073e:	ea4f 0232 	mov.w	r2, r2, rrx
 8000742:	1ab6      	subs	r6, r6, r2
 8000744:	eb65 0503 	sbc.w	r5, r5, r3
 8000748:	085b      	lsrs	r3, r3, #1
 800074a:	ea4f 0232 	mov.w	r2, r2, rrx
 800074e:	f44f 1080 	mov.w	r0, #1048576	; 0x100000
 8000752:	f44f 2c00 	mov.w	ip, #524288	; 0x80000
 8000756:	ebb6 0e02 	subs.w	lr, r6, r2
 800075a:	eb75 0e03 	sbcs.w	lr, r5, r3
 800075e:	bf22      	ittt	cs
 8000760:	1ab6      	subcs	r6, r6, r2
 8000762:	4675      	movcs	r5, lr
 8000764:	ea40 000c 	orrcs.w	r0, r0, ip
 8000768:	085b      	lsrs	r3, r3, #1
 800076a:	ea4f 0232 	mov.w	r2, r2, rrx
 800076e:	ebb6 0e02 	subs.w	lr, r6, r2
 8000772:	eb75 0e03 	sbcs.w	lr, r5, r3
 8000776:	bf22      	ittt	cs
 8000778:	1ab6      	subcs	r6, r6, r2
 800077a:	4675      	movcs	r5, lr
 800077c:	ea40 005c 	orrcs.w	r0, r0, ip, lsr #1
 8000780:	085b      	lsrs	r3, r3, #1
 8000782:	ea4f 0232 	mov.w	r2, r2, rrx
 8000786:	ebb6 0e02 	subs.w	lr, r6, r2
 800078a:	eb75 0e03 	sbcs.w	lr, r5, r3
 800078e:	bf22      	ittt	cs
 8000790:	1ab6      	subcs	r6, r6, r2
 8000792:	4675      	movcs	r5, lr
 8000794:	ea40 009c 	orrcs.w	r0, r0, ip, lsr #2
 8000798:	085b      	lsrs	r3, r3, #1
 800079a:	ea4f 0232 	mov.w	r2, r2, rrx
 800079e:	ebb6 0e02 	subs.w	lr, r6, r2
 80007a2:	eb75 0e03 	sbcs.w	lr, r5, r3
 80007a6:	bf22      	ittt	cs
 80007a8:	1ab6      	subcs	r6, r6, r2
 80007aa:	4675      	movcs	r5, lr
 80007ac:	ea40 00dc 	orrcs.w	r0, r0, ip, lsr #3
 80007b0:	ea55 0e06 	orrs.w	lr, r5, r6
 80007b4:	d018      	beq.n	80007e8 <__aeabi_ddiv+0x114>
 80007b6:	ea4f 1505 	mov.w	r5, r5, lsl #4
 80007ba:	ea45 7516 	orr.w	r5, r5, r6, lsr #28
 80007be:	ea4f 1606 	mov.w	r6, r6, lsl #4
 80007c2:	ea4f 03c3 	mov.w	r3, r3, lsl #3
 80007c6:	ea43 7352 	orr.w	r3, r3, r2, lsr #29
 80007ca:	ea4f 02c2 	mov.w	r2, r2, lsl #3
 80007ce:	ea5f 1c1c 	movs.w	ip, ip, lsr #4
 80007d2:	d1c0      	bne.n	8000756 <__aeabi_ddiv+0x82>
 80007d4:	f411 1f80 	tst.w	r1, #1048576	; 0x100000
 80007d8:	d10b      	bne.n	80007f2 <__aeabi_ddiv+0x11e>
 80007da:	ea41 0100 	orr.w	r1, r1, r0
 80007de:	f04f 0000 	mov.w	r0, #0
 80007e2:	f04f 4c00 	mov.w	ip, #2147483648	; 0x80000000
 80007e6:	e7b6      	b.n	8000756 <__aeabi_ddiv+0x82>
 80007e8:	f411 1f80 	tst.w	r1, #1048576	; 0x100000
 80007ec:	bf04      	itt	eq
 80007ee:	4301      	orreq	r1, r0
 80007f0:	2000      	moveq	r0, #0
 80007f2:	f1b4 0cfd 	subs.w	ip, r4, #253	; 0xfd
 80007f6:	bf88      	it	hi
 80007f8:	f5bc 6fe0 	cmphi.w	ip, #1792	; 0x700
 80007fc:	f63f aeaf 	bhi.w	800055e <__aeabi_dmul+0xde>
 8000800:	ebb5 0c03 	subs.w	ip, r5, r3
 8000804:	bf04      	itt	eq
 8000806:	ebb6 0c02 	subseq.w	ip, r6, r2
 800080a:	ea5f 0c50 	movseq.w	ip, r0, lsr #1
 800080e:	f150 0000 	adcs.w	r0, r0, #0
 8000812:	eb41 5104 	adc.w	r1, r1, r4, lsl #20
 8000816:	bd70      	pop	{r4, r5, r6, pc}
 8000818:	f00e 4e00 	and.w	lr, lr, #2147483648	; 0x80000000
 800081c:	ea4e 3111 	orr.w	r1, lr, r1, lsr #12
 8000820:	eb14 045c 	adds.w	r4, r4, ip, lsr #1
 8000824:	bfc2      	ittt	gt
 8000826:	ebd4 050c 	rsbsgt	r5, r4, ip
 800082a:	ea41 5104 	orrgt.w	r1, r1, r4, lsl #20
 800082e:	bd70      	popgt	{r4, r5, r6, pc}
 8000830:	f441 1180 	orr.w	r1, r1, #1048576	; 0x100000
 8000834:	f04f 0e00 	mov.w	lr, #0
 8000838:	3c01      	subs	r4, #1
 800083a:	e690      	b.n	800055e <__aeabi_dmul+0xde>
 800083c:	ea45 0e06 	orr.w	lr, r5, r6
 8000840:	e68d      	b.n	800055e <__aeabi_dmul+0xde>
 8000842:	ea0c 5513 	and.w	r5, ip, r3, lsr #20
 8000846:	ea94 0f0c 	teq	r4, ip
 800084a:	bf08      	it	eq
 800084c:	ea95 0f0c 	teqeq	r5, ip
 8000850:	f43f af3b 	beq.w	80006ca <__aeabi_dmul+0x24a>
 8000854:	ea94 0f0c 	teq	r4, ip
 8000858:	d10a      	bne.n	8000870 <__aeabi_ddiv+0x19c>
 800085a:	ea50 3401 	orrs.w	r4, r0, r1, lsl #12
 800085e:	f47f af34 	bne.w	80006ca <__aeabi_dmul+0x24a>
 8000862:	ea95 0f0c 	teq	r5, ip
 8000866:	f47f af25 	bne.w	80006b4 <__aeabi_dmul+0x234>
 800086a:	4610      	mov	r0, r2
 800086c:	4619      	mov	r1, r3
 800086e:	e72c      	b.n	80006ca <__aeabi_dmul+0x24a>
 8000870:	ea95 0f0c 	teq	r5, ip
 8000874:	d106      	bne.n	8000884 <__aeabi_ddiv+0x1b0>
 8000876:	ea52 3503 	orrs.w	r5, r2, r3, lsl #12
 800087a:	f43f aefd 	beq.w	8000678 <__aeabi_dmul+0x1f8>
 800087e:	4610      	mov	r0, r2
 8000880:	4619      	mov	r1, r3
 8000882:	e722      	b.n	80006ca <__aeabi_dmul+0x24a>
 8000884:	ea50 0641 	orrs.w	r6, r0, r1, lsl #1
 8000888:	bf18      	it	ne
 800088a:	ea52 0643 	orrsne.w	r6, r2, r3, lsl #1
 800088e:	f47f aec5 	bne.w	800061c <__aeabi_dmul+0x19c>
 8000892:	ea50 0441 	orrs.w	r4, r0, r1, lsl #1
 8000896:	f47f af0d 	bne.w	80006b4 <__aeabi_dmul+0x234>
 800089a:	ea52 0543 	orrs.w	r5, r2, r3, lsl #1
 800089e:	f47f aeeb 	bne.w	8000678 <__aeabi_dmul+0x1f8>
 80008a2:	e712      	b.n	80006ca <__aeabi_dmul+0x24a>

080008a4 <__gedf2>:
 80008a4:	f04f 3cff 	mov.w	ip, #4294967295
 80008a8:	e006      	b.n	80008b8 <__cmpdf2+0x4>
 80008aa:	bf00      	nop

080008ac <__ledf2>:
 80008ac:	f04f 0c01 	mov.w	ip, #1
 80008b0:	e002      	b.n	80008b8 <__cmpdf2+0x4>
 80008b2:	bf00      	nop

080008b4 <__cmpdf2>:
 80008b4:	f04f 0c01 	mov.w	ip, #1
 80008b8:	f84d cd04 	str.w	ip, [sp, #-4]!
 80008bc:	ea4f 0c41 	mov.w	ip, r1, lsl #1
 80008c0:	ea7f 5c6c 	mvns.w	ip, ip, asr #21
 80008c4:	ea4f 0c43 	mov.w	ip, r3, lsl #1
 80008c8:	bf18      	it	ne
 80008ca:	ea7f 5c6c 	mvnsne.w	ip, ip, asr #21
 80008ce:	d01b      	beq.n	8000908 <__cmpdf2+0x54>
 80008d0:	b001      	add	sp, #4
 80008d2:	ea50 0c41 	orrs.w	ip, r0, r1, lsl #1
 80008d6:	bf0c      	ite	eq
 80008d8:	ea52 0c43 	orrseq.w	ip, r2, r3, lsl #1
 80008dc:	ea91 0f03 	teqne	r1, r3
 80008e0:	bf02      	ittt	eq
 80008e2:	ea90 0f02 	teqeq	r0, r2
 80008e6:	2000      	moveq	r0, #0
 80008e8:	4770      	bxeq	lr
 80008ea:	f110 0f00 	cmn.w	r0, #0
 80008ee:	ea91 0f03 	teq	r1, r3
 80008f2:	bf58      	it	pl
 80008f4:	4299      	cmppl	r1, r3
 80008f6:	bf08      	it	eq
 80008f8:	4290      	cmpeq	r0, r2
 80008fa:	bf2c      	ite	cs
 80008fc:	17d8      	asrcs	r0, r3, #31
 80008fe:	ea6f 70e3 	mvncc.w	r0, r3, asr #31
 8000902:	f040 0001 	orr.w	r0, r0, #1
 8000906:	4770      	bx	lr
 8000908:	ea4f 0c41 	mov.w	ip, r1, lsl #1
 800090c:	ea7f 5c6c 	mvns.w	ip, ip, asr #21
 8000910:	d102      	bne.n	8000918 <__cmpdf2+0x64>
 8000912:	ea50 3c01 	orrs.w	ip, r0, r1, lsl #12
 8000916:	d107      	bne.n	8000928 <__cmpdf2+0x74>
 8000918:	ea4f 0c43 	mov.w	ip, r3, lsl #1
 800091c:	ea7f 5c6c 	mvns.w	ip, ip, asr #21
 8000920:	d1d6      	bne.n	80008d0 <__cmpdf2+0x1c>
 8000922:	ea52 3c03 	orrs.w	ip, r2, r3, lsl #12
 8000926:	d0d3      	beq.n	80008d0 <__cmpdf2+0x1c>
 8000928:	f85d 0b04 	ldr.w	r0, [sp], #4
 800092c:	4770      	bx	lr
 800092e:	bf00      	nop

08000930 <__aeabi_cdrcmple>:
 8000930:	4684      	mov	ip, r0
 8000932:	4610      	mov	r0, r2
 8000934:	4662      	mov	r2, ip
 8000936:	468c      	mov	ip, r1
 8000938:	4619      	mov	r1, r3
 800093a:	4663      	mov	r3, ip
 800093c:	e000      	b.n	8000940 <__aeabi_cdcmpeq>
 800093e:	bf00      	nop

08000940 <__aeabi_cdcmpeq>:
 8000940:	b501      	push	{r0, lr}
 8000942:	f7ff ffb7 	bl	80008b4 <__cmpdf2>
 8000946:	2800      	cmp	r0, #0
 8000948:	bf48      	it	mi
 800094a:	f110 0f00 	cmnmi.w	r0, #0
 800094e:	bd01      	pop	{r0, pc}

08000950 <__aeabi_dcmpeq>:
 8000950:	f84d ed08 	str.w	lr, [sp, #-8]!
 8000954:	f7ff fff4 	bl	8000940 <__aeabi_cdcmpeq>
 8000958:	bf0c      	ite	eq
 800095a:	2001      	moveq	r0, #1
 800095c:	2000      	movne	r0, #0
 800095e:	f85d fb08 	ldr.w	pc, [sp], #8
 8000962:	bf00      	nop

08000964 <__aeabi_dcmplt>:
 8000964:	f84d ed08 	str.w	lr, [sp, #-8]!
 8000968:	f7ff ffea 	bl	8000940 <__aeabi_cdcmpeq>
 800096c:	bf34      	ite	cc
 800096e:	2001      	movcc	r0, #1
 8000970:	2000      	movcs	r0, #0
 8000972:	f85d fb08 	ldr.w	pc, [sp], #8
 8000976:	bf00      	nop

08000978 <__aeabi_dcmple>:
 8000978:	f84d ed08 	str.w	lr, [sp, #-8]!
 800097c:	f7ff ffe0 	bl	8000940 <__aeabi_cdcmpeq>
 8000980:	bf94      	ite	ls
 8000982:	2001      	movls	r0, #1
 8000984:	2000      	movhi	r0, #0
 8000986:	f85d fb08 	ldr.w	pc, [sp], #8
 800098a:	bf00      	nop

0800098c <__aeabi_dcmpge>:
 800098c:	f84d ed08 	str.w	lr, [sp, #-8]!
 8000990:	f7ff ffce 	bl	8000930 <__aeabi_cdrcmple>
 8000994:	bf94      	ite	ls
 8000996:	2001      	movls	r0, #1
 8000998:	2000      	movhi	r0, #0
 800099a:	f85d fb08 	ldr.w	pc, [sp], #8
 800099e:	bf00      	nop

080009a0 <__aeabi_dcmpgt>:
 80009a0:	f84d ed08 	str.w	lr, [sp, #-8]!
 80009a4:	f7ff ffc4 	bl	8000930 <__aeabi_cdrcmple>
 80009a8:	bf34      	ite	cc
 80009aa:	2001      	movcc	r0, #1
 80009ac:	2000      	movcs	r0, #0
 80009ae:	f85d fb08 	ldr.w	pc, [sp], #8
 80009b2:	bf00      	nop

080009b4 <__aeabi_d2uiz>:
 80009b4:	004a      	lsls	r2, r1, #1
 80009b6:	d211      	bcs.n	80009dc <__aeabi_d2uiz+0x28>
 80009b8:	f512 1200 	adds.w	r2, r2, #2097152	; 0x200000
 80009bc:	d211      	bcs.n	80009e2 <__aeabi_d2uiz+0x2e>
 80009be:	d50d      	bpl.n	80009dc <__aeabi_d2uiz+0x28>
 80009c0:	f46f 7378 	mvn.w	r3, #992	; 0x3e0
 80009c4:	ebb3 5262 	subs.w	r2, r3, r2, asr #21
 80009c8:	d40e      	bmi.n	80009e8 <__aeabi_d2uiz+0x34>
 80009ca:	ea4f 23c1 	mov.w	r3, r1, lsl #11
 80009ce:	f043 4300 	orr.w	r3, r3, #2147483648	; 0x80000000
 80009d2:	ea43 5350 	orr.w	r3, r3, r0, lsr #21
 80009d6:	fa23 f002 	lsr.w	r0, r3, r2
 80009da:	4770      	bx	lr
 80009dc:	f04f 0000 	mov.w	r0, #0
 80009e0:	4770      	bx	lr
 80009e2:	ea50 3001 	orrs.w	r0, r0, r1, lsl #12
 80009e6:	d102      	bne.n	80009ee <__aeabi_d2uiz+0x3a>
 80009e8:	f04f 30ff 	mov.w	r0, #4294967295
 80009ec:	4770      	bx	lr
 80009ee:	f04f 0000 	mov.w	r0, #0
 80009f2:	4770      	bx	lr

080009f4 <__aeabi_d2f>:
 80009f4:	ea4f 0241 	mov.w	r2, r1, lsl #1
 80009f8:	f1b2 43e0 	subs.w	r3, r2, #1879048192	; 0x70000000
 80009fc:	bf24      	itt	cs
 80009fe:	f5b3 1c00 	subscs.w	ip, r3, #2097152	; 0x200000
 8000a02:	f1dc 5cfe 	rsbscs	ip, ip, #532676608	; 0x1fc00000
 8000a06:	d90d      	bls.n	8000a24 <__aeabi_d2f+0x30>
 8000a08:	f001 4c00 	and.w	ip, r1, #2147483648	; 0x80000000
 8000a0c:	ea4f 02c0 	mov.w	r2, r0, lsl #3
 8000a10:	ea4c 7050 	orr.w	r0, ip, r0, lsr #29
 8000a14:	f1b2 4f00 	cmp.w	r2, #2147483648	; 0x80000000
 8000a18:	eb40 0083 	adc.w	r0, r0, r3, lsl #2
 8000a1c:	bf08      	it	eq
 8000a1e:	f020 0001 	biceq.w	r0, r0, #1
 8000a22:	4770      	bx	lr
 8000a24:	f011 4f80 	tst.w	r1, #1073741824	; 0x40000000
 8000a28:	d121      	bne.n	8000a6e <__aeabi_d2f+0x7a>
 8000a2a:	f113 7238 	adds.w	r2, r3, #48234496	; 0x2e00000
 8000a2e:	bfbc      	itt	lt
 8000a30:	f001 4000 	andlt.w	r0, r1, #2147483648	; 0x80000000
 8000a34:	4770      	bxlt	lr
 8000a36:	f441 1180 	orr.w	r1, r1, #1048576	; 0x100000
 8000a3a:	ea4f 5252 	mov.w	r2, r2, lsr #21
 8000a3e:	f1c2 0218 	rsb	r2, r2, #24
 8000a42:	f1c2 0c20 	rsb	ip, r2, #32
 8000a46:	fa10 f30c 	lsls.w	r3, r0, ip
 8000a4a:	fa20 f002 	lsr.w	r0, r0, r2
 8000a4e:	bf18      	it	ne
 8000a50:	f040 0001 	orrne.w	r0, r0, #1
 8000a54:	ea4f 23c1 	mov.w	r3, r1, lsl #11
 8000a58:	ea4f 23d3 	mov.w	r3, r3, lsr #11
 8000a5c:	fa03 fc0c 	lsl.w	ip, r3, ip
 8000a60:	ea40 000c 	orr.w	r0, r0, ip
 8000a64:	fa23 f302 	lsr.w	r3, r3, r2
 8000a68:	ea4f 0343 	mov.w	r3, r3, lsl #1
 8000a6c:	e7cc      	b.n	8000a08 <__aeabi_d2f+0x14>
 8000a6e:	ea7f 5362 	mvns.w	r3, r2, asr #21
 8000a72:	d107      	bne.n	8000a84 <__aeabi_d2f+0x90>
 8000a74:	ea50 3301 	orrs.w	r3, r0, r1, lsl #12
 8000a78:	bf1e      	ittt	ne
 8000a7a:	f04f 40fe 	movne.w	r0, #2130706432	; 0x7f000000
 8000a7e:	f440 0040 	orrne.w	r0, r0, #12582912	; 0xc00000
 8000a82:	4770      	bxne	lr
 8000a84:	f001 4000 	and.w	r0, r1, #2147483648	; 0x80000000
 8000a88:	f040 40fe 	orr.w	r0, r0, #2130706432	; 0x7f000000
 8000a8c:	f440 0000 	orr.w	r0, r0, #8388608	; 0x800000
 8000a90:	4770      	bx	lr
 8000a92:	bf00      	nop

08000a94 <__aeabi_frsub>:
 8000a94:	f080 4000 	eor.w	r0, r0, #2147483648	; 0x80000000
 8000a98:	e002      	b.n	8000aa0 <__addsf3>
 8000a9a:	bf00      	nop

08000a9c <__aeabi_fsub>:
 8000a9c:	f081 4100 	eor.w	r1, r1, #2147483648	; 0x80000000

08000aa0 <__addsf3>:
 8000aa0:	0042      	lsls	r2, r0, #1
 8000aa2:	bf1f      	itttt	ne
 8000aa4:	ea5f 0341 	movsne.w	r3, r1, lsl #1
 8000aa8:	ea92 0f03 	teqne	r2, r3
 8000aac:	ea7f 6c22 	mvnsne.w	ip, r2, asr #24
 8000ab0:	ea7f 6c23 	mvnsne.w	ip, r3, asr #24
 8000ab4:	d06a      	beq.n	8000b8c <__addsf3+0xec>
 8000ab6:	ea4f 6212 	mov.w	r2, r2, lsr #24
 8000aba:	ebd2 6313 	rsbs	r3, r2, r3, lsr #24
 8000abe:	bfc1      	itttt	gt
 8000ac0:	18d2      	addgt	r2, r2, r3
 8000ac2:	4041      	eorgt	r1, r0
 8000ac4:	4048      	eorgt	r0, r1
 8000ac6:	4041      	eorgt	r1, r0
 8000ac8:	bfb8      	it	lt
 8000aca:	425b      	neglt	r3, r3
 8000acc:	2b19      	cmp	r3, #25
 8000ace:	bf88      	it	hi
 8000ad0:	4770      	bxhi	lr
 8000ad2:	f010 4f00 	tst.w	r0, #2147483648	; 0x80000000
 8000ad6:	f440 0000 	orr.w	r0, r0, #8388608	; 0x800000
 8000ada:	f020 407f 	bic.w	r0, r0, #4278190080	; 0xff000000
 8000ade:	bf18      	it	ne
 8000ae0:	4240      	negne	r0, r0
 8000ae2:	f011 4f00 	tst.w	r1, #2147483648	; 0x80000000
 8000ae6:	f441 0100 	orr.w	r1, r1, #8388608	; 0x800000
 8000aea:	f021 417f 	bic.w	r1, r1, #4278190080	; 0xff000000
 8000aee:	bf18      	it	ne
 8000af0:	4249      	negne	r1, r1
 8000af2:	ea92 0f03 	teq	r2, r3
 8000af6:	d03f      	beq.n	8000b78 <__addsf3+0xd8>
 8000af8:	f1a2 0201 	sub.w	r2, r2, #1
 8000afc:	fa41 fc03 	asr.w	ip, r1, r3
 8000b00:	eb10 000c 	adds.w	r0, r0, ip
 8000b04:	f1c3 0320 	rsb	r3, r3, #32
 8000b08:	fa01 f103 	lsl.w	r1, r1, r3
 8000b0c:	f000 4300 	and.w	r3, r0, #2147483648	; 0x80000000
 8000b10:	d502      	bpl.n	8000b18 <__addsf3+0x78>
 8000b12:	4249      	negs	r1, r1
 8000b14:	eb60 0040 	sbc.w	r0, r0, r0, lsl #1
 8000b18:	f5b0 0f00 	cmp.w	r0, #8388608	; 0x800000
 8000b1c:	d313      	bcc.n	8000b46 <__addsf3+0xa6>
 8000b1e:	f1b0 7f80 	cmp.w	r0, #16777216	; 0x1000000
 8000b22:	d306      	bcc.n	8000b32 <__addsf3+0x92>
 8000b24:	0840      	lsrs	r0, r0, #1
 8000b26:	ea4f 0131 	mov.w	r1, r1, rrx
 8000b2a:	f102 0201 	add.w	r2, r2, #1
 8000b2e:	2afe      	cmp	r2, #254	; 0xfe
 8000b30:	d251      	bcs.n	8000bd6 <__addsf3+0x136>
 8000b32:	f1b1 4f00 	cmp.w	r1, #2147483648	; 0x80000000
 8000b36:	eb40 50c2 	adc.w	r0, r0, r2, lsl #23
 8000b3a:	bf08      	it	eq
 8000b3c:	f020 0001 	biceq.w	r0, r0, #1
 8000b40:	ea40 0003 	orr.w	r0, r0, r3
 8000b44:	4770      	bx	lr
 8000b46:	0049      	lsls	r1, r1, #1
 8000b48:	eb40 0000 	adc.w	r0, r0, r0
 8000b4c:	f410 0f00 	tst.w	r0, #8388608	; 0x800000
 8000b50:	f1a2 0201 	sub.w	r2, r2, #1
 8000b54:	d1ed      	bne.n	8000b32 <__addsf3+0x92>
 8000b56:	fab0 fc80 	clz	ip, r0
 8000b5a:	f1ac 0c08 	sub.w	ip, ip, #8
 8000b5e:	ebb2 020c 	subs.w	r2, r2, ip
 8000b62:	fa00 f00c 	lsl.w	r0, r0, ip
 8000b66:	bfaa      	itet	ge
 8000b68:	eb00 50c2 	addge.w	r0, r0, r2, lsl #23
 8000b6c:	4252      	neglt	r2, r2
 8000b6e:	4318      	orrge	r0, r3
 8000b70:	bfbc      	itt	lt
 8000b72:	40d0      	lsrlt	r0, r2
 8000b74:	4318      	orrlt	r0, r3
 8000b76:	4770      	bx	lr
 8000b78:	f092 0f00 	teq	r2, #0
 8000b7c:	f481 0100 	eor.w	r1, r1, #8388608	; 0x800000
 8000b80:	bf06      	itte	eq
 8000b82:	f480 0000 	eoreq.w	r0, r0, #8388608	; 0x800000
 8000b86:	3201      	addeq	r2, #1
 8000b88:	3b01      	subne	r3, #1
 8000b8a:	e7b5      	b.n	8000af8 <__addsf3+0x58>
 8000b8c:	ea4f 0341 	mov.w	r3, r1, lsl #1
 8000b90:	ea7f 6c22 	mvns.w	ip, r2, asr #24
 8000b94:	bf18      	it	ne
 8000b96:	ea7f 6c23 	mvnsne.w	ip, r3, asr #24
 8000b9a:	d021      	beq.n	8000be0 <__addsf3+0x140>
 8000b9c:	ea92 0f03 	teq	r2, r3
 8000ba0:	d004      	beq.n	8000bac <__addsf3+0x10c>
 8000ba2:	f092 0f00 	teq	r2, #0
 8000ba6:	bf08      	it	eq
 8000ba8:	4608      	moveq	r0, r1
 8000baa:	4770      	bx	lr
 8000bac:	ea90 0f01 	teq	r0, r1
 8000bb0:	bf1c      	itt	ne
 8000bb2:	2000      	movne	r0, #0
 8000bb4:	4770      	bxne	lr
 8000bb6:	f012 4f7f 	tst.w	r2, #4278190080	; 0xff000000
 8000bba:	d104      	bne.n	8000bc6 <__addsf3+0x126>
 8000bbc:	0040      	lsls	r0, r0, #1
 8000bbe:	bf28      	it	cs
 8000bc0:	f040 4000 	orrcs.w	r0, r0, #2147483648	; 0x80000000
 8000bc4:	4770      	bx	lr
 8000bc6:	f112 7200 	adds.w	r2, r2, #33554432	; 0x2000000
 8000bca:	bf3c      	itt	cc
 8000bcc:	f500 0000 	addcc.w	r0, r0, #8388608	; 0x800000
 8000bd0:	4770      	bxcc	lr
 8000bd2:	f000 4300 	and.w	r3, r0, #2147483648	; 0x80000000
 8000bd6:	f043 40fe 	orr.w	r0, r3, #2130706432	; 0x7f000000
 8000bda:	f440 0000 	orr.w	r0, r0, #8388608	; 0x800000
 8000bde:	4770      	bx	lr
 8000be0:	ea7f 6222 	mvns.w	r2, r2, asr #24
 8000be4:	bf16      	itet	ne
 8000be6:	4608      	movne	r0, r1
 8000be8:	ea7f 6323 	mvnseq.w	r3, r3, asr #24
 8000bec:	4601      	movne	r1, r0
 8000bee:	0242      	lsls	r2, r0, #9
 8000bf0:	bf06      	itte	eq
 8000bf2:	ea5f 2341 	movseq.w	r3, r1, lsl #9
 8000bf6:	ea90 0f01 	teqeq	r0, r1
 8000bfa:	f440 0080 	orrne.w	r0, r0, #4194304	; 0x400000
 8000bfe:	4770      	bx	lr

08000c00 <__aeabi_ui2f>:
 8000c00:	f04f 0300 	mov.w	r3, #0
 8000c04:	e004      	b.n	8000c10 <__aeabi_i2f+0x8>
 8000c06:	bf00      	nop

08000c08 <__aeabi_i2f>:
 8000c08:	f010 4300 	ands.w	r3, r0, #2147483648	; 0x80000000
 8000c0c:	bf48      	it	mi
 8000c0e:	4240      	negmi	r0, r0
 8000c10:	ea5f 0c00 	movs.w	ip, r0
 8000c14:	bf08      	it	eq
 8000c16:	4770      	bxeq	lr
 8000c18:	f043 4396 	orr.w	r3, r3, #1258291200	; 0x4b000000
 8000c1c:	4601      	mov	r1, r0
 8000c1e:	f04f 0000 	mov.w	r0, #0
 8000c22:	e01c      	b.n	8000c5e <__aeabi_l2f+0x2a>

08000c24 <__aeabi_ul2f>:
 8000c24:	ea50 0201 	orrs.w	r2, r0, r1
 8000c28:	bf08      	it	eq
 8000c2a:	4770      	bxeq	lr
 8000c2c:	f04f 0300 	mov.w	r3, #0
 8000c30:	e00a      	b.n	8000c48 <__aeabi_l2f+0x14>
 8000c32:	bf00      	nop

08000c34 <__aeabi_l2f>:
 8000c34:	ea50 0201 	orrs.w	r2, r0, r1
 8000c38:	bf08      	it	eq
 8000c3a:	4770      	bxeq	lr
 8000c3c:	f011 4300 	ands.w	r3, r1, #2147483648	; 0x80000000
 8000c40:	d502      	bpl.n	8000c48 <__aeabi_l2f+0x14>
 8000c42:	4240      	negs	r0, r0
 8000c44:	eb61 0141 	sbc.w	r1, r1, r1, lsl #1
 8000c48:	ea5f 0c01 	movs.w	ip, r1
 8000c4c:	bf02      	ittt	eq
 8000c4e:	4684      	moveq	ip, r0
 8000c50:	4601      	moveq	r1, r0
 8000c52:	2000      	moveq	r0, #0
 8000c54:	f043 43b6 	orr.w	r3, r3, #1526726656	; 0x5b000000
 8000c58:	bf08      	it	eq
 8000c5a:	f1a3 5380 	subeq.w	r3, r3, #268435456	; 0x10000000
 8000c5e:	f5a3 0300 	sub.w	r3, r3, #8388608	; 0x800000
 8000c62:	fabc f28c 	clz	r2, ip
 8000c66:	3a08      	subs	r2, #8
 8000c68:	eba3 53c2 	sub.w	r3, r3, r2, lsl #23
 8000c6c:	db10      	blt.n	8000c90 <__aeabi_l2f+0x5c>
 8000c6e:	fa01 fc02 	lsl.w	ip, r1, r2
 8000c72:	4463      	add	r3, ip
 8000c74:	fa00 fc02 	lsl.w	ip, r0, r2
 8000c78:	f1c2 0220 	rsb	r2, r2, #32
 8000c7c:	f1bc 4f00 	cmp.w	ip, #2147483648	; 0x80000000
 8000c80:	fa20 f202 	lsr.w	r2, r0, r2
 8000c84:	eb43 0002 	adc.w	r0, r3, r2
 8000c88:	bf08      	it	eq
 8000c8a:	f020 0001 	biceq.w	r0, r0, #1
 8000c8e:	4770      	bx	lr
 8000c90:	f102 0220 	add.w	r2, r2, #32
 8000c94:	fa01 fc02 	lsl.w	ip, r1, r2
 8000c98:	f1c2 0220 	rsb	r2, r2, #32
 8000c9c:	ea50 004c 	orrs.w	r0, r0, ip, lsl #1
 8000ca0:	fa21 f202 	lsr.w	r2, r1, r2
 8000ca4:	eb43 0002 	adc.w	r0, r3, r2
 8000ca8:	bf08      	it	eq
 8000caa:	ea20 70dc 	biceq.w	r0, r0, ip, lsr #31
 8000cae:	4770      	bx	lr

08000cb0 <__aeabi_fmul>:
 8000cb0:	f04f 0cff 	mov.w	ip, #255	; 0xff
 8000cb4:	ea1c 52d0 	ands.w	r2, ip, r0, lsr #23
 8000cb8:	bf1e      	ittt	ne
 8000cba:	ea1c 53d1 	andsne.w	r3, ip, r1, lsr #23
 8000cbe:	ea92 0f0c 	teqne	r2, ip
 8000cc2:	ea93 0f0c 	teqne	r3, ip
 8000cc6:	d06f      	beq.n	8000da8 <__aeabi_fmul+0xf8>
 8000cc8:	441a      	add	r2, r3
 8000cca:	ea80 0c01 	eor.w	ip, r0, r1
 8000cce:	0240      	lsls	r0, r0, #9
 8000cd0:	bf18      	it	ne
 8000cd2:	ea5f 2141 	movsne.w	r1, r1, lsl #9
 8000cd6:	d01e      	beq.n	8000d16 <__aeabi_fmul+0x66>
 8000cd8:	f04f 6300 	mov.w	r3, #134217728	; 0x8000000
 8000cdc:	ea43 1050 	orr.w	r0, r3, r0, lsr #5
 8000ce0:	ea43 1151 	orr.w	r1, r3, r1, lsr #5
 8000ce4:	fba0 3101 	umull	r3, r1, r0, r1
 8000ce8:	f00c 4000 	and.w	r0, ip, #2147483648	; 0x80000000
 8000cec:	f5b1 0f00 	cmp.w	r1, #8388608	; 0x800000
 8000cf0:	bf3e      	ittt	cc
 8000cf2:	0049      	lslcc	r1, r1, #1
 8000cf4:	ea41 71d3 	orrcc.w	r1, r1, r3, lsr #31
 8000cf8:	005b      	lslcc	r3, r3, #1
 8000cfa:	ea40 0001 	orr.w	r0, r0, r1
 8000cfe:	f162 027f 	sbc.w	r2, r2, #127	; 0x7f
 8000d02:	2afd      	cmp	r2, #253	; 0xfd
 8000d04:	d81d      	bhi.n	8000d42 <__aeabi_fmul+0x92>
 8000d06:	f1b3 4f00 	cmp.w	r3, #2147483648	; 0x80000000
 8000d0a:	eb40 50c2 	adc.w	r0, r0, r2, lsl #23
 8000d0e:	bf08      	it	eq
 8000d10:	f020 0001 	biceq.w	r0, r0, #1
 8000d14:	4770      	bx	lr
 8000d16:	f090 0f00 	teq	r0, #0
 8000d1a:	f00c 4c00 	and.w	ip, ip, #2147483648	; 0x80000000
 8000d1e:	bf08      	it	eq
 8000d20:	0249      	lsleq	r1, r1, #9
 8000d22:	ea4c 2050 	orr.w	r0, ip, r0, lsr #9
 8000d26:	ea40 2051 	orr.w	r0, r0, r1, lsr #9
 8000d2a:	3a7f      	subs	r2, #127	; 0x7f
 8000d2c:	bfc2      	ittt	gt
 8000d2e:	f1d2 03ff 	rsbsgt	r3, r2, #255	; 0xff
 8000d32:	ea40 50c2 	orrgt.w	r0, r0, r2, lsl #23
 8000d36:	4770      	bxgt	lr
 8000d38:	f440 0000 	orr.w	r0, r0, #8388608	; 0x800000
 8000d3c:	f04f 0300 	mov.w	r3, #0
 8000d40:	3a01      	subs	r2, #1
 8000d42:	dc5d      	bgt.n	8000e00 <__aeabi_fmul+0x150>
 8000d44:	f112 0f19 	cmn.w	r2, #25
 8000d48:	bfdc      	itt	le
 8000d4a:	f000 4000 	andle.w	r0, r0, #2147483648	; 0x80000000
 8000d4e:	4770      	bxle	lr
 8000d50:	f1c2 0200 	rsb	r2, r2, #0
 8000d54:	0041      	lsls	r1, r0, #1
 8000d56:	fa21 f102 	lsr.w	r1, r1, r2
 8000d5a:	f1c2 0220 	rsb	r2, r2, #32
 8000d5e:	fa00 fc02 	lsl.w	ip, r0, r2
 8000d62:	ea5f 0031 	movs.w	r0, r1, rrx
 8000d66:	f140 0000 	adc.w	r0, r0, #0
 8000d6a:	ea53 034c 	orrs.w	r3, r3, ip, lsl #1
 8000d6e:	bf08      	it	eq
 8000d70:	ea20 70dc 	biceq.w	r0, r0, ip, lsr #31
 8000d74:	4770      	bx	lr
 8000d76:	f092 0f00 	teq	r2, #0
 8000d7a:	f000 4c00 	and.w	ip, r0, #2147483648	; 0x80000000
 8000d7e:	bf02      	ittt	eq
 8000d80:	0040      	lsleq	r0, r0, #1
 8000d82:	f410 0f00 	tsteq.w	r0, #8388608	; 0x800000
 8000d86:	3a01      	subeq	r2, #1
 8000d88:	d0f9      	beq.n	8000d7e <__aeabi_fmul+0xce>
 8000d8a:	ea40 000c 	orr.w	r0, r0, ip
 8000d8e:	f093 0f00 	teq	r3, #0
 8000d92:	f001 4c00 	and.w	ip, r1, #2147483648	; 0x80000000
 8000d96:	bf02      	ittt	eq
 8000d98:	0049      	lsleq	r1, r1, #1
 8000d9a:	f411 0f00 	tsteq.w	r1, #8388608	; 0x800000
 8000d9e:	3b01      	subeq	r3, #1
 8000da0:	d0f9      	beq.n	8000d96 <__aeabi_fmul+0xe6>
 8000da2:	ea41 010c 	orr.w	r1, r1, ip
 8000da6:	e78f      	b.n	8000cc8 <__aeabi_fmul+0x18>
 8000da8:	ea0c 53d1 	and.w	r3, ip, r1, lsr #23
 8000dac:	ea92 0f0c 	teq	r2, ip
 8000db0:	bf18      	it	ne
 8000db2:	ea93 0f0c 	teqne	r3, ip
 8000db6:	d00a      	beq.n	8000dce <__aeabi_fmul+0x11e>
 8000db8:	f030 4c00 	bics.w	ip, r0, #2147483648	; 0x80000000
 8000dbc:	bf18      	it	ne
 8000dbe:	f031 4c00 	bicsne.w	ip, r1, #2147483648	; 0x80000000
 8000dc2:	d1d8      	bne.n	8000d76 <__aeabi_fmul+0xc6>
 8000dc4:	ea80 0001 	eor.w	r0, r0, r1
 8000dc8:	f000 4000 	and.w	r0, r0, #2147483648	; 0x80000000
 8000dcc:	4770      	bx	lr
 8000dce:	f090 0f00 	teq	r0, #0
 8000dd2:	bf17      	itett	ne
 8000dd4:	f090 4f00 	teqne	r0, #2147483648	; 0x80000000
 8000dd8:	4608      	moveq	r0, r1
 8000dda:	f091 0f00 	teqne	r1, #0
 8000dde:	f091 4f00 	teqne	r1, #2147483648	; 0x80000000
 8000de2:	d014      	beq.n	8000e0e <__aeabi_fmul+0x15e>
 8000de4:	ea92 0f0c 	teq	r2, ip
 8000de8:	d101      	bne.n	8000dee <__aeabi_fmul+0x13e>
 8000dea:	0242      	lsls	r2, r0, #9
 8000dec:	d10f      	bne.n	8000e0e <__aeabi_fmul+0x15e>
 8000dee:	ea93 0f0c 	teq	r3, ip
 8000df2:	d103      	bne.n	8000dfc <__aeabi_fmul+0x14c>
 8000df4:	024b      	lsls	r3, r1, #9
 8000df6:	bf18      	it	ne
 8000df8:	4608      	movne	r0, r1
 8000dfa:	d108      	bne.n	8000e0e <__aeabi_fmul+0x15e>
 8000dfc:	ea80 0001 	eor.w	r0, r0, r1
 8000e00:	f000 4000 	and.w	r0, r0, #2147483648	; 0x80000000
 8000e04:	f040 40fe 	orr.w	r0, r0, #2130706432	; 0x7f000000
 8000e08:	f440 0000 	orr.w	r0, r0, #8388608	; 0x800000
 8000e0c:	4770      	bx	lr
 8000e0e:	f040 40fe 	orr.w	r0, r0, #2130706432	; 0x7f000000
 8000e12:	f440 0040 	orr.w	r0, r0, #12582912	; 0xc00000
 8000e16:	4770      	bx	lr

08000e18 <__aeabi_fdiv>:
 8000e18:	f04f 0cff 	mov.w	ip, #255	; 0xff
 8000e1c:	ea1c 52d0 	ands.w	r2, ip, r0, lsr #23
 8000e20:	bf1e      	ittt	ne
 8000e22:	ea1c 53d1 	andsne.w	r3, ip, r1, lsr #23
 8000e26:	ea92 0f0c 	teqne	r2, ip
 8000e2a:	ea93 0f0c 	teqne	r3, ip
 8000e2e:	d069      	beq.n	8000f04 <__aeabi_fdiv+0xec>
 8000e30:	eba2 0203 	sub.w	r2, r2, r3
 8000e34:	ea80 0c01 	eor.w	ip, r0, r1
 8000e38:	0249      	lsls	r1, r1, #9
 8000e3a:	ea4f 2040 	mov.w	r0, r0, lsl #9
 8000e3e:	d037      	beq.n	8000eb0 <__aeabi_fdiv+0x98>
 8000e40:	f04f 5380 	mov.w	r3, #268435456	; 0x10000000
 8000e44:	ea43 1111 	orr.w	r1, r3, r1, lsr #4
 8000e48:	ea43 1310 	orr.w	r3, r3, r0, lsr #4
 8000e4c:	f00c 4000 	and.w	r0, ip, #2147483648	; 0x80000000
 8000e50:	428b      	cmp	r3, r1
 8000e52:	bf38      	it	cc
 8000e54:	005b      	lslcc	r3, r3, #1
 8000e56:	f142 027d 	adc.w	r2, r2, #125	; 0x7d
 8000e5a:	f44f 0c00 	mov.w	ip, #8388608	; 0x800000
 8000e5e:	428b      	cmp	r3, r1
 8000e60:	bf24      	itt	cs
 8000e62:	1a5b      	subcs	r3, r3, r1
 8000e64:	ea40 000c 	orrcs.w	r0, r0, ip
 8000e68:	ebb3 0f51 	cmp.w	r3, r1, lsr #1
 8000e6c:	bf24      	itt	cs
 8000e6e:	eba3 0351 	subcs.w	r3, r3, r1, lsr #1
 8000e72:	ea40 005c 	orrcs.w	r0, r0, ip, lsr #1
 8000e76:	ebb3 0f91 	cmp.w	r3, r1, lsr #2
 8000e7a:	bf24      	itt	cs
 8000e7c:	eba3 0391 	subcs.w	r3, r3, r1, lsr #2
 8000e80:	ea40 009c 	orrcs.w	r0, r0, ip, lsr #2
 8000e84:	ebb3 0fd1 	cmp.w	r3, r1, lsr #3
 8000e88:	bf24      	itt	cs
 8000e8a:	eba3 03d1 	subcs.w	r3, r3, r1, lsr #3
 8000e8e:	ea40 00dc 	orrcs.w	r0, r0, ip, lsr #3
 8000e92:	011b      	lsls	r3, r3, #4
 8000e94:	bf18      	it	ne
 8000e96:	ea5f 1c1c 	movsne.w	ip, ip, lsr #4
 8000e9a:	d1e0      	bne.n	8000e5e <__aeabi_fdiv+0x46>
 8000e9c:	2afd      	cmp	r2, #253	; 0xfd
 8000e9e:	f63f af50 	bhi.w	8000d42 <__aeabi_fmul+0x92>
 8000ea2:	428b      	cmp	r3, r1
 8000ea4:	eb40 50c2 	adc.w	r0, r0, r2, lsl #23
 8000ea8:	bf08      	it	eq
 8000eaa:	f020 0001 	biceq.w	r0, r0, #1
 8000eae:	4770      	bx	lr
 8000eb0:	f00c 4c00 	and.w	ip, ip, #2147483648	; 0x80000000
 8000eb4:	ea4c 2050 	orr.w	r0, ip, r0, lsr #9
 8000eb8:	327f      	adds	r2, #127	; 0x7f
 8000eba:	bfc2      	ittt	gt
 8000ebc:	f1d2 03ff 	rsbsgt	r3, r2, #255	; 0xff
 8000ec0:	ea40 50c2 	orrgt.w	r0, r0, r2, lsl #23
 8000ec4:	4770      	bxgt	lr
 8000ec6:	f440 0000 	orr.w	r0, r0, #8388608	; 0x800000
 8000eca:	f04f 0300 	mov.w	r3, #0
 8000ece:	3a01      	subs	r2, #1
 8000ed0:	e737      	b.n	8000d42 <__aeabi_fmul+0x92>
 8000ed2:	f092 0f00 	teq	r2, #0
 8000ed6:	f000 4c00 	and.w	ip, r0, #2147483648	; 0x80000000
 8000eda:	bf02      	ittt	eq
 8000edc:	0040      	lsleq	r0, r0, #1
 8000ede:	f410 0f00 	tsteq.w	r0, #8388608	; 0x800000
 8000ee2:	3a01      	subeq	r2, #1
 8000ee4:	d0f9      	beq.n	8000eda <__aeabi_fdiv+0xc2>
 8000ee6:	ea40 000c 	orr.w	r0, r0, ip
 8000eea:	f093 0f00 	teq	r3, #0
 8000eee:	f001 4c00 	and.w	ip, r1, #2147483648	; 0x80000000
 8000ef2:	bf02      	ittt	eq
 8000ef4:	0049      	lsleq	r1, r1, #1
 8000ef6:	f411 0f00 	tsteq.w	r1, #8388608	; 0x800000
 8000efa:	3b01      	subeq	r3, #1
 8000efc:	d0f9      	beq.n	8000ef2 <__aeabi_fdiv+0xda>
 8000efe:	ea41 010c 	orr.w	r1, r1, ip
 8000f02:	e795      	b.n	8000e30 <__aeabi_fdiv+0x18>
 8000f04:	ea0c 53d1 	and.w	r3, ip, r1, lsr #23
 8000f08:	ea92 0f0c 	teq	r2, ip
 8000f0c:	d108      	bne.n	8000f20 <__aeabi_fdiv+0x108>
 8000f0e:	0242      	lsls	r2, r0, #9
 8000f10:	f47f af7d 	bne.w	8000e0e <__aeabi_fmul+0x15e>
 8000f14:	ea93 0f0c 	teq	r3, ip
 8000f18:	f47f af70 	bne.w	8000dfc <__aeabi_fmul+0x14c>
 8000f1c:	4608      	mov	r0, r1
 8000f1e:	e776      	b.n	8000e0e <__aeabi_fmul+0x15e>
 8000f20:	ea93 0f0c 	teq	r3, ip
 8000f24:	d104      	bne.n	8000f30 <__aeabi_fdiv+0x118>
 8000f26:	024b      	lsls	r3, r1, #9
 8000f28:	f43f af4c 	beq.w	8000dc4 <__aeabi_fmul+0x114>
 8000f2c:	4608      	mov	r0, r1
 8000f2e:	e76e      	b.n	8000e0e <__aeabi_fmul+0x15e>
 8000f30:	f030 4c00 	bics.w	ip, r0, #2147483648	; 0x80000000
 8000f34:	bf18      	it	ne
 8000f36:	f031 4c00 	bicsne.w	ip, r1, #2147483648	; 0x80000000
 8000f3a:	d1ca      	bne.n	8000ed2 <__aeabi_fdiv+0xba>
 8000f3c:	f030 4200 	bics.w	r2, r0, #2147483648	; 0x80000000
 8000f40:	f47f af5c 	bne.w	8000dfc <__aeabi_fmul+0x14c>
 8000f44:	f031 4300 	bics.w	r3, r1, #2147483648	; 0x80000000
 8000f48:	f47f af3c 	bne.w	8000dc4 <__aeabi_fmul+0x114>
 8000f4c:	e75f      	b.n	8000e0e <__aeabi_fmul+0x15e>
 8000f4e:	bf00      	nop

08000f50 <__gesf2>:
 8000f50:	f04f 3cff 	mov.w	ip, #4294967295
 8000f54:	e006      	b.n	8000f64 <__cmpsf2+0x4>
 8000f56:	bf00      	nop

08000f58 <__lesf2>:
 8000f58:	f04f 0c01 	mov.w	ip, #1
 8000f5c:	e002      	b.n	8000f64 <__cmpsf2+0x4>
 8000f5e:	bf00      	nop

08000f60 <__cmpsf2>:
 8000f60:	f04f 0c01 	mov.w	ip, #1
 8000f64:	f84d cd04 	str.w	ip, [sp, #-4]!
 8000f68:	ea4f 0240 	mov.w	r2, r0, lsl #1
 8000f6c:	ea4f 0341 	mov.w	r3, r1, lsl #1
 8000f70:	ea7f 6c22 	mvns.w	ip, r2, asr #24
 8000f74:	bf18      	it	ne
 8000f76:	ea7f 6c23 	mvnsne.w	ip, r3, asr #24
 8000f7a:	d011      	beq.n	8000fa0 <__cmpsf2+0x40>
 8000f7c:	b001      	add	sp, #4
 8000f7e:	ea52 0c53 	orrs.w	ip, r2, r3, lsr #1
 8000f82:	bf18      	it	ne
 8000f84:	ea90 0f01 	teqne	r0, r1
 8000f88:	bf58      	it	pl
 8000f8a:	ebb2 0003 	subspl.w	r0, r2, r3
 8000f8e:	bf88      	it	hi
 8000f90:	17c8      	asrhi	r0, r1, #31
 8000f92:	bf38      	it	cc
 8000f94:	ea6f 70e1 	mvncc.w	r0, r1, asr #31
 8000f98:	bf18      	it	ne
 8000f9a:	f040 0001 	orrne.w	r0, r0, #1
 8000f9e:	4770      	bx	lr
 8000fa0:	ea7f 6c22 	mvns.w	ip, r2, asr #24
 8000fa4:	d102      	bne.n	8000fac <__cmpsf2+0x4c>
 8000fa6:	ea5f 2c40 	movs.w	ip, r0, lsl #9
 8000faa:	d105      	bne.n	8000fb8 <__cmpsf2+0x58>
 8000fac:	ea7f 6c23 	mvns.w	ip, r3, asr #24
 8000fb0:	d1e4      	bne.n	8000f7c <__cmpsf2+0x1c>
 8000fb2:	ea5f 2c41 	movs.w	ip, r1, lsl #9
 8000fb6:	d0e1      	beq.n	8000f7c <__cmpsf2+0x1c>
 8000fb8:	f85d 0b04 	ldr.w	r0, [sp], #4
 8000fbc:	4770      	bx	lr
 8000fbe:	bf00      	nop

08000fc0 <__aeabi_cfrcmple>:
 8000fc0:	4684      	mov	ip, r0
 8000fc2:	4608      	mov	r0, r1
 8000fc4:	4661      	mov	r1, ip
 8000fc6:	e7ff      	b.n	8000fc8 <__aeabi_cfcmpeq>

08000fc8 <__aeabi_cfcmpeq>:
 8000fc8:	b50f      	push	{r0, r1, r2, r3, lr}
 8000fca:	f7ff ffc9 	bl	8000f60 <__cmpsf2>
 8000fce:	2800      	cmp	r0, #0
 8000fd0:	bf48      	it	mi
 8000fd2:	f110 0f00 	cmnmi.w	r0, #0
 8000fd6:	bd0f      	pop	{r0, r1, r2, r3, pc}

08000fd8 <__aeabi_fcmpeq>:
 8000fd8:	f84d ed08 	str.w	lr, [sp, #-8]!
 8000fdc:	f7ff fff4 	bl	8000fc8 <__aeabi_cfcmpeq>
 8000fe0:	bf0c      	ite	eq
 8000fe2:	2001      	moveq	r0, #1
 8000fe4:	2000      	movne	r0, #0
 8000fe6:	f85d fb08 	ldr.w	pc, [sp], #8
 8000fea:	bf00      	nop

08000fec <__aeabi_fcmplt>:
 8000fec:	f84d ed08 	str.w	lr, [sp, #-8]!
 8000ff0:	f7ff ffea 	bl	8000fc8 <__aeabi_cfcmpeq>
 8000ff4:	bf34      	ite	cc
 8000ff6:	2001      	movcc	r0, #1
 8000ff8:	2000      	movcs	r0, #0
 8000ffa:	f85d fb08 	ldr.w	pc, [sp], #8
 8000ffe:	bf00      	nop

08001000 <__aeabi_fcmple>:
 8001000:	f84d ed08 	str.w	lr, [sp, #-8]!
 8001004:	f7ff ffe0 	bl	8000fc8 <__aeabi_cfcmpeq>
 8001008:	bf94      	ite	ls
 800100a:	2001      	movls	r0, #1
 800100c:	2000      	movhi	r0, #0
 800100e:	f85d fb08 	ldr.w	pc, [sp], #8
 8001012:	bf00      	nop

08001014 <__aeabi_fcmpge>:
 8001014:	f84d ed08 	str.w	lr, [sp, #-8]!
 8001018:	f7ff ffd2 	bl	8000fc0 <__aeabi_cfrcmple>
 800101c:	bf94      	ite	ls
 800101e:	2001      	movls	r0, #1
 8001020:	2000      	movhi	r0, #0
 8001022:	f85d fb08 	ldr.w	pc, [sp], #8
 8001026:	bf00      	nop

08001028 <__aeabi_fcmpgt>:
 8001028:	f84d ed08 	str.w	lr, [sp, #-8]!
 800102c:	f7ff ffc8 	bl	8000fc0 <__aeabi_cfrcmple>
 8001030:	bf34      	ite	cc
 8001032:	2001      	movcc	r0, #1
 8001034:	2000      	movcs	r0, #0
 8001036:	f85d fb08 	ldr.w	pc, [sp], #8
 800103a:	bf00      	nop

0800103c <__aeabi_f2uiz>:
 800103c:	0042      	lsls	r2, r0, #1
 800103e:	d20e      	bcs.n	800105e <__aeabi_f2uiz+0x22>
 8001040:	f1b2 4ffe 	cmp.w	r2, #2130706432	; 0x7f000000
 8001044:	d30b      	bcc.n	800105e <__aeabi_f2uiz+0x22>
 8001046:	f04f 039e 	mov.w	r3, #158	; 0x9e
 800104a:	ebb3 6212 	subs.w	r2, r3, r2, lsr #24
 800104e:	d409      	bmi.n	8001064 <__aeabi_f2uiz+0x28>
 8001050:	ea4f 2300 	mov.w	r3, r0, lsl #8
 8001054:	f043 4300 	orr.w	r3, r3, #2147483648	; 0x80000000
 8001058:	fa23 f002 	lsr.w	r0, r3, r2
 800105c:	4770      	bx	lr
 800105e:	f04f 0000 	mov.w	r0, #0
 8001062:	4770      	bx	lr
 8001064:	f112 0f61 	cmn.w	r2, #97	; 0x61
 8001068:	d101      	bne.n	800106e <__aeabi_f2uiz+0x32>
 800106a:	0242      	lsls	r2, r0, #9
 800106c:	d102      	bne.n	8001074 <__aeabi_f2uiz+0x38>
 800106e:	f04f 30ff 	mov.w	r0, #4294967295
 8001072:	4770      	bx	lr
 8001074:	f04f 0000 	mov.w	r0, #0
 8001078:	4770      	bx	lr
 800107a:	bf00      	nop

0800107c <memcpy>:
 800107c:	4684      	mov	ip, r0
 800107e:	ea41 0300 	orr.w	r3, r1, r0
 8001082:	f013 0303 	ands.w	r3, r3, #3
 8001086:	d149      	bne.n	800111c <memcpy+0xa0>
 8001088:	3a40      	subs	r2, #64	; 0x40
 800108a:	d323      	bcc.n	80010d4 <memcpy+0x58>
 800108c:	680b      	ldr	r3, [r1, #0]
 800108e:	6003      	str	r3, [r0, #0]
 8001090:	684b      	ldr	r3, [r1, #4]
 8001092:	6043      	str	r3, [r0, #4]
 8001094:	688b      	ldr	r3, [r1, #8]
 8001096:	6083      	str	r3, [r0, #8]
 8001098:	68cb      	ldr	r3, [r1, #12]
 800109a:	60c3      	str	r3, [r0, #12]
 800109c:	690b      	ldr	r3, [r1, #16]
 800109e:	6103      	str	r3, [r0, #16]
 80010a0:	694b      	ldr	r3, [r1, #20]
 80010a2:	6143      	str	r3, [r0, #20]
 80010a4:	698b      	ldr	r3, [r1, #24]
 80010a6:	6183      	str	r3, [r0, #24]
 80010a8:	69cb      	ldr	r3, [r1, #28]
 80010aa:	61c3      	str	r3, [r0, #28]
 80010ac:	6a0b      	ldr	r3, [r1, #32]
 80010ae:	6203      	str	r3, [r0, #32]
 80010b0:	6a4b      	ldr	r3, [r1, #36]	; 0x24
 80010b2:	6243      	str	r3, [r0, #36]	; 0x24
 80010b4:	6a8b      	ldr	r3, [r1, #40]	; 0x28
 80010b6:	6283      	str	r3, [r0, #40]	; 0x28
 80010b8:	6acb      	ldr	r3, [r1, #44]	; 0x2c
 80010ba:	62c3      	str	r3, [r0, #44]	; 0x2c
 80010bc:	6b0b      	ldr	r3, [r1, #48]	; 0x30
 80010be:	6303      	str	r3, [r0, #48]	; 0x30
 80010c0:	6b4b      	ldr	r3, [r1, #52]	; 0x34
 80010c2:	6343      	str	r3, [r0, #52]	; 0x34
 80010c4:	6b8b      	ldr	r3, [r1, #56]	; 0x38
 80010c6:	6383      	str	r3, [r0, #56]	; 0x38
 80010c8:	6bcb      	ldr	r3, [r1, #60]	; 0x3c
 80010ca:	63c3      	str	r3, [r0, #60]	; 0x3c
 80010cc:	3040      	adds	r0, #64	; 0x40
 80010ce:	3140      	adds	r1, #64	; 0x40
 80010d0:	3a40      	subs	r2, #64	; 0x40
 80010d2:	d2db      	bcs.n	800108c <memcpy+0x10>
 80010d4:	3230      	adds	r2, #48	; 0x30
 80010d6:	d30b      	bcc.n	80010f0 <memcpy+0x74>
 80010d8:	680b      	ldr	r3, [r1, #0]
 80010da:	6003      	str	r3, [r0, #0]
 80010dc:	684b      	ldr	r3, [r1, #4]
 80010de:	6043      	str	r3, [r0, #4]
 80010e0:	688b      	ldr	r3, [r1, #8]
 80010e2:	6083      	str	r3, [r0, #8]
 80010e4:	68cb      	ldr	r3, [r1, #12]
 80010e6:	60c3      	str	r3, [r0, #12]
 80010e8:	3010      	adds	r0, #16
 80010ea:	3110      	adds	r1, #16
 80010ec:	3a10      	subs	r2, #16
 80010ee:	d2f3      	bcs.n	80010d8 <memcpy+0x5c>
 80010f0:	320c      	adds	r2, #12
 80010f2:	d305      	bcc.n	8001100 <memcpy+0x84>
 80010f4:	f851 3b04 	ldr.w	r3, [r1], #4
 80010f8:	f840 3b04 	str.w	r3, [r0], #4
 80010fc:	3a04      	subs	r2, #4
 80010fe:	d2f9      	bcs.n	80010f4 <memcpy+0x78>
 8001100:	3204      	adds	r2, #4
 8001102:	d008      	beq.n	8001116 <memcpy+0x9a>
 8001104:	07d2      	lsls	r2, r2, #31
 8001106:	bf1c      	itt	ne
 8001108:	f811 3b01 	ldrbne.w	r3, [r1], #1
 800110c:	f800 3b01 	strbne.w	r3, [r0], #1
 8001110:	d301      	bcc.n	8001116 <memcpy+0x9a>
 8001112:	880b      	ldrh	r3, [r1, #0]
 8001114:	8003      	strh	r3, [r0, #0]
 8001116:	4660      	mov	r0, ip
 8001118:	4770      	bx	lr
 800111a:	bf00      	nop
 800111c:	2a08      	cmp	r2, #8
 800111e:	d313      	bcc.n	8001148 <memcpy+0xcc>
 8001120:	078b      	lsls	r3, r1, #30
 8001122:	d0b1      	beq.n	8001088 <memcpy+0xc>
 8001124:	f010 0303 	ands.w	r3, r0, #3
 8001128:	d0ae      	beq.n	8001088 <memcpy+0xc>
 800112a:	f1c3 0304 	rsb	r3, r3, #4
 800112e:	1ad2      	subs	r2, r2, r3
 8001130:	07db      	lsls	r3, r3, #31
 8001132:	bf1c      	itt	ne
 8001134:	f811 3b01 	ldrbne.w	r3, [r1], #1
 8001138:	f800 3b01 	strbne.w	r3, [r0], #1
 800113c:	d3a4      	bcc.n	8001088 <memcpy+0xc>
 800113e:	f831 3b02 	ldrh.w	r3, [r1], #2
 8001142:	f820 3b02 	strh.w	r3, [r0], #2
 8001146:	e79f      	b.n	8001088 <memcpy+0xc>
 8001148:	3a04      	subs	r2, #4
 800114a:	d3d9      	bcc.n	8001100 <memcpy+0x84>
 800114c:	3a01      	subs	r2, #1
 800114e:	f811 3b01 	ldrb.w	r3, [r1], #1
 8001152:	f800 3b01 	strb.w	r3, [r0], #1
 8001156:	d2f9      	bcs.n	800114c <memcpy+0xd0>
 8001158:	780b      	ldrb	r3, [r1, #0]
 800115a:	7003      	strb	r3, [r0, #0]
 800115c:	784b      	ldrb	r3, [r1, #1]
 800115e:	7043      	strb	r3, [r0, #1]
 8001160:	788b      	ldrb	r3, [r1, #2]
 8001162:	7083      	strb	r3, [r0, #2]
 8001164:	4660      	mov	r0, ip
 8001166:	4770      	bx	lr

08001168 <main>:
 8001168:	e92d 4880 	stmdb	sp!, {r7, fp, lr}
 800116c:	4c61      	ldr	r4, [pc, #388]	; (80012f4 <main+0x18c>)
 800116e:	b0c5      	sub	sp, #276	; 0x114
 8001170:	f44f 6285 	mov.w	r2, #1064	; 0x428
 8001174:	4620      	mov	r0, r4
 8001176:	2100      	movs	r1, #0
 8001178:	f008 ff5c 	bl	800a034 <memset>
 800117c:	f504 733b 	add.w	r3, r4, #748	; 0x2ec
 8001180:	6063      	str	r3, [r4, #4]
 8001182:	f504 7355 	add.w	r3, r4, #852	; 0x354
 8001186:	60a3      	str	r3, [r4, #8]
 8001188:	f504 736f 	add.w	r3, r4, #956	; 0x3bc
 800118c:	60e3      	str	r3, [r4, #12]
 800118e:	4b5a      	ldr	r3, [pc, #360]	; (80012f8 <main+0x190>)
 8001190:	2201      	movs	r2, #1
 8001192:	6363      	str	r3, [r4, #52]	; 0x34
 8001194:	2300      	movs	r3, #0
 8001196:	e9c4 232a 	strd	r2, r3, [r4, #168]	; 0xa8
 800119a:	f243 330e 	movw	r3, #13070	; 0x330e
 800119e:	f8a4 30b0 	strh.w	r3, [r4, #176]	; 0xb0
 80011a2:	f64a 33cd 	movw	r3, #43981	; 0xabcd
 80011a6:	f8a4 30b2 	strh.w	r3, [r4, #178]	; 0xb2
 80011aa:	f241 2334 	movw	r3, #4660	; 0x1234
 80011ae:	f8a4 30b4 	strh.w	r3, [r4, #180]	; 0xb4
 80011b2:	f24e 636d 	movw	r3, #58989	; 0xe66d
 80011b6:	f8a4 30b6 	strh.w	r3, [r4, #182]	; 0xb6
 80011ba:	f64d 63ec 	movw	r3, #57068	; 0xdeec
 80011be:	f8a4 30b8 	strh.w	r3, [r4, #184]	; 0xb8
 80011c2:	2305      	movs	r3, #5
 80011c4:	f8a4 30ba 	strh.w	r3, [r4, #186]	; 0xba
 80011c8:	230b      	movs	r3, #11
 80011ca:	f8a4 30bc 	strh.w	r3, [r4, #188]	; 0xbc
 80011ce:	4d4b      	ldr	r5, [pc, #300]	; (80012fc <main+0x194>)
 80011d0:	4b4b      	ldr	r3, [pc, #300]	; (8001300 <main+0x198>)
 80011d2:	601c      	str	r4, [r3, #0]
 80011d4:	682b      	ldr	r3, [r5, #0]
 80011d6:	f043 0301 	orr.w	r3, r3, #1
 80011da:	602b      	str	r3, [r5, #0]
 80011dc:	686a      	ldr	r2, [r5, #4]
 80011de:	4b49      	ldr	r3, [pc, #292]	; (8001304 <main+0x19c>)
 80011e0:	4013      	ands	r3, r2
 80011e2:	606b      	str	r3, [r5, #4]
 80011e4:	682b      	ldr	r3, [r5, #0]
 80011e6:	f023 7384 	bic.w	r3, r3, #17301504	; 0x1080000
 80011ea:	f423 3380 	bic.w	r3, r3, #65536	; 0x10000
 80011ee:	602b      	str	r3, [r5, #0]
 80011f0:	682b      	ldr	r3, [r5, #0]
 80011f2:	f423 2380 	bic.w	r3, r3, #262144	; 0x40000
 80011f6:	602b      	str	r3, [r5, #0]
 80011f8:	686b      	ldr	r3, [r5, #4]
 80011fa:	f423 03fe 	bic.w	r3, r3, #8323072	; 0x7f0000
 80011fe:	606b      	str	r3, [r5, #4]
 8001200:	f44f 031f 	mov.w	r3, #10420224	; 0x9f0000
 8001204:	60ab      	str	r3, [r5, #8]
 8001206:	2300      	movs	r3, #0
 8001208:	932e      	str	r3, [sp, #184]	; 0xb8
 800120a:	932f      	str	r3, [sp, #188]	; 0xbc
 800120c:	682b      	ldr	r3, [r5, #0]
 800120e:	f443 3380 	orr.w	r3, r3, #65536	; 0x10000
 8001212:	602b      	str	r3, [r5, #0]
 8001214:	682b      	ldr	r3, [r5, #0]
 8001216:	f403 3300 	and.w	r3, r3, #131072	; 0x20000
 800121a:	932f      	str	r3, [sp, #188]	; 0xbc
 800121c:	9b2e      	ldr	r3, [sp, #184]	; 0xb8
 800121e:	3301      	adds	r3, #1
 8001220:	932e      	str	r3, [sp, #184]	; 0xb8
 8001222:	9b2f      	ldr	r3, [sp, #188]	; 0xbc
 8001224:	b91b      	cbnz	r3, 800122e <main+0xc6>
 8001226:	9b2e      	ldr	r3, [sp, #184]	; 0xb8
 8001228:	f5b3 6fa0 	cmp.w	r3, #1280	; 0x500
 800122c:	d1f2      	bne.n	8001214 <main+0xac>
 800122e:	682b      	ldr	r3, [r5, #0]
 8001230:	f413 3300 	ands.w	r3, r3, #131072	; 0x20000
 8001234:	bf18      	it	ne
 8001236:	2301      	movne	r3, #1
 8001238:	932f      	str	r3, [sp, #188]	; 0xbc
 800123a:	9b2f      	ldr	r3, [sp, #188]	; 0xbc
 800123c:	2b01      	cmp	r3, #1
 800123e:	d132      	bne.n	80012a6 <main+0x13e>
 8001240:	4b31      	ldr	r3, [pc, #196]	; (8001308 <main+0x1a0>)
 8001242:	681a      	ldr	r2, [r3, #0]
 8001244:	f042 0210 	orr.w	r2, r2, #16
 8001248:	601a      	str	r2, [r3, #0]
 800124a:	681a      	ldr	r2, [r3, #0]
 800124c:	f022 0203 	bic.w	r2, r2, #3
 8001250:	601a      	str	r2, [r3, #0]
 8001252:	681a      	ldr	r2, [r3, #0]
 8001254:	601a      	str	r2, [r3, #0]
 8001256:	686b      	ldr	r3, [r5, #4]
 8001258:	606b      	str	r3, [r5, #4]
 800125a:	686b      	ldr	r3, [r5, #4]
 800125c:	f443 5300 	orr.w	r3, r3, #8192	; 0x2000
 8001260:	606b      	str	r3, [r5, #4]
 8001262:	686b      	ldr	r3, [r5, #4]
 8001264:	f443 63c0 	orr.w	r3, r3, #1536	; 0x600
 8001268:	606b      	str	r3, [r5, #4]
 800126a:	686b      	ldr	r3, [r5, #4]
 800126c:	f423 137c 	bic.w	r3, r3, #4128768	; 0x3f0000
 8001270:	606b      	str	r3, [r5, #4]
 8001272:	686b      	ldr	r3, [r5, #4]
 8001274:	f443 2330 	orr.w	r3, r3, #720896	; 0xb0000
 8001278:	606b      	str	r3, [r5, #4]
 800127a:	682b      	ldr	r3, [r5, #0]
 800127c:	f043 7380 	orr.w	r3, r3, #16777216	; 0x1000000
 8001280:	602b      	str	r3, [r5, #0]
 8001282:	682a      	ldr	r2, [r5, #0]
 8001284:	4b1d      	ldr	r3, [pc, #116]	; (80012fc <main+0x194>)
 8001286:	0197      	lsls	r7, r2, #6
 8001288:	d5fb      	bpl.n	8001282 <main+0x11a>
 800128a:	685a      	ldr	r2, [r3, #4]
 800128c:	f022 0203 	bic.w	r2, r2, #3
 8001290:	605a      	str	r2, [r3, #4]
 8001292:	685a      	ldr	r2, [r3, #4]
 8001294:	f042 0202 	orr.w	r2, r2, #2
 8001298:	605a      	str	r2, [r3, #4]
 800129a:	686b      	ldr	r3, [r5, #4]
 800129c:	f003 030c 	and.w	r3, r3, #12
 80012a0:	2b08      	cmp	r3, #8
 80012a2:	d1fa      	bne.n	800129a <main+0x132>
 80012a4:	e000      	b.n	80012a8 <main+0x140>
 80012a6:	e7fe      	b.n	80012a6 <main+0x13e>
 80012a8:	200d      	movs	r0, #13
 80012aa:	2101      	movs	r1, #1
 80012ac:	f007 fdc2 	bl	8008e34 <RCC_APB2PeriphClockCmd>
 80012b0:	f007 fd04 	bl	8008cbc <PWR_DeInit>
 80012b4:	2101      	movs	r1, #1
 80012b6:	f04f 5080 	mov.w	r0, #268435456	; 0x10000000
 80012ba:	f007 fdc7 	bl	8008e4c <RCC_APB1PeriphClockCmd>
 80012be:	2000      	movs	r0, #0
 80012c0:	f007 fd10 	bl	8008ce4 <PWR_WakeUpPinCmd>
 80012c4:	2304      	movs	r3, #4
 80012c6:	f8ad 30e4 	strh.w	r3, [sp, #228]	; 0xe4
 80012ca:	2328      	movs	r3, #40	; 0x28
 80012cc:	f88d 30e7 	strb.w	r3, [sp, #231]	; 0xe7
 80012d0:	480e      	ldr	r0, [pc, #56]	; (800130c <main+0x1a4>)
 80012d2:	2302      	movs	r3, #2
 80012d4:	a939      	add	r1, sp, #228	; 0xe4
 80012d6:	f88d 30e6 	strb.w	r3, [sp, #230]	; 0xe6
 80012da:	f64f 77ff 	movw	r7, #65535	; 0xffff
 80012de:	f007 fb87 	bl	80089f0 <GPIO_Init>
 80012e2:	480a      	ldr	r0, [pc, #40]	; (800130c <main+0x1a4>)
 80012e4:	2104      	movs	r1, #4
 80012e6:	f007 fbcb 	bl	8008a80 <GPIO_ReadInputDataBit>
 80012ea:	b188      	cbz	r0, 8001310 <main+0x1a8>
 80012ec:	2301      	movs	r3, #1
 80012ee:	f884 3428 	strb.w	r3, [r4, #1064]	; 0x428
 80012f2:	e011      	b.n	8001318 <main+0x1b0>
 80012f4:	200009d8 	ldrdcs	r0, [r0], -r8
 80012f8:	0800a7e2 	stmdaeq	r0, {r1, r5, r6, r7, r8, r9, sl, sp, pc}
 80012fc:	40021000 	andmi	r1, r2, r0
 8001300:	200009d0 	ldrdcs	r0, [r0], -r0	; <UNPREDICTABLE>
 8001304:	f8ff0000 			; <UNDEFINED> instruction: 0xf8ff0000
 8001308:	40022000 	andmi	r2, r2, r0
 800130c:	40010c00 	andmi	r0, r1, r0, lsl #24
 8001310:	3f01      	subs	r7, #1
 8001312:	b2bf      	uxth	r7, r7
 8001314:	2f00      	cmp	r7, #0
 8001316:	d1e4      	bne.n	80012e2 <main+0x17a>
 8001318:	f44f 7380 	mov.w	r3, #256	; 0x100
 800131c:	2748      	movs	r7, #72	; 0x48
 800131e:	487b      	ldr	r0, [pc, #492]	; (800150c <main+0x3a4>)
 8001320:	a939      	add	r1, sp, #228	; 0xe4
 8001322:	f8ad 30e4 	strh.w	r3, [sp, #228]	; 0xe4
 8001326:	f88d 70e7 	strb.w	r7, [sp, #231]	; 0xe7
 800132a:	f007 fb61 	bl	80089f0 <GPIO_Init>
 800132e:	f44f 4320 	mov.w	r3, #40960	; 0xa000
 8001332:	4876      	ldr	r0, [pc, #472]	; (800150c <main+0x3a4>)
 8001334:	a939      	add	r1, sp, #228	; 0xe4
 8001336:	f8ad 30e4 	strh.w	r3, [sp, #228]	; 0xe4
 800133a:	f007 fb59 	bl	80089f0 <GPIO_Init>
 800133e:	2301      	movs	r3, #1
 8001340:	f8ad 30e4 	strh.w	r3, [sp, #228]	; 0xe4
 8001344:	f894 3428 	ldrb.w	r3, [r4, #1064]	; 0x428
 8001348:	4871      	ldr	r0, [pc, #452]	; (8001510 <main+0x3a8>)
 800134a:	2b01      	cmp	r3, #1
 800134c:	bf18      	it	ne
 800134e:	2328      	movne	r3, #40	; 0x28
 8001350:	a939      	add	r1, sp, #228	; 0xe4
 8001352:	bf0c      	ite	eq
 8001354:	f88d 70e7 	strbeq.w	r7, [sp, #231]	; 0xe7
 8001358:	f88d 30e7 	strbne.w	r3, [sp, #231]	; 0xe7
 800135c:	f04f 0910 	mov.w	r9, #16
 8001360:	f007 fb46 	bl	80089f0 <GPIO_Init>
 8001364:	2720      	movs	r7, #32
 8001366:	4869      	ldr	r0, [pc, #420]	; (800150c <main+0x3a4>)
 8001368:	a939      	add	r1, sp, #228	; 0xe4
 800136a:	f8ad 70e4 	strh.w	r7, [sp, #228]	; 0xe4
 800136e:	f88d 90e7 	strb.w	r9, [sp, #231]	; 0xe7
 8001372:	f007 fb3d 	bl	80089f0 <GPIO_Init>
 8001376:	2201      	movs	r2, #1
 8001378:	4639      	mov	r1, r7
 800137a:	4864      	ldr	r0, [pc, #400]	; (800150c <main+0x3a4>)
 800137c:	f007 fb8a 	bl	8008a94 <GPIO_WriteBit>
 8001380:	2700      	movs	r7, #0
 8001382:	2302      	movs	r3, #2
 8001384:	4862      	ldr	r0, [pc, #392]	; (8001510 <main+0x3a8>)
 8001386:	a939      	add	r1, sp, #228	; 0xe4
 8001388:	f8ad 30e4 	strh.w	r3, [sp, #228]	; 0xe4
 800138c:	f88d 70e7 	strb.w	r7, [sp, #231]	; 0xe7
 8001390:	f007 fb2e 	bl	80089f0 <GPIO_Init>
 8001394:	485d      	ldr	r0, [pc, #372]	; (800150c <main+0x3a4>)
 8001396:	a939      	add	r1, sp, #228	; 0xe4
 8001398:	f007 fb2a 	bl	80089f0 <GPIO_Init>
 800139c:	f04f 0801 	mov.w	r8, #1
 80013a0:	f44f 4a00 	mov.w	sl, #32768	; 0x8000
 80013a4:	485a      	ldr	r0, [pc, #360]	; (8001510 <main+0x3a8>)
 80013a6:	a939      	add	r1, sp, #228	; 0xe4
 80013a8:	f8ad a0e4 	strh.w	sl, [sp, #228]	; 0xe4
 80013ac:	f88d 80e6 	strb.w	r8, [sp, #230]	; 0xe6
 80013b0:	f88d 90e7 	strb.w	r9, [sp, #231]	; 0xe7
 80013b4:	f007 fb1c 	bl	80089f0 <GPIO_Init>
 80013b8:	4651      	mov	r1, sl
 80013ba:	4642      	mov	r2, r8
 80013bc:	4854      	ldr	r0, [pc, #336]	; (8001510 <main+0x3a8>)
 80013be:	f007 fb69 	bl	8008a94 <GPIO_WriteBit>
 80013c2:	f44f 5a80 	mov.w	sl, #4096	; 0x1000
 80013c6:	4851      	ldr	r0, [pc, #324]	; (800150c <main+0x3a4>)
 80013c8:	a939      	add	r1, sp, #228	; 0xe4
 80013ca:	f8ad a0e4 	strh.w	sl, [sp, #228]	; 0xe4
 80013ce:	f007 fb0f 	bl	80089f0 <GPIO_Init>
 80013d2:	463a      	mov	r2, r7
 80013d4:	484d      	ldr	r0, [pc, #308]	; (800150c <main+0x3a4>)
 80013d6:	4651      	mov	r1, sl
 80013d8:	f007 fb5c 	bl	8008a94 <GPIO_WriteBit>
 80013dc:	484b      	ldr	r0, [pc, #300]	; (800150c <main+0x3a4>)
 80013de:	a939      	add	r1, sp, #228	; 0xe4
 80013e0:	f007 fb06 	bl	80089f0 <GPIO_Init>
 80013e4:	4849      	ldr	r0, [pc, #292]	; (800150c <main+0x3a4>)
 80013e6:	a939      	add	r1, sp, #228	; 0xe4
 80013e8:	f8ad 90e4 	strh.w	r9, [sp, #228]	; 0xe4
 80013ec:	f007 fb00 	bl	80089f0 <GPIO_Init>
 80013f0:	463a      	mov	r2, r7
 80013f2:	4846      	ldr	r0, [pc, #280]	; (800150c <main+0x3a4>)
 80013f4:	4649      	mov	r1, r9
 80013f6:	f007 fb4d 	bl	8008a94 <GPIO_WriteBit>
 80013fa:	4641      	mov	r1, r8
 80013fc:	f44f 7080 	mov.w	r0, #256	; 0x100
 8001400:	f007 f9a2 	bl	8008748 <DBGMCU_Config>
 8001404:	4640      	mov	r0, r8
 8001406:	f007 fc67 	bl	8008cd8 <PWR_BackupAccessCmd>
 800140a:	2004      	movs	r0, #4
 800140c:	f007 f98c 	bl	8008728 <BKP_ReadBackupRegister>
 8001410:	f8ad 00b4 	strh.w	r0, [sp, #180]	; 0xb4
 8001414:	4638      	mov	r0, r7
 8001416:	f007 fc5f 	bl	8008cd8 <PWR_BackupAccessCmd>
 800141a:	6a6b      	ldr	r3, [r5, #36]	; 0x24
 800141c:	4a3d      	ldr	r2, [pc, #244]	; (8001514 <main+0x3ac>)
 800141e:	009d      	lsls	r5, r3, #2
 8001420:	d50b      	bpl.n	800143a <main+0x2d2>
 8001422:	f64f 63ed 	movw	r3, #65261	; 0xfeed
 8001426:	f8bd 10b4 	ldrh.w	r1, [sp, #180]	; 0xb4
 800142a:	4299      	cmp	r1, r3
 800142c:	d005      	beq.n	800143a <main+0x2d2>
 800142e:	6a53      	ldr	r3, [r2, #36]	; 0x24
 8001430:	f043 7380 	orr.w	r3, r3, #16777216	; 0x1000000
 8001434:	6253      	str	r3, [r2, #36]	; 0x24
 8001436:	f006 f9be 	bl	80077b6 <shutdown>
 800143a:	2000      	movs	r0, #0
 800143c:	f007 fc6c 	bl	8008d18 <RCC_HCLKConfig>
 8001440:	f247 522f 	movw	r2, #29999	; 0x752f
 8001444:	4b34      	ldr	r3, [pc, #208]	; (8001518 <main+0x3b0>)
 8001446:	2500      	movs	r5, #0
 8001448:	605a      	str	r2, [r3, #4]
 800144a:	2207      	movs	r2, #7
 800144c:	609d      	str	r5, [r3, #8]
 800144e:	f06f 0004 	mvn.w	r0, #4
 8001452:	601a      	str	r2, [r3, #0]
 8001454:	f007 f80c 	bl	8008470 <SysTick_CLKSourceConfig>
 8001458:	f245 5055 	movw	r0, #21845	; 0x5555
 800145c:	f007 fc0c 	bl	8008c78 <IWDG_WriteAccessCmd>
 8001460:	2003      	movs	r0, #3
 8001462:	f007 fc0f 	bl	8008c84 <IWDG_SetPrescaler>
 8001466:	f640 60a6 	movw	r0, #3750	; 0xea6
 800146a:	f007 fc11 	bl	8008c90 <IWDG_SetReload>
 800146e:	f007 fc15 	bl	8008c9c <IWDG_ReloadCounter>
 8001472:	f007 fc1b 	bl	8008cac <IWDG_Enable>
 8001476:	f007 fc11 	bl	8008c9c <IWDG_ReloadCounter>
 800147a:	f04f 50c0 	mov.w	r0, #402653184	; 0x18000000
 800147e:	2101      	movs	r1, #1
 8001480:	f007 fce4 	bl	8008e4c <RCC_APB1PeriphClockCmd>
 8001484:	f8ad 50b6 	strh.w	r5, [sp, #182]	; 0xb6
 8001488:	f241 3287 	movw	r2, #4999	; 0x1387
 800148c:	f8bd 30b6 	ldrh.w	r3, [sp, #182]	; 0xb6
 8001490:	b29b      	uxth	r3, r3
 8001492:	4293      	cmp	r3, r2
 8001494:	d806      	bhi.n	80014a4 <main+0x33c>
 8001496:	f8bd 30b6 	ldrh.w	r3, [sp, #182]	; 0xb6
 800149a:	3301      	adds	r3, #1
 800149c:	b29b      	uxth	r3, r3
 800149e:	f8ad 30b6 	strh.w	r3, [sp, #182]	; 0xb6
 80014a2:	e7f1      	b.n	8001488 <main+0x320>
 80014a4:	2004      	movs	r0, #4
 80014a6:	f007 f93f 	bl	8008728 <BKP_ReadBackupRegister>
 80014aa:	f24a 53a5 	movw	r3, #42405	; 0xa5a5
 80014ae:	4298      	cmp	r0, r3
 80014b0:	d034      	beq.n	800151c <main+0x3b4>
 80014b2:	2001      	movs	r0, #1
 80014b4:	f007 fc10 	bl	8008cd8 <PWR_BackupAccessCmd>
 80014b8:	f007 f907 	bl	80086ca <BKP_DeInit>
 80014bc:	2001      	movs	r0, #1
 80014be:	f007 fc45 	bl	8008d4c <RCC_LSEConfig>
 80014c2:	2041      	movs	r0, #65	; 0x41
 80014c4:	f007 fcec 	bl	8008ea0 <RCC_GetFlagStatus>
 80014c8:	2800      	cmp	r0, #0
 80014ca:	d0fa      	beq.n	80014c2 <main+0x35a>
 80014cc:	f44f 7080 	mov.w	r0, #256	; 0x100
 80014d0:	f007 fc4c 	bl	8008d6c <RCC_RTCCLKConfig>
 80014d4:	2001      	movs	r0, #1
 80014d6:	f007 fc51 	bl	8008d7c <RCC_RTCCLKCmd>
 80014da:	f007 fd3b 	bl	8008f54 <RTC_WaitForSynchro>
 80014de:	f007 fd31 	bl	8008f44 <RTC_WaitForLastTask>
 80014e2:	f647 70ff 	movw	r0, #32767	; 0x7fff
 80014e6:	f007 fd1d 	bl	8008f24 <RTC_SetPrescaler>
 80014ea:	f007 fd2b 	bl	8008f44 <RTC_WaitForLastTask>
 80014ee:	f24a 7094 	movw	r0, #42900	; 0xa794
 80014f2:	f007 fd07 	bl	8008f04 <RTC_SetCounter>
 80014f6:	f007 fd25 	bl	8008f44 <RTC_WaitForLastTask>
 80014fa:	2004      	movs	r0, #4
 80014fc:	f24a 51a5 	movw	r1, #42405	; 0xa5a5
 8001500:	f007 f904 	bl	800870c <BKP_WriteBackupRegister>
 8001504:	2000      	movs	r0, #0
 8001506:	f007 fbe7 	bl	8008cd8 <PWR_BackupAccessCmd>
 800150a:	e009      	b.n	8001520 <main+0x3b8>
 800150c:	40010c00 	andmi	r0, r1, r0, lsl #24
 8001510:	40010800 	andmi	r0, r1, r0, lsl #16
 8001514:	40021000 	andmi	r1, r2, r0
 8001518:	e000e010 	and	lr, r0, r0, lsl r0
 800151c:	f007 fd1a 	bl	8008f54 <RTC_WaitForSynchro>
 8001520:	f44f 6080 	mov.w	r0, #1024	; 0x400
 8001524:	f006 f9b0 	bl	8007888 <malloc>
 8001528:	f8df 92c0 	ldr.w	r9, [pc, #704]	; 80017ec <main+0x684>
 800152c:	f44f 7880 	mov.w	r8, #256	; 0x100
 8001530:	f8c9 0008 	str.w	r0, [r9, #8]
 8001534:	2101      	movs	r1, #1
 8001536:	f244 0004 	movw	r0, #16388	; 0x4004
 800153a:	f8a9 8004 	strh.w	r8, [r9, #4]
 800153e:	f007 fc79 	bl	8008e34 <RCC_APB2PeriphClockCmd>
 8001542:	f44f 3000 	mov.w	r0, #131072	; 0x20000
 8001546:	2101      	movs	r1, #1
 8001548:	f007 fc80 	bl	8008e4c <RCC_APB1PeriphClockCmd>
 800154c:	f44f 7301 	mov.w	r3, #516	; 0x204
 8001550:	2503      	movs	r5, #3
 8001552:	f8ad 30cc 	strh.w	r3, [sp, #204]	; 0xcc
 8001556:	4898      	ldr	r0, [pc, #608]	; (80017b8 <main+0x650>)
 8001558:	2318      	movs	r3, #24
 800155a:	a933      	add	r1, sp, #204	; 0xcc
 800155c:	f88d 50ce 	strb.w	r5, [sp, #206]	; 0xce
 8001560:	f88d 30cf 	strb.w	r3, [sp, #207]	; 0xcf
 8001564:	f007 fa44 	bl	80089f0 <GPIO_Init>
 8001568:	f44f 6381 	mov.w	r3, #1032	; 0x408
 800156c:	f8ad 30cc 	strh.w	r3, [sp, #204]	; 0xcc
 8001570:	4891      	ldr	r0, [pc, #580]	; (80017b8 <main+0x650>)
 8001572:	2304      	movs	r3, #4
 8001574:	a933      	add	r1, sp, #204	; 0xcc
 8001576:	f44f 37e1 	mov.w	r7, #115200	; 0x1c200
 800157a:	f88d 50ce 	strb.w	r5, [sp, #206]	; 0xce
 800157e:	f88d 30cf 	strb.w	r3, [sp, #207]	; 0xcf
 8001582:	2500      	movs	r5, #0
 8001584:	f007 fa34 	bl	80089f0 <GPIO_Init>
 8001588:	230c      	movs	r3, #12
 800158a:	488c      	ldr	r0, [pc, #560]	; (80017bc <main+0x654>)
 800158c:	a935      	add	r1, sp, #212	; 0xd4
 800158e:	f8ad 30de 	strh.w	r3, [sp, #222]	; 0xde
 8001592:	9735      	str	r7, [sp, #212]	; 0xd4
 8001594:	f8ad 50d8 	strh.w	r5, [sp, #216]	; 0xd8
 8001598:	f8ad 50da 	strh.w	r5, [sp, #218]	; 0xda
 800159c:	f8ad 50dc 	strh.w	r5, [sp, #220]	; 0xdc
 80015a0:	f8ad 50e0 	strh.w	r5, [sp, #224]	; 0xe0
 80015a4:	f007 fe04 	bl	80091b0 <USART_Init>
 80015a8:	a935      	add	r1, sp, #212	; 0xd4
 80015aa:	4885      	ldr	r0, [pc, #532]	; (80017c0 <main+0x658>)
 80015ac:	9735      	str	r7, [sp, #212]	; 0xd4
 80015ae:	f007 fdff 	bl	80091b0 <USART_Init>
 80015b2:	f44f 6080 	mov.w	r0, #1024	; 0x400
 80015b6:	f006 f967 	bl	8007888 <malloc>
 80015ba:	4f82      	ldr	r7, [pc, #520]	; (80017c4 <main+0x65c>)
 80015bc:	f04f 0a20 	mov.w	sl, #32
 80015c0:	60b8      	str	r0, [r7, #8]
 80015c2:	4881      	ldr	r0, [pc, #516]	; (80017c8 <main+0x660>)
 80015c4:	f8a7 8004 	strh.w	r8, [r7, #4]
 80015c8:	f007 f8ca 	bl	8008760 <DMA_DeInit>
 80015cc:	2380      	movs	r3, #128	; 0x80
 80015ce:	933e      	str	r3, [sp, #248]	; 0xf8
 80015d0:	f44f 5340 	mov.w	r3, #12288	; 0x3000
 80015d4:	9342      	str	r3, [sp, #264]	; 0x108
 80015d6:	4b7d      	ldr	r3, [pc, #500]	; (80017cc <main+0x664>)
 80015d8:	487b      	ldr	r0, [pc, #492]	; (80017c8 <main+0x660>)
 80015da:	9339      	str	r3, [sp, #228]	; 0xe4
 80015dc:	f107 0308 	add.w	r3, r7, #8
 80015e0:	933a      	str	r3, [sp, #232]	; 0xe8
 80015e2:	88bb      	ldrh	r3, [r7, #4]
 80015e4:	a939      	add	r1, sp, #228	; 0xe4
 80015e6:	b29b      	uxth	r3, r3
 80015e8:	933c      	str	r3, [sp, #240]	; 0xf0
 80015ea:	953d      	str	r5, [sp, #244]	; 0xf4
 80015ec:	953f      	str	r5, [sp, #252]	; 0xfc
 80015ee:	9540      	str	r5, [sp, #256]	; 0x100
 80015f0:	f8cd a104 	str.w	sl, [sp, #260]	; 0x104
 80015f4:	9543      	str	r5, [sp, #268]	; 0x10c
 80015f6:	953b      	str	r5, [sp, #236]	; 0xec
 80015f8:	f007 f92a 	bl	8008850 <DMA_Init>
 80015fc:	4870      	ldr	r0, [pc, #448]	; (80017c0 <main+0x658>)
 80015fe:	2140      	movs	r1, #64	; 0x40
 8001600:	2201      	movs	r2, #1
 8001602:	f007 fe3e 	bl	8009282 <USART_DMACmd>
 8001606:	2201      	movs	r2, #1
 8001608:	486c      	ldr	r0, [pc, #432]	; (80017bc <main+0x654>)
 800160a:	f240 5125 	movw	r1, #1317	; 0x525
 800160e:	f007 fe1f 	bl	8009250 <USART_ITConfig>
 8001612:	486a      	ldr	r0, [pc, #424]	; (80017bc <main+0x654>)
 8001614:	2101      	movs	r1, #1
 8001616:	f007 fe0f 	bl	8009238 <USART_Cmd>
 800161a:	4869      	ldr	r0, [pc, #420]	; (80017c0 <main+0x658>)
 800161c:	2101      	movs	r1, #1
 800161e:	f007 fe0b 	bl	8009238 <USART_Cmd>
 8001622:	4629      	mov	r1, r5
 8001624:	f04f 6000 	mov.w	r0, #134217728	; 0x8000000
 8001628:	f006 ff18 	bl	800845c <NVIC_SetVectorTable>
 800162c:	f44f 60c0 	mov.w	r0, #1536	; 0x600
 8001630:	f006 fed4 	bl	80083dc <NVIC_PriorityGroupConfig>
 8001634:	23ff      	movs	r3, #255	; 0xff
 8001636:	f04f 0801 	mov.w	r8, #1
 800163a:	f88d 30e4 	strb.w	r3, [sp, #228]	; 0xe4
 800163e:	a839      	add	r0, sp, #228	; 0xe4
 8001640:	2302      	movs	r3, #2
 8001642:	f88d 30e6 	strb.w	r3, [sp, #230]	; 0xe6
 8001646:	f88d 80e5 	strb.w	r8, [sp, #229]	; 0xe5
 800164a:	f88d 80e7 	strb.w	r8, [sp, #231]	; 0xe7
 800164e:	f006 fecf 	bl	80083f0 <NVIC_Init>
 8001652:	2312      	movs	r3, #18
 8001654:	a839      	add	r0, sp, #228	; 0xe4
 8001656:	f88d 30e4 	strb.w	r3, [sp, #228]	; 0xe4
 800165a:	f88d 80e5 	strb.w	r8, [sp, #229]	; 0xe5
 800165e:	f88d 80e6 	strb.w	r8, [sp, #230]	; 0xe6
 8001662:	f88d 80e7 	strb.w	r8, [sp, #231]	; 0xe7
 8001666:	f006 fec3 	bl	80083f0 <NVIC_Init>
 800166a:	231f      	movs	r3, #31
 800166c:	a839      	add	r0, sp, #228	; 0xe4
 800166e:	f88d 30e4 	strb.w	r3, [sp, #228]	; 0xe4
 8001672:	f88d 50e5 	strb.w	r5, [sp, #229]	; 0xe5
 8001676:	f88d 80e6 	strb.w	r8, [sp, #230]	; 0xe6
 800167a:	f006 feb9 	bl	80083f0 <NVIC_Init>
 800167e:	a839      	add	r0, sp, #228	; 0xe4
 8001680:	f88d a0e4 	strb.w	sl, [sp, #228]	; 0xe4
 8001684:	f88d 50e5 	strb.w	r5, [sp, #229]	; 0xe5
 8001688:	f88d 50e6 	strb.w	r5, [sp, #230]	; 0xe6
 800168c:	f006 feb0 	bl	80083f0 <NVIC_Init>
 8001690:	2325      	movs	r3, #37	; 0x25
 8001692:	f88d 30e4 	strb.w	r3, [sp, #228]	; 0xe4
 8001696:	a839      	add	r0, sp, #228	; 0xe4
 8001698:	2307      	movs	r3, #7
 800169a:	f88d 30e6 	strb.w	r3, [sp, #230]	; 0xe6
 800169e:	f88d 50e5 	strb.w	r5, [sp, #229]	; 0xe5
 80016a2:	f88d 80e7 	strb.w	r8, [sp, #231]	; 0xe7
 80016a6:	f006 fea3 	bl	80083f0 <NVIC_Init>
 80016aa:	4b49      	ldr	r3, [pc, #292]	; (80017d0 <main+0x668>)
 80016ac:	464f      	mov	r7, r9
 80016ae:	f8c4 342c 	str.w	r3, [r4, #1068]	; 0x42c
 80016b2:	f894 3428 	ldrb.w	r3, [r4, #1064]	; 0x428
 80016b6:	4543      	cmp	r3, r8
 80016b8:	f040 809a 	bne.w	80017f0 <main+0x688>
 80016bc:	4628      	mov	r0, r5
 80016be:	f003 fa3b 	bl	8004b38 <disk_initialize>
 80016c2:	4b44      	ldr	r3, [pc, #272]	; (80017d4 <main+0x66c>)
 80016c4:	6018      	str	r0, [r3, #0]
 80016c6:	681a      	ldr	r2, [r3, #0]
 80016c8:	461e      	mov	r6, r3
 80016ca:	b11a      	cbz	r2, 80016d4 <main+0x56c>
 80016cc:	4628      	mov	r0, r5
 80016ce:	f003 fa33 	bl	8004b38 <disk_initialize>
 80016d2:	6030      	str	r0, [r6, #0]
 80016d4:	6833      	ldr	r3, [r6, #0]
 80016d6:	b94b      	cbnz	r3, 80016ec <main+0x584>
 80016d8:	f8d4 3430 	ldr.w	r3, [r4, #1072]	; 0x430
 80016dc:	b933      	cbnz	r3, 80016ec <main+0x584>
 80016de:	f44f 50a0 	mov.w	r0, #5120	; 0x1400
 80016e2:	f006 f8d1 	bl	8007888 <malloc>
 80016e6:	4b3c      	ldr	r3, [pc, #240]	; (80017d8 <main+0x670>)
 80016e8:	f8c3 0430 	str.w	r0, [r3, #1072]	; 0x430
 80016ec:	2000      	movs	r0, #0
 80016ee:	f007 fb1d 	bl	8008d2c <RCC_USBCLKConfig>
 80016f2:	2101      	movs	r1, #1
 80016f4:	f44f 0000 	mov.w	r0, #8388608	; 0x800000
 80016f8:	f007 fba8 	bl	8008e4c <RCC_APB1PeriphClockCmd>
 80016fc:	2401      	movs	r4, #1
 80016fe:	2314      	movs	r3, #20
 8001700:	a839      	add	r0, sp, #228	; 0xe4
 8001702:	f88d 30e4 	strb.w	r3, [sp, #228]	; 0xe4
 8001706:	f88d 40e5 	strb.w	r4, [sp, #229]	; 0xe5
 800170a:	f88d 40e6 	strb.w	r4, [sp, #230]	; 0xe6
 800170e:	f88d 40e7 	strb.w	r4, [sp, #231]	; 0xe7
 8001712:	f006 fe6d 	bl	80083f0 <NVIC_Init>
 8001716:	2313      	movs	r3, #19
 8001718:	f88d 30e4 	strb.w	r3, [sp, #228]	; 0xe4
 800171c:	a839      	add	r0, sp, #228	; 0xe4
 800171e:	2300      	movs	r3, #0
 8001720:	f88d 40e5 	strb.w	r4, [sp, #229]	; 0xe5
 8001724:	f88d 30e6 	strb.w	r3, [sp, #230]	; 0xe6
 8001728:	f88d 40e7 	strb.w	r4, [sp, #231]	; 0xe7
 800172c:	f006 fe60 	bl	80083f0 <NVIC_Init>
 8001730:	f008 f9fe 	bl	8009b30 <USB_Init>
 8001734:	4c29      	ldr	r4, [pc, #164]	; (80017dc <main+0x674>)
 8001736:	4b2a      	ldr	r3, [pc, #168]	; (80017e0 <main+0x678>)
 8001738:	4d2a      	ldr	r5, [pc, #168]	; (80017e4 <main+0x67c>)
 800173a:	681a      	ldr	r2, [r3, #0]
 800173c:	461e      	mov	r6, r3
 800173e:	2a05      	cmp	r2, #5
 8001740:	d015      	beq.n	800176e <main+0x606>
 8001742:	f242 7210 	movw	r2, #10000	; 0x2710
 8001746:	6829      	ldr	r1, [r5, #0]
 8001748:	4291      	cmp	r1, r2
 800174a:	d901      	bls.n	8001750 <main+0x5e8>
 800174c:	681b      	ldr	r3, [r3, #0]
 800174e:	b103      	cbz	r3, 8001752 <main+0x5ea>
 8001750:	b90c      	cbnz	r4, 8001756 <main+0x5ee>
 8001752:	f006 f830 	bl	80077b6 <shutdown>
 8001756:	2104      	movs	r1, #4
 8001758:	4823      	ldr	r0, [pc, #140]	; (80017e8 <main+0x680>)
 800175a:	f007 f991 	bl	8008a80 <GPIO_ReadInputDataBit>
 800175e:	4b1f      	ldr	r3, [pc, #124]	; (80017dc <main+0x674>)
 8001760:	2800      	cmp	r0, #0
 8001762:	bf18      	it	ne
 8001764:	461c      	movne	r4, r3
 8001766:	3c01      	subs	r4, #1
 8001768:	f007 fa98 	bl	8008c9c <IWDG_ReloadCounter>
 800176c:	e7e3      	b.n	8001736 <main+0x5ce>
 800176e:	2001      	movs	r0, #1
 8001770:	f007 fab2 	bl	8008cd8 <PWR_BackupAccessCmd>
 8001774:	2004      	movs	r0, #4
 8001776:	2100      	movs	r1, #0
 8001778:	f006 ffc8 	bl	800870c <BKP_WriteBackupRegister>
 800177c:	2000      	movs	r0, #0
 800177e:	f007 faab 	bl	8008cd8 <PWR_BackupAccessCmd>
 8001782:	6829      	ldr	r1, [r5, #0]
 8001784:	f44f 737a 	mov.w	r3, #1000	; 0x3e8
 8001788:	fbb1 f2f3 	udiv	r2, r1, r3
 800178c:	fb03 1312 	mls	r3, r3, r2, r1
 8001790:	2b00      	cmp	r3, #0
 8001792:	d1f6      	bne.n	8001782 <main+0x61a>
 8001794:	6833      	ldr	r3, [r6, #0]
 8001796:	2b03      	cmp	r3, #3
 8001798:	d1f3      	bne.n	8001782 <main+0x61a>
 800179a:	2064      	movs	r0, #100	; 0x64
 800179c:	f001 fe63 	bl	8003466 <Delay>
 80017a0:	4811      	ldr	r0, [pc, #68]	; (80017e8 <main+0x680>)
 80017a2:	2104      	movs	r1, #4
 80017a4:	f007 f96c 	bl	8008a80 <GPIO_ReadInputDataBit>
 80017a8:	b908      	cbnz	r0, 80017ae <main+0x646>
 80017aa:	f006 f804 	bl	80077b6 <shutdown>
 80017ae:	f007 fa75 	bl	8008c9c <IWDG_ReloadCounter>
 80017b2:	bf30      	wfi
 80017b4:	e7e5      	b.n	8001782 <main+0x61a>
 80017b6:	bf00      	nop
 80017b8:	40010800 	andmi	r0, r1, r0, lsl #16
 80017bc:	40013800 	andmi	r3, r1, r0, lsl #16
 80017c0:	40004400 	andmi	r4, r0, r0, lsl #8
 80017c4:	20001324 	andcs	r1, r0, r4, lsr #6
 80017c8:	4002006c 	andmi	r0, r2, ip, rrx
 80017cc:	40004404 	andmi	r4, r0, r4, lsl #8
 80017d0:	080067d9 	stmdaeq	r0, {r0, r3, r4, r6, r7, r8, r9, sl, sp, lr}
 80017d4:	20001854 	andcs	r1, r0, r4, asr r8
 80017d8:	200009d8 	ldrdcs	r0, [r0], -r8
 80017dc:	000fffff 	strdeq	pc, [pc], -pc	; <UNPREDICTABLE>
 80017e0:	20001850 	andcs	r1, r0, r0, asr r8
 80017e4:	200012e0 	andcs	r1, r0, r0, ror #5
 80017e8:	40010c00 	andmi	r0, r1, r0, lsl #24
 80017ec:	20001798 	mulcs	r0, r8, r7
 80017f0:	48bf      	ldr	r0, [pc, #764]	; (8001af0 <main+0x988>)
 80017f2:	4641      	mov	r1, r8
 80017f4:	f007 f944 	bl	8008a80 <GPIO_ReadInputDataBit>
 80017f8:	b958      	cbnz	r0, 8001812 <main+0x6aa>
 80017fa:	4bbe      	ldr	r3, [pc, #760]	; (8001af4 <main+0x98c>)
 80017fc:	681b      	ldr	r3, [r3, #0]
 80017fe:	07d8      	lsls	r0, r3, #31
 8001800:	d407      	bmi.n	8001812 <main+0x6aa>
 8001802:	f64f 63ed 	movw	r3, #65261	; 0xfeed
 8001806:	f8bd 20b4 	ldrh.w	r2, [sp, #180]	; 0xb4
 800180a:	429a      	cmp	r2, r3
 800180c:	d001      	beq.n	8001812 <main+0x6aa>
 800180e:	f005 ffd2 	bl	80077b6 <shutdown>
 8001812:	2000      	movs	r0, #0
 8001814:	f007 fa90 	bl	8008d38 <RCC_ADCCLKConfig>
 8001818:	f44f 7000 	mov.w	r0, #512	; 0x200
 800181c:	2101      	movs	r1, #1
 800181e:	f007 fb09 	bl	8008e34 <RCC_APB2PeriphClockCmd>
 8001822:	f44f 6080 	mov.w	r0, #1024	; 0x400
 8001826:	2101      	movs	r1, #1
 8001828:	f007 fb04 	bl	8008e34 <RCC_APB2PeriphClockCmd>
 800182c:	2001      	movs	r0, #1
 800182e:	4601      	mov	r1, r0
 8001830:	f007 faf4 	bl	8008e1c <RCC_AHBPeriphClockCmd>
 8001834:	48b0      	ldr	r0, [pc, #704]	; (8001af8 <main+0x990>)
 8001836:	f006 fe27 	bl	8008488 <ADC_DeInit>
 800183a:	48b0      	ldr	r0, [pc, #704]	; (8001afc <main+0x994>)
 800183c:	f006 fe24 	bl	8008488 <ADC_DeInit>
 8001840:	f04f 0800 	mov.w	r8, #0
 8001844:	2501      	movs	r5, #1
 8001846:	f44f 2960 	mov.w	r9, #917504	; 0xe0000
 800184a:	48ac      	ldr	r0, [pc, #688]	; (8001afc <main+0x994>)
 800184c:	a939      	add	r1, sp, #228	; 0xe4
 800184e:	f8cd 80e4 	str.w	r8, [sp, #228]	; 0xe4
 8001852:	f88d 50e8 	strb.w	r5, [sp, #232]	; 0xe8
 8001856:	f88d 80e9 	strb.w	r8, [sp, #233]	; 0xe9
 800185a:	f8cd 90ec 	str.w	r9, [sp, #236]	; 0xec
 800185e:	f8cd 80f0 	str.w	r8, [sp, #240]	; 0xf0
 8001862:	f88d 50f4 	strb.w	r5, [sp, #244]	; 0xf4
 8001866:	f006 fe3d 	bl	80084e4 <ADC_Init>
 800186a:	48a4      	ldr	r0, [pc, #656]	; (8001afc <main+0x994>)
 800186c:	4629      	mov	r1, r5
 800186e:	f006 feff 	bl	8008670 <ADC_InjectedSequencerLengthConfig>
 8001872:	462a      	mov	r2, r5
 8001874:	2307      	movs	r3, #7
 8001876:	48a1      	ldr	r0, [pc, #644]	; (8001afc <main+0x994>)
 8001878:	4629      	mov	r1, r5
 800187a:	f006 fecf 	bl	800861c <ADC_InjectedChannelConfig>
 800187e:	489f      	ldr	r0, [pc, #636]	; (8001afc <main+0x994>)
 8001880:	f44f 41e0 	mov.w	r1, #28672	; 0x7000
 8001884:	f006 febb 	bl	80085fe <ADC_ExternalTrigInjectedConvConfig>
 8001888:	489b      	ldr	r0, [pc, #620]	; (8001af8 <main+0x990>)
 800188a:	a939      	add	r1, sp, #228	; 0xe4
 800188c:	f8cd 80e4 	str.w	r8, [sp, #228]	; 0xe4
 8001890:	f88d 80e8 	strb.w	r8, [sp, #232]	; 0xe8
 8001894:	f88d 80e9 	strb.w	r8, [sp, #233]	; 0xe9
 8001898:	f8cd 90ec 	str.w	r9, [sp, #236]	; 0xec
 800189c:	f8cd 80f0 	str.w	r8, [sp, #240]	; 0xf0
 80018a0:	f88d 50f4 	strb.w	r5, [sp, #244]	; 0xf4
 80018a4:	f006 fe1e 	bl	80084e4 <ADC_Init>
 80018a8:	4893      	ldr	r0, [pc, #588]	; (8001af8 <main+0x990>)
 80018aa:	4629      	mov	r1, r5
 80018ac:	f006 fe3e 	bl	800852c <ADC_Cmd>
 80018b0:	4891      	ldr	r0, [pc, #580]	; (8001af8 <main+0x990>)
 80018b2:	f006 fe44 	bl	800853e <ADC_ResetCalibration>
 80018b6:	4890      	ldr	r0, [pc, #576]	; (8001af8 <main+0x990>)
 80018b8:	f006 fe46 	bl	8008548 <ADC_GetResetCalibrationStatus>
 80018bc:	2800      	cmp	r0, #0
 80018be:	d1fa      	bne.n	80018b6 <main+0x74e>
 80018c0:	488d      	ldr	r0, [pc, #564]	; (8001af8 <main+0x990>)
 80018c2:	f006 fe45 	bl	8008550 <ADC_StartCalibration>
 80018c6:	488c      	ldr	r0, [pc, #560]	; (8001af8 <main+0x990>)
 80018c8:	f006 fe47 	bl	800855a <ADC_GetCalibrationStatus>
 80018cc:	2800      	cmp	r0, #0
 80018ce:	d1fa      	bne.n	80018c6 <main+0x75e>
 80018d0:	488b      	ldr	r0, [pc, #556]	; (8001b00 <main+0x998>)
 80018d2:	f001 fdc8 	bl	8003466 <Delay>
 80018d6:	f8d4 0434 	ldr.w	r0, [r4, #1076]	; 0x434
 80018da:	f7fe fd7d 	bl	80003d8 <__aeabi_f2d>
 80018de:	a382      	add	r3, pc, #520	; (adr r3, 8001ae8 <main+0x980>)
 80018e0:	e9d3 2300 	ldrd	r2, r3, [r3]
 80018e4:	f7ff f83e 	bl	8000964 <__aeabi_dcmplt>
 80018e8:	b108      	cbz	r0, 80018ee <main+0x786>
 80018ea:	f005 ff64 	bl	80077b6 <shutdown>
 80018ee:	f8d4 2438 	ldr.w	r2, [r4, #1080]	; 0x438
 80018f2:	2300      	movs	r3, #0
 80018f4:	b102      	cbz	r2, 80018f8 <main+0x790>
 80018f6:	7013      	strb	r3, [r2, #0]
 80018f8:	4a82      	ldr	r2, [pc, #520]	; (8001b04 <main+0x99c>)
 80018fa:	4883      	ldr	r0, [pc, #524]	; (8001b08 <main+0x9a0>)
 80018fc:	f8c4 2438 	str.w	r2, [r4, #1080]	; 0x438
 8001900:	4982      	ldr	r1, [pc, #520]	; (8001b0c <main+0x9a4>)
 8001902:	2203      	movs	r2, #3
 8001904:	f884 343c 	strb.w	r3, [r4, #1084]	; 0x43c
 8001908:	f884 366c 	strb.w	r3, [r4, #1644]	; 0x66c
 800190c:	f002 fb72 	bl	8003ff4 <f_open>
 8001910:	2800      	cmp	r0, #0
 8001912:	f040 80ad 	bne.w	8001a70 <main+0x908>
 8001916:	f005 faab 	bl	8006e70 <f_stat.constprop.12>
 800191a:	2800      	cmp	r0, #0
 800191c:	f040 80a5 	bne.w	8001a6a <main+0x902>
 8001920:	4a7b      	ldr	r2, [pc, #492]	; (8001b10 <main+0x9a8>)
 8001922:	6813      	ldr	r3, [r2, #0]
 8001924:	2b04      	cmp	r3, #4
 8001926:	f200 80a0 	bhi.w	8001a6a <main+0x902>
 800192a:	8893      	ldrh	r3, [r2, #4]
 800192c:	f8b2 e006 	ldrh.w	lr, [r2, #6]
 8001930:	f240 126d 	movw	r2, #365	; 0x16d
 8001934:	0a5d      	lsrs	r5, r3, #9
 8001936:	ea4f 2ade 	mov.w	sl, lr, lsr #11
 800193a:	f3ce 1c45 	ubfx	ip, lr, #5, #6
 800193e:	ea4f 0e4e 	mov.w	lr, lr, lsl #1
 8001942:	f205 75bc 	addw	r5, r5, #1980	; 0x7bc
 8001946:	f3c3 1943 	ubfx	r9, r3, #5, #4
 800194a:	f00e 0e3e 	and.w	lr, lr, #62	; 0x3e
 800194e:	f003 031f 	and.w	r3, r3, #31
 8001952:	f8ad 50d4 	strh.w	r5, [sp, #212]	; 0xd4
 8001956:	f88d 90d6 	strb.w	r9, [sp, #214]	; 0xd6
 800195a:	f88d 30d7 	strb.w	r3, [sp, #215]	; 0xd7
 800195e:	f88d a0d9 	strb.w	sl, [sp, #217]	; 0xd9
 8001962:	f88d c0da 	strb.w	ip, [sp, #218]	; 0xda
 8001966:	f88d e0db 	strb.w	lr, [sp, #219]	; 0xdb
 800196a:	fb02 fb05 	mul.w	fp, r2, r5
 800196e:	b185      	cbz	r5, 8001992 <main+0x82a>
 8001970:	f105 38ff 	add.w	r8, r5, #4294967295
 8001974:	f06f 0063 	mvn.w	r0, #99	; 0x63
 8001978:	fb98 f0f0 	sdiv	r0, r8, r0
 800197c:	1cea      	adds	r2, r5, #3
 800197e:	eb00 01a2 	add.w	r1, r0, r2, asr #2
 8001982:	eb01 020b 	add.w	r2, r1, fp
 8001986:	f44f 7bc8 	mov.w	fp, #400	; 0x190
 800198a:	fb98 f8fb 	sdiv	r8, r8, fp
 800198e:	eb02 0b08 	add.w	fp, r2, r8
 8001992:	f5ab 2232 	sub.w	r2, fp, #729088	; 0xb2000
 8001996:	f109 30ff 	add.w	r0, r9, #4294967295
 800199a:	f2a2 5275 	subw	r2, r2, #1397	; 0x575
 800199e:	b280      	uxth	r0, r0
 80019a0:	2100      	movs	r1, #0
 80019a2:	f101 0801 	add.w	r8, r1, #1
 80019a6:	b2c9      	uxtb	r1, r1
 80019a8:	4281      	cmp	r1, r0
 80019aa:	d206      	bcs.n	80019ba <main+0x852>
 80019ac:	f8df b17c 	ldr.w	fp, [pc, #380]	; 8001b2c <main+0x9c4>
 80019b0:	f81b 1001 	ldrb.w	r1, [fp, r1]
 80019b4:	440a      	add	r2, r1
 80019b6:	4641      	mov	r1, r8
 80019b8:	e7f3      	b.n	80019a2 <main+0x83a>
 80019ba:	f44f 78c8 	mov.w	r8, #400	; 0x190
 80019be:	fbb5 f1f8 	udiv	r1, r5, r8
 80019c2:	fb08 5111 	mls	r1, r8, r1, r5
 80019c6:	b289      	uxth	r1, r1
 80019c8:	4610      	mov	r0, r2
 80019ca:	b171      	cbz	r1, 80019ea <main+0x882>
 80019cc:	07a9      	lsls	r1, r5, #30
 80019ce:	d107      	bne.n	80019e0 <main+0x878>
 80019d0:	f04f 0864 	mov.w	r8, #100	; 0x64
 80019d4:	fbb5 f1f8 	udiv	r1, r5, r8
 80019d8:	fb08 5511 	mls	r5, r8, r1, r5
 80019dc:	b2ad      	uxth	r5, r5
 80019de:	b925      	cbnz	r5, 80019ea <main+0x882>
 80019e0:	f1b9 0f02 	cmp.w	r9, #2
 80019e4:	bf88      	it	hi
 80019e6:	f102 30ff 	addhi.w	r0, r2, #4294967295
 80019ea:	f44f 6861 	mov.w	r8, #3600	; 0xe10
 80019ee:	fb08 fa0a 	mul.w	sl, r8, sl
 80019f2:	f04f 083c 	mov.w	r8, #60	; 0x3c
 80019f6:	fb08 a80c 	mla	r8, r8, ip, sl
 80019fa:	4a46      	ldr	r2, [pc, #280]	; (8001b14 <main+0x9ac>)
 80019fc:	4403      	add	r3, r0
 80019fe:	44c6      	add	lr, r8
 8001a00:	fb02 e803 	mla	r8, r2, r3, lr
 8001a04:	f5a8 35a8 	sub.w	r5, r8, #86016	; 0x15000
 8001a08:	f5a5 75c0 	sub.w	r5, r5, #384	; 0x180
 8001a0c:	4628      	mov	r0, r5
 8001a0e:	a939      	add	r1, sp, #228	; 0xe4
 8001a10:	f003 f9a0 	bl	8004d54 <counter_to_struct.lto_priv.37>
 8001a14:	a839      	add	r0, sp, #228	; 0xe4
 8001a16:	f003 f9f3 	bl	8004e00 <isDST.lto_priv.36>
 8001a1a:	b118      	cbz	r0, 8001a24 <main+0x8bc>
 8001a1c:	f5a8 35af 	sub.w	r5, r8, #89600	; 0x15e00
 8001a20:	f5a5 75c8 	sub.w	r5, r5, #400	; 0x190
 8001a24:	2001      	movs	r0, #1
 8001a26:	f007 f957 	bl	8008cd8 <PWR_BackupAccessCmd>
 8001a2a:	f007 fa8b 	bl	8008f44 <RTC_WaitForLastTask>
 8001a2e:	4628      	mov	r0, r5
 8001a30:	f007 fa68 	bl	8008f04 <RTC_SetCounter>
 8001a34:	f007 fa86 	bl	8008f44 <RTC_WaitForLastTask>
 8001a38:	2000      	movs	r0, #0
 8001a3a:	f007 f94d 	bl	8008cd8 <PWR_BackupAccessCmd>
 8001a3e:	4a36      	ldr	r2, [pc, #216]	; (8001b18 <main+0x9b0>)
 8001a40:	4b36      	ldr	r3, [pc, #216]	; (8001b1c <main+0x9b4>)
 8001a42:	f89d 00d9 	ldrb.w	r0, [sp, #217]	; 0xd9
 8001a46:	f8c3 242c 	str.w	r2, [r3, #1068]	; 0x42c
 8001a4a:	9000      	str	r0, [sp, #0]
 8001a4c:	f89d 00da 	ldrb.w	r0, [sp, #218]	; 0xda
 8001a50:	f89d 10d7 	ldrb.w	r1, [sp, #215]	; 0xd7
 8001a54:	9001      	str	r0, [sp, #4]
 8001a56:	f89d 00db 	ldrb.w	r0, [sp, #219]	; 0xdb
 8001a5a:	f89d 20d6 	ldrb.w	r2, [sp, #214]	; 0xd6
 8001a5e:	9002      	str	r0, [sp, #8]
 8001a60:	f8bd 30d4 	ldrh.w	r3, [sp, #212]	; 0xd4
 8001a64:	482e      	ldr	r0, [pc, #184]	; (8001b20 <main+0x9b8>)
 8001a66:	f002 fd3d 	bl	80044e4 <rprintf2RamRom>
 8001a6a:	4827      	ldr	r0, [pc, #156]	; (8001b08 <main+0x9a0>)
 8001a6c:	f002 f9f0 	bl	8003e50 <f_close>
 8001a70:	4825      	ldr	r0, [pc, #148]	; (8001b08 <main+0x9a0>)
 8001a72:	492c      	ldr	r1, [pc, #176]	; (8001b24 <main+0x9bc>)
 8001a74:	2201      	movs	r2, #1
 8001a76:	f002 fabd 	bl	8003ff4 <f_open>
 8001a7a:	4605      	mov	r5, r0
 8001a7c:	2800      	cmp	r0, #0
 8001a7e:	d17a      	bne.n	8001b76 <main+0xa0e>
 8001a80:	a833      	add	r0, sp, #204	; 0xcc
 8001a82:	2101      	movs	r1, #1
 8001a84:	aa39      	add	r2, sp, #228	; 0xe4
 8001a86:	f005 f913 	bl	8006cb0 <f_read.constprop.13>
 8001a8a:	9b39      	ldr	r3, [sp, #228]	; 0xe4
 8001a8c:	2b00      	cmp	r3, #0
 8001a8e:	d05a      	beq.n	8001b46 <main+0x9de>
 8001a90:	f89d 30cc 	ldrb.w	r3, [sp, #204]	; 0xcc
 8001a94:	f103 025b 	add.w	r2, r3, #91	; 0x5b
 8001a98:	b2d2      	uxtb	r2, r2
 8001a9a:	2a78      	cmp	r2, #120	; 0x78
 8001a9c:	d848      	bhi.n	8001b30 <main+0x9c8>
 8001a9e:	2b00      	cmp	r3, #0
 8001aa0:	d051      	beq.n	8001b46 <main+0x9de>
 8001aa2:	2001      	movs	r0, #1
 8001aa4:	f007 f918 	bl	8008cd8 <PWR_BackupAccessCmd>
 8001aa8:	f007 fa54 	bl	8008f54 <RTC_WaitForSynchro>
 8001aac:	f647 70fe 	movw	r0, #32766	; 0x7ffe
 8001ab0:	4b1d      	ldr	r3, [pc, #116]	; (8001b28 <main+0x9c0>)
 8001ab2:	899b      	ldrh	r3, [r3, #12]
 8001ab4:	b29b      	uxth	r3, r3
 8001ab6:	4283      	cmp	r3, r0
 8001ab8:	d003      	beq.n	8001ac2 <main+0x95a>
 8001aba:	f007 fa33 	bl	8008f24 <RTC_SetPrescaler>
 8001abe:	f007 fa41 	bl	8008f44 <RTC_WaitForLastTask>
 8001ac2:	f99d 00cc 	ldrsb.w	r0, [sp, #204]	; 0xcc
 8001ac6:	2315      	movs	r3, #21
 8001ac8:	4358      	muls	r0, r3
 8001aca:	2314      	movs	r3, #20
 8001acc:	fb90 f0f3 	sdiv	r0, r0, r3
 8001ad0:	f1c0 001f 	rsb	r0, r0, #31
 8001ad4:	b2c0      	uxtb	r0, r0
 8001ad6:	f006 fe0d 	bl	80086f4 <BKP_SetRTCCalibrationValue>
 8001ada:	2000      	movs	r0, #0
 8001adc:	f006 fdfe 	bl	80086dc <BKP_RTCOutputConfig>
 8001ae0:	2000      	movs	r0, #0
 8001ae2:	e02e      	b.n	8001b42 <main+0x9da>
 8001ae4:	f3af 8000 	nop.w
 8001ae8:	9999999a 	ldmibls	r9, {r1, r3, r4, r7, r8, fp, ip, pc}
 8001aec:	400d9999 	mulmi	sp, r9, r9
 8001af0:	40010800 	andmi	r0, r1, r0, lsl #16
 8001af4:	e000edf0 	strd	lr, [r0], -r0
 8001af8:	40012400 	andmi	r2, r1, r0, lsl #8
 8001afc:	40012800 	andmi	r2, r1, r0, lsl #16
 8001b00:	000186a0 	andeq	r8, r1, r0, lsr #13
 8001b04:	20000e14 	andcs	r0, r0, r4, lsl lr
 8001b08:	20001330 	andcs	r1, r0, r0, lsr r3
 8001b0c:	0800a7e4 	stmdaeq	r0, {r2, r5, r6, r7, r8, r9, sl, sp, pc}
 8001b10:	20001554 	andcs	r1, r0, r4, asr r5
 8001b14:	00015180 	andeq	r5, r1, r0, lsl #3
 8001b18:	0800774d 	stmdaeq	r0, {r0, r2, r3, r6, r8, r9, sl, ip, sp, lr}
 8001b1c:	200009d8 	ldrdcs	r0, [r0], -r8
 8001b20:	0800a7ed 	stmdaeq	r0, {r0, r2, r3, r5, r6, r7, r8, r9, sl, sp, pc}
 8001b24:	0800a80b 	stmdaeq	r0, {r0, r1, r3, fp, sp, pc}
 8001b28:	40002800 	andmi	r2, r0, r0, lsl #16
 8001b2c:	0800a0ec 	stmdaeq	r0, {r2, r3, r5, r6, r7, sp, pc}
 8001b30:	2b91      	cmp	r3, #145	; 0x91
 8001b32:	d108      	bne.n	8001b46 <main+0x9de>
 8001b34:	2001      	movs	r0, #1
 8001b36:	f007 f8cf 	bl	8008cd8 <PWR_BackupAccessCmd>
 8001b3a:	2080      	movs	r0, #128	; 0x80
 8001b3c:	f006 fdce 	bl	80086dc <BKP_RTCOutputConfig>
 8001b40:	4628      	mov	r0, r5
 8001b42:	f007 f8c9 	bl	8008cd8 <PWR_BackupAccessCmd>
 8001b46:	9b39      	ldr	r3, [sp, #228]	; 0xe4
 8001b48:	b193      	cbz	r3, 8001b70 <main+0xa08>
 8001b4a:	a82d      	add	r0, sp, #180	; 0xb4
 8001b4c:	2102      	movs	r1, #2
 8001b4e:	aa39      	add	r2, sp, #228	; 0xe4
 8001b50:	f005 f8ae 	bl	8006cb0 <f_read.constprop.13>
 8001b54:	9b39      	ldr	r3, [sp, #228]	; 0xe4
 8001b56:	2b02      	cmp	r3, #2
 8001b58:	d10a      	bne.n	8001b70 <main+0xa08>
 8001b5a:	2001      	movs	r0, #1
 8001b5c:	f007 f8bc 	bl	8008cd8 <PWR_BackupAccessCmd>
 8001b60:	2004      	movs	r0, #4
 8001b62:	f8bd 10b4 	ldrh.w	r1, [sp, #180]	; 0xb4
 8001b66:	f006 fdd1 	bl	800870c <BKP_WriteBackupRegister>
 8001b6a:	2000      	movs	r0, #0
 8001b6c:	f007 f8b4 	bl	8008cd8 <PWR_BackupAccessCmd>
 8001b70:	484f      	ldr	r0, [pc, #316]	; (8001cb0 <main+0xb48>)
 8001b72:	f002 f96d 	bl	8003e50 <f_close>
 8001b76:	a835      	add	r0, sp, #212	; 0xd4
 8001b78:	f003 f958 	bl	8004e2c <rtc_gettime>
 8001b7c:	f8df 9164 	ldr.w	r9, [pc, #356]	; 8001ce4 <main+0xb7c>
 8001b80:	f89d 00d9 	ldrb.w	r0, [sp, #217]	; 0xd9
 8001b84:	f8c4 942c 	str.w	r9, [r4, #1068]	; 0x42c
 8001b88:	9000      	str	r0, [sp, #0]
 8001b8a:	f89d 00da 	ldrb.w	r0, [sp, #218]	; 0xda
 8001b8e:	f8bd 10d4 	ldrh.w	r1, [sp, #212]	; 0xd4
 8001b92:	9001      	str	r0, [sp, #4]
 8001b94:	f89d 00db 	ldrb.w	r0, [sp, #219]	; 0xdb
 8001b98:	f89d 20d6 	ldrb.w	r2, [sp, #214]	; 0xd6
 8001b9c:	9002      	str	r0, [sp, #8]
 8001b9e:	4845      	ldr	r0, [pc, #276]	; (8001cb4 <main+0xb4c>)
 8001ba0:	f89d 30d7 	ldrb.w	r3, [sp, #215]	; 0xd7
 8001ba4:	9003      	str	r0, [sp, #12]
 8001ba6:	f8df a108 	ldr.w	sl, [pc, #264]	; 8001cb0 <main+0xb48>
 8001baa:	4843      	ldr	r0, [pc, #268]	; (8001cb8 <main+0xb50>)
 8001bac:	4d43      	ldr	r5, [pc, #268]	; (8001cbc <main+0xb54>)
 8001bae:	f002 fc99 	bl	80044e4 <rprintf2RamRom>
 8001bb2:	4b43      	ldr	r3, [pc, #268]	; (8001cc0 <main+0xb58>)
 8001bb4:	4650      	mov	r0, sl
 8001bb6:	4629      	mov	r1, r5
 8001bb8:	220a      	movs	r2, #10
 8001bba:	f8c4 342c 	str.w	r3, [r4, #1068]	; 0x42c
 8001bbe:	f002 fa19 	bl	8003ff4 <f_open>
 8001bc2:	f8df 811c 	ldr.w	r8, [pc, #284]	; 8001ce0 <main+0xb78>
 8001bc6:	4683      	mov	fp, r0
 8001bc8:	f884 066c 	strb.w	r0, [r4, #1644]	; 0x66c
 8001bcc:	b170      	cbz	r0, 8001bec <main+0xa84>
 8001bce:	4659      	mov	r1, fp
 8001bd0:	483c      	ldr	r0, [pc, #240]	; (8001cc4 <main+0xb5c>)
 8001bd2:	f002 fc87 	bl	80044e4 <rprintf2RamRom>
 8001bd6:	f898 366c 	ldrb.w	r3, [r8, #1644]	; 0x66c
 8001bda:	f003 03fd 	and.w	r3, r3, #253	; 0xfd
 8001bde:	2b01      	cmp	r3, #1
 8001be0:	f040 808a 	bne.w	8001cf8 <main+0xb90>
 8001be4:	4838      	ldr	r0, [pc, #224]	; (8001cc8 <main+0xb60>)
 8001be6:	f005 fddb 	bl	80077a0 <Usart_Send_Str>
 8001bea:	e085      	b.n	8001cf8 <main+0xb90>
 8001bec:	4628      	mov	r0, r5
 8001bee:	f006 fa01 	bl	8007ff4 <strlen>
 8001bf2:	4428      	add	r0, r5
 8001bf4:	f800 bc04 	strb.w	fp, [r0, #-4]
 8001bf8:	4934      	ldr	r1, [pc, #208]	; (8001ccc <main+0xb64>)
 8001bfa:	4628      	mov	r0, r5
 8001bfc:	f006 f916 	bl	8007e2c <strcat>
 8001c00:	4629      	mov	r1, r5
 8001c02:	4833      	ldr	r0, [pc, #204]	; (8001cd0 <main+0xb68>)
 8001c04:	220a      	movs	r2, #10
 8001c06:	f002 f9f5 	bl	8003ff4 <f_open>
 8001c0a:	4601      	mov	r1, r0
 8001c0c:	f888 066c 	strb.w	r0, [r8, #1644]	; 0x66c
 8001c10:	b108      	cbz	r0, 8001c16 <main+0xaae>
 8001c12:	482c      	ldr	r0, [pc, #176]	; (8001cc4 <main+0xb5c>)
 8001c14:	e7dd      	b.n	8001bd2 <main+0xa6a>
 8001c16:	f8df b0c4 	ldr.w	fp, [pc, #196]	; 8001cdc <main+0xb74>
 8001c1a:	4650      	mov	r0, sl
 8001c1c:	4659      	mov	r1, fp
 8001c1e:	f001 ffb4 	bl	8003b8a <f_lseek>
 8001c22:	4601      	mov	r1, r0
 8001c24:	f888 066c 	strb.w	r0, [r8, #1644]	; 0x66c
 8001c28:	b918      	cbnz	r0, 8001c32 <main+0xaca>
 8001c2a:	f8da 3008 	ldr.w	r3, [sl, #8]
 8001c2e:	455b      	cmp	r3, fp
 8001c30:	d001      	beq.n	8001c36 <main+0xace>
 8001c32:	4828      	ldr	r0, [pc, #160]	; (8001cd4 <main+0xb6c>)
 8001c34:	e006      	b.n	8001c44 <main+0xadc>
 8001c36:	4650      	mov	r0, sl
 8001c38:	f001 ffa7 	bl	8003b8a <f_lseek>
 8001c3c:	f888 066c 	strb.w	r0, [r8, #1644]	; 0x66c
 8001c40:	b118      	cbz	r0, 8001c4a <main+0xae2>
 8001c42:	4825      	ldr	r0, [pc, #148]	; (8001cd8 <main+0xb70>)
 8001c44:	f005 fdac 	bl	80077a0 <Usart_Send_Str>
 8001c48:	e001      	b.n	8001c4e <main+0xae6>
 8001c4a:	f8c8 942c 	str.w	r9, [r8, #1068]	; 0x42c
 8001c4e:	f894 366c 	ldrb.w	r3, [r4, #1644]	; 0x66c
 8001c52:	f8df 8094 	ldr.w	r8, [pc, #148]	; 8001ce8 <main+0xb80>
 8001c56:	b11b      	cbz	r3, 8001c60 <main+0xaf8>
 8001c58:	4815      	ldr	r0, [pc, #84]	; (8001cb0 <main+0xb48>)
 8001c5a:	f002 f8f9 	bl	8003e50 <f_close>
 8001c5e:	e002      	b.n	8001c66 <main+0xafe>
 8001c60:	2301      	movs	r3, #1
 8001c62:	f888 3000 	strb.w	r3, [r8]
 8001c66:	f898 3000 	ldrb.w	r3, [r8]
 8001c6a:	2b01      	cmp	r3, #1
 8001c6c:	d144      	bne.n	8001cf8 <main+0xb90>
 8001c6e:	f894 166c 	ldrb.w	r1, [r4, #1644]	; 0x66c
 8001c72:	f8df a06c 	ldr.w	sl, [pc, #108]	; 8001ce0 <main+0xb78>
 8001c76:	b921      	cbnz	r1, 8001c82 <main+0xb1a>
 8001c78:	4b15      	ldr	r3, [pc, #84]	; (8001cd0 <main+0xb68>)
 8001c7a:	689a      	ldr	r2, [r3, #8]
 8001c7c:	4b17      	ldr	r3, [pc, #92]	; (8001cdc <main+0xb74>)
 8001c7e:	429a      	cmp	r2, r3
 8001c80:	d001      	beq.n	8001c86 <main+0xb1e>
 8001c82:	4814      	ldr	r0, [pc, #80]	; (8001cd4 <main+0xb6c>)
 8001c84:	e006      	b.n	8001c94 <main+0xb2c>
 8001c86:	480a      	ldr	r0, [pc, #40]	; (8001cb0 <main+0xb48>)
 8001c88:	f001 ff7f 	bl	8003b8a <f_lseek>
 8001c8c:	f88a 066c 	strb.w	r0, [sl, #1644]	; 0x66c
 8001c90:	b118      	cbz	r0, 8001c9a <main+0xb32>
 8001c92:	4811      	ldr	r0, [pc, #68]	; (8001cd8 <main+0xb70>)
 8001c94:	f005 fd84 	bl	80077a0 <Usart_Send_Str>
 8001c98:	e001      	b.n	8001c9e <main+0xb36>
 8001c9a:	f8ca 942c 	str.w	r9, [sl, #1068]	; 0x42c
 8001c9e:	4b10      	ldr	r3, [pc, #64]	; (8001ce0 <main+0xb78>)
 8001ca0:	f893 366c 	ldrb.w	r3, [r3, #1644]	; 0x66c
 8001ca4:	b313      	cbz	r3, 8001cec <main+0xb84>
 8001ca6:	480a      	ldr	r0, [pc, #40]	; (8001cd0 <main+0xb68>)
 8001ca8:	f002 f8d2 	bl	8003e50 <f_close>
 8001cac:	e024      	b.n	8001cf8 <main+0xb90>
 8001cae:	bf00      	nop
 8001cb0:	20001330 	andcs	r1, r0, r0, lsr r3
 8001cb4:	0800a83d 	stmdaeq	r0, {r0, r2, r3, r4, r5, fp, sp, pc}
 8001cb8:	0800a818 	stmdaeq	r0, {r3, r4, fp, sp, pc}
 8001cbc:	200011bc 			; <UNDEFINED> instruction: 0x200011bc
 8001cc0:	080067d9 	stmdaeq	r0, {r0, r3, r4, r6, r7, r8, r9, sl, sp, lr}
 8001cc4:	0800a841 	stmdaeq	r0, {r0, r6, fp, sp, pc}
 8001cc8:	0800a858 	stmdaeq	r0, {r3, r4, r6, fp, sp, pc}
 8001ccc:	0800a870 	stmdaeq	r0, {r4, r5, r6, fp, sp, pc}
 8001cd0:	20001574 	andcs	r1, r0, r4, ror r5
 8001cd4:	0800a87a 	stmdaeq	r0, {r1, r3, r4, r5, r6, fp, sp, pc}
 8001cd8:	0800a891 	stmdaeq	r0, {r0, r4, r7, fp, sp, pc}
 8001cdc:	000f4240 	andeq	r4, pc, r0, asr #4
 8001ce0:	200009d8 	ldrdcs	r0, [r0], -r8
 8001ce4:	0800771d 	stmdaeq	r0, {r0, r2, r3, r4, r8, r9, sl, ip, sp, lr}
 8001ce8:	2000184c 	andcs	r1, r0, ip, asr #16
 8001cec:	f898 3000 	ldrb.w	r3, [r8]
 8001cf0:	f043 0302 	orr.w	r3, r3, #2
 8001cf4:	f888 3000 	strb.w	r3, [r8]
 8001cf8:	2100      	movs	r1, #0
 8001cfa:	222c      	movs	r2, #44	; 0x2c
 8001cfc:	a839      	add	r0, sp, #228	; 0xe4
 8001cfe:	f008 f999 	bl	800a034 <memset>
 8001d02:	2257      	movs	r2, #87	; 0x57
 8001d04:	2352      	movs	r3, #82	; 0x52
 8001d06:	f88d 20ec 	strb.w	r2, [sp, #236]	; 0xec
 8001d0a:	2241      	movs	r2, #65	; 0x41
 8001d0c:	f88d 30e4 	strb.w	r3, [sp, #228]	; 0xe4
 8001d10:	f88d 20ed 	strb.w	r2, [sp, #237]	; 0xed
 8001d14:	2349      	movs	r3, #73	; 0x49
 8001d16:	2256      	movs	r2, #86	; 0x56
 8001d18:	f88d 30e5 	strb.w	r3, [sp, #229]	; 0xe5
 8001d1c:	f88d 20ee 	strb.w	r2, [sp, #238]	; 0xee
 8001d20:	2346      	movs	r3, #70	; 0x46
 8001d22:	2245      	movs	r2, #69	; 0x45
 8001d24:	f88d 30e6 	strb.w	r3, [sp, #230]	; 0xe6
 8001d28:	f88d 30e7 	strb.w	r3, [sp, #231]	; 0xe7
 8001d2c:	f88d 20ef 	strb.w	r2, [sp, #239]	; 0xef
 8001d30:	23ff      	movs	r3, #255	; 0xff
 8001d32:	2266      	movs	r2, #102	; 0x66
 8001d34:	f88d 30e8 	strb.w	r3, [sp, #232]	; 0xe8
 8001d38:	f88d 30e9 	strb.w	r3, [sp, #233]	; 0xe9
 8001d3c:	f88d 30ea 	strb.w	r3, [sp, #234]	; 0xea
 8001d40:	f88d 20f0 	strb.w	r2, [sp, #240]	; 0xf0
 8001d44:	f88d 310d 	strb.w	r3, [sp, #269]	; 0x10d
 8001d48:	226d      	movs	r2, #109	; 0x6d
 8001d4a:	f88d 310e 	strb.w	r3, [sp, #270]	; 0x10e
 8001d4e:	2303      	movs	r3, #3
 8001d50:	f88d 20f1 	strb.w	r2, [sp, #241]	; 0xf1
 8001d54:	2101      	movs	r1, #1
 8001d56:	2220      	movs	r2, #32
 8001d58:	f88d 30fa 	strb.w	r3, [sp, #250]	; 0xfa
 8001d5c:	f44f 7316 	mov.w	r3, #600	; 0x258
 8001d60:	2004      	movs	r0, #4
 8001d62:	f04f 0e61 	mov.w	lr, #97	; 0x61
 8001d66:	f88d 20f3 	strb.w	r2, [sp, #243]	; 0xf3
 8001d6a:	f88d 10f8 	strb.w	r1, [sp, #248]	; 0xf8
 8001d6e:	2210      	movs	r2, #16
 8001d70:	2164      	movs	r1, #100	; 0x64
 8001d72:	f8ad 3100 	strh.w	r3, [sp, #256]	; 0x100
 8001d76:	2306      	movs	r3, #6
 8001d78:	f04f 0c74 	mov.w	ip, #116	; 0x74
 8001d7c:	f88d 00eb 	strb.w	r0, [sp, #235]	; 0xeb
 8001d80:	f88d 20f4 	strb.w	r2, [sp, #244]	; 0xf4
 8001d84:	f88d 1108 	strb.w	r1, [sp, #264]	; 0x108
 8001d88:	f88d e109 	strb.w	lr, [sp, #265]	; 0x109
 8001d8c:	f88d e10b 	strb.w	lr, [sp, #267]	; 0x10b
 8001d90:	f88d 010f 	strb.w	r0, [sp, #271]	; 0x10f
 8001d94:	f04f 0edf 	mov.w	lr, #223	; 0xdf
 8001d98:	f8ad 10fc 	strh.w	r1, [sp, #252]	; 0xfc
 8001d9c:	f88d 3104 	strb.w	r3, [sp, #260]	; 0x104
 8001da0:	a939      	add	r1, sp, #228	; 0xe4
 8001da2:	f88d 2106 	strb.w	r2, [sp, #262]	; 0x106
 8001da6:	ab33      	add	r3, sp, #204	; 0xcc
 8001da8:	222c      	movs	r2, #44	; 0x2c
 8001daa:	48bf      	ldr	r0, [pc, #764]	; (80020a8 <main+0xf40>)
 8001dac:	f88d c0f2 	strb.w	ip, [sp, #242]	; 0xf2
 8001db0:	f88d c10a 	strb.w	ip, [sp, #266]	; 0x10a
 8001db4:	f88d e10c 	strb.w	lr, [sp, #268]	; 0x10c
 8001db8:	f002 f851 	bl	8003e5e <f_write>
 8001dbc:	f894 366c 	ldrb.w	r3, [r4, #1644]	; 0x66c
 8001dc0:	4318      	orrs	r0, r3
 8001dc2:	f884 066c 	strb.w	r0, [r4, #1644]	; 0x66c
 8001dc6:	f006 ff69 	bl	8008c9c <IWDG_ReloadCounter>
 8001dca:	f004 f977 	bl	80060bc <si446x_setup>
 8001dce:	2844      	cmp	r0, #68	; 0x44
 8001dd0:	901f      	str	r0, [sp, #124]	; 0x7c
 8001dd2:	d010      	beq.n	8001df6 <main+0xc8e>
 8001dd4:	2300      	movs	r3, #0
 8001dd6:	991f      	ldr	r1, [sp, #124]	; 0x7c
 8001dd8:	48b4      	ldr	r0, [pc, #720]	; (80020ac <main+0xf44>)
 8001dda:	702b      	strb	r3, [r5, #0]
 8001ddc:	f002 fb82 	bl	80044e4 <rprintf2RamRom>
 8001de0:	48b3      	ldr	r0, [pc, #716]	; (80020b0 <main+0xf48>)
 8001de2:	f005 f8f9 	bl	8006fd8 <f_puts.constprop.10>
 8001de6:	48b3      	ldr	r0, [pc, #716]	; (80020b4 <main+0xf4c>)
 8001de8:	f005 f8f6 	bl	8006fd8 <f_puts.constprop.10>
 8001dec:	48b2      	ldr	r0, [pc, #712]	; (80020b8 <main+0xf50>)
 8001dee:	f002 f82f 	bl	8003e50 <f_close>
 8001df2:	f005 fce0 	bl	80077b6 <shutdown>
 8001df6:	48b1      	ldr	r0, [pc, #708]	; (80020bc <main+0xf54>)
 8001df8:	f002 fb74 	bl	80044e4 <rprintf2RamRom>
 8001dfc:	f004 fcfa 	bl	80067f4 <send_string_to_silabs.constprop.30>
 8001e00:	4baf      	ldr	r3, [pc, #700]	; (80020c0 <main+0xf58>)
 8001e02:	781b      	ldrb	r3, [r3, #0]
 8001e04:	2b00      	cmp	r3, #0
 8001e06:	d1fb      	bne.n	8001e00 <main+0xc98>
 8001e08:	f894 366c 	ldrb.w	r3, [r4, #1644]	; 0x66c
 8001e0c:	b10b      	cbz	r3, 8001e12 <main+0xcaa>
 8001e0e:	f005 fcd2 	bl	80077b6 <shutdown>
 8001e12:	f003 f9a9 	bl	8005168 <I2C_Config>
 8001e16:	2000      	movs	r0, #0
 8001e18:	f005 fd1a 	bl	8007850 <detect_sensors>
 8001e1c:	f04f 0800 	mov.w	r8, #0
 8001e20:	f44f 73f0 	mov.w	r3, #480	; 0x1e0
 8001e24:	48a7      	ldr	r0, [pc, #668]	; (80020c4 <main+0xf5c>)
 8001e26:	49a8      	ldr	r1, [pc, #672]	; (80020c8 <main+0xf60>)
 8001e28:	f8a4 3672 	strh.w	r3, [r4, #1650]	; 0x672
 8001e2c:	f8a4 866e 	strh.w	r8, [r4, #1646]	; 0x66e
 8001e30:	f8a4 8674 	strh.w	r8, [r4, #1652]	; 0x674
 8001e34:	f8a4 8670 	strh.w	r8, [r4, #1648]	; 0x670
 8001e38:	f007 f8e6 	bl	8009008 <TIM_TimeBaseInit>
 8001e3c:	f44f 6000 	mov.w	r0, #2048	; 0x800
 8001e40:	2101      	movs	r1, #1
 8001e42:	f007 f803 	bl	8008e4c <RCC_APB1PeriphClockCmd>
 8001e46:	2302      	movs	r3, #2
 8001e48:	f04f 0901 	mov.w	r9, #1
 8001e4c:	f04f 0a60 	mov.w	sl, #96	; 0x60
 8001e50:	f8a4 3680 	strh.w	r3, [r4, #1664]	; 0x680
 8001e54:	489b      	ldr	r0, [pc, #620]	; (80020c4 <main+0xf5c>)
 8001e56:	f44f 7380 	mov.w	r3, #256	; 0x100
 8001e5a:	499c      	ldr	r1, [pc, #624]	; (80020cc <main+0xf64>)
 8001e5c:	f8a4 3684 	strh.w	r3, [r4, #1668]	; 0x684
 8001e60:	f8a4 967a 	strh.w	r9, [r4, #1658]	; 0x67a
 8001e64:	f8a4 a678 	strh.w	sl, [r4, #1656]	; 0x678
 8001e68:	f8a4 867e 	strh.w	r8, [r4, #1662]	; 0x67e
 8001e6c:	f8a4 867c 	strh.w	r8, [r4, #1660]	; 0x67c
 8001e70:	f007 f8e8 	bl	8009044 <TIM_OC1Init>
 8001e74:	4893      	ldr	r0, [pc, #588]	; (80020c4 <main+0xf5c>)
 8001e76:	4641      	mov	r1, r8
 8001e78:	f007 f944 	bl	8009104 <TIM_OC1PreloadConfig>
 8001e7c:	4891      	ldr	r0, [pc, #580]	; (80020c4 <main+0xf5c>)
 8001e7e:	4641      	mov	r1, r8
 8001e80:	f007 f934 	bl	80090ec <TIM_ARRPreloadConfig>
 8001e84:	4649      	mov	r1, r9
 8001e86:	488f      	ldr	r0, [pc, #572]	; (80020c4 <main+0xf5c>)
 8001e88:	f007 f922 	bl	80090d0 <TIM_CtrlPWMOutputs>
 8001e8c:	4649      	mov	r1, r9
 8001e8e:	488d      	ldr	r0, [pc, #564]	; (80020c4 <main+0xf5c>)
 8001e90:	f007 f912 	bl	80090b8 <TIM_Cmd>
 8001e94:	4651      	mov	r1, sl
 8001e96:	488b      	ldr	r0, [pc, #556]	; (80020c4 <main+0xf5c>)
 8001e98:	f007 f93c 	bl	8009114 <TIM_SetCompare1>
 8001e9c:	a835      	add	r0, sp, #212	; 0xd4
 8001e9e:	f002 ffc5 	bl	8004e2c <rtc_gettime>
 8001ea2:	f89d 00d9 	ldrb.w	r0, [sp, #217]	; 0xd9
 8001ea6:	f885 8000 	strb.w	r8, [r5]
 8001eaa:	9000      	str	r0, [sp, #0]
 8001eac:	f89d 00da 	ldrb.w	r0, [sp, #218]	; 0xda
 8001eb0:	f89d 20d6 	ldrb.w	r2, [sp, #214]	; 0xd6
 8001eb4:	9001      	str	r0, [sp, #4]
 8001eb6:	f89d 00db 	ldrb.w	r0, [sp, #219]	; 0xdb
 8001eba:	f89d 30d7 	ldrb.w	r3, [sp, #215]	; 0xd7
 8001ebe:	f8bd 10d4 	ldrh.w	r1, [sp, #212]	; 0xd4
 8001ec2:	9002      	str	r0, [sp, #8]
 8001ec4:	4882      	ldr	r0, [pc, #520]	; (80020d0 <main+0xf68>)
 8001ec6:	f002 fb0d 	bl	80044e4 <rprintf2RamRom>
 8001eca:	f8d4 0434 	ldr.w	r0, [r4, #1076]	; 0x434
 8001ece:	f7fe fa83 	bl	80003d8 <__aeabi_f2d>
 8001ed2:	4602      	mov	r2, r0
 8001ed4:	460b      	mov	r3, r1
 8001ed6:	487f      	ldr	r0, [pc, #508]	; (80020d4 <main+0xf6c>)
 8001ed8:	f002 fb04 	bl	80044e4 <rprintf2RamRom>
 8001edc:	487e      	ldr	r0, [pc, #504]	; (80020d8 <main+0xf70>)
 8001ede:	f002 fb01 	bl	80044e4 <rprintf2RamRom>
 8001ee2:	487e      	ldr	r0, [pc, #504]	; (80020dc <main+0xf74>)
 8001ee4:	f002 fafe 	bl	80044e4 <rprintf2RamRom>
 8001ee8:	4b7d      	ldr	r3, [pc, #500]	; (80020e0 <main+0xf78>)
 8001eea:	f8df 91c8 	ldr.w	r9, [pc, #456]	; 80020b4 <main+0xf4c>
 8001eee:	781b      	ldrb	r3, [r3, #0]
 8001ef0:	b123      	cbz	r3, 8001efc <main+0xd94>
 8001ef2:	4648      	mov	r0, r9
 8001ef4:	f005 f870 	bl	8006fd8 <f_puts.constprop.10>
 8001ef8:	f889 8000 	strb.w	r8, [r9]
 8001efc:	4879      	ldr	r0, [pc, #484]	; (80020e4 <main+0xf7c>)
 8001efe:	f005 fc35 	bl	800776c <Gps_Send_Str>
 8001f02:	4879      	ldr	r0, [pc, #484]	; (80020e8 <main+0xf80>)
 8001f04:	f005 fc32 	bl	800776c <Gps_Send_Str>
 8001f08:	4878      	ldr	r0, [pc, #480]	; (80020ec <main+0xf84>)
 8001f0a:	f005 fc2f 	bl	800776c <Gps_Send_Str>
 8001f0e:	4878      	ldr	r0, [pc, #480]	; (80020f0 <main+0xf88>)
 8001f10:	f005 fc2c 	bl	800776c <Gps_Send_Str>
 8001f14:	4877      	ldr	r0, [pc, #476]	; (80020f4 <main+0xf8c>)
 8001f16:	f005 fc29 	bl	800776c <Gps_Send_Str>
 8001f1a:	4877      	ldr	r0, [pc, #476]	; (80020f8 <main+0xf90>)
 8001f1c:	f005 fc26 	bl	800776c <Gps_Send_Str>
 8001f20:	4876      	ldr	r0, [pc, #472]	; (80020fc <main+0xf94>)
 8001f22:	f005 fc23 	bl	800776c <Gps_Send_Str>
 8001f26:	4876      	ldr	r0, [pc, #472]	; (8002100 <main+0xf98>)
 8001f28:	f001 fa9d 	bl	8003466 <Delay>
 8001f2c:	4a75      	ldr	r2, [pc, #468]	; (8002104 <main+0xf9c>)
 8001f2e:	4876      	ldr	r0, [pc, #472]	; (8002108 <main+0xfa0>)
 8001f30:	8813      	ldrh	r3, [r2, #0]
 8001f32:	b29b      	uxth	r3, r3
 8001f34:	8053      	strh	r3, [r2, #2]
 8001f36:	f005 fc24 	bl	8007782 <Gps_Send_Utf8>
 8001f3a:	2000      	movs	r0, #0
 8001f3c:	f004 fe38 	bl	8006bb0 <Get_UBX_Ack.constprop.25>
 8001f40:	b110      	cbz	r0, 8001f48 <main+0xde0>
 8001f42:	4872      	ldr	r0, [pc, #456]	; (800210c <main+0xfa4>)
 8001f44:	f002 face 	bl	80044e4 <rprintf2RamRom>
 8001f48:	f004 fe88 	bl	8006c5c <USART2_reconf.constprop.24>
 8001f4c:	486c      	ldr	r0, [pc, #432]	; (8002100 <main+0xf98>)
 8001f4e:	f001 fa8a 	bl	8003466 <Delay>
 8001f52:	486f      	ldr	r0, [pc, #444]	; (8002110 <main+0xfa8>)
 8001f54:	f005 fc15 	bl	8007782 <Gps_Send_Utf8>
 8001f58:	2001      	movs	r0, #1
 8001f5a:	f004 fe29 	bl	8006bb0 <Get_UBX_Ack.constprop.25>
 8001f5e:	b108      	cbz	r0, 8001f64 <main+0xdfc>
 8001f60:	486c      	ldr	r0, [pc, #432]	; (8002114 <main+0xfac>)
 8001f62:	e01b      	b.n	8001f9c <main+0xe34>
 8001f64:	486c      	ldr	r0, [pc, #432]	; (8002118 <main+0xfb0>)
 8001f66:	f005 fc0c 	bl	8007782 <Gps_Send_Utf8>
 8001f6a:	2024      	movs	r0, #36	; 0x24
 8001f6c:	f004 fe20 	bl	8006bb0 <Get_UBX_Ack.constprop.25>
 8001f70:	b108      	cbz	r0, 8001f76 <main+0xe0e>
 8001f72:	486a      	ldr	r0, [pc, #424]	; (800211c <main+0xfb4>)
 8001f74:	e012      	b.n	8001f9c <main+0xe34>
 8001f76:	486a      	ldr	r0, [pc, #424]	; (8002120 <main+0xfb8>)
 8001f78:	f005 fc03 	bl	8007782 <Gps_Send_Utf8>
 8001f7c:	2008      	movs	r0, #8
 8001f7e:	f004 fe17 	bl	8006bb0 <Get_UBX_Ack.constprop.25>
 8001f82:	b108      	cbz	r0, 8001f88 <main+0xe20>
 8001f84:	4867      	ldr	r0, [pc, #412]	; (8002124 <main+0xfbc>)
 8001f86:	e009      	b.n	8001f9c <main+0xe34>
 8001f88:	4867      	ldr	r0, [pc, #412]	; (8002128 <main+0xfc0>)
 8001f8a:	f005 fbfa 	bl	8007782 <Gps_Send_Utf8>
 8001f8e:	2016      	movs	r0, #22
 8001f90:	f004 fe0e 	bl	8006bb0 <Get_UBX_Ack.constprop.25>
 8001f94:	2800      	cmp	r0, #0
 8001f96:	f000 847e 	beq.w	8002896 <main+0x172e>
 8001f9a:	4864      	ldr	r0, [pc, #400]	; (800212c <main+0xfc4>)
 8001f9c:	f002 faa2 	bl	80044e4 <rprintf2RamRom>
 8001fa0:	2300      	movs	r3, #0
 8001fa2:	931b      	str	r3, [sp, #108]	; 0x6c
 8001fa4:	4c62      	ldr	r4, [pc, #392]	; (8002130 <main+0xfc8>)
 8001fa6:	f894 3031 	ldrb.w	r3, [r4, #49]	; 0x31
 8001faa:	46a0      	mov	r8, r4
 8001fac:	2b03      	cmp	r3, #3
 8001fae:	d035      	beq.n	800201c <main+0xeb4>
 8001fb0:	f006 fe74 	bl	8008c9c <IWDG_ReloadCounter>
 8001fb4:	bf30      	wfi
 8001fb6:	f005 f867 	bl	8007088 <Bytes_In_DMA_Buffer.constprop.3>
 8001fba:	4682      	mov	sl, r0
 8001fbc:	b130      	cbz	r0, 8001fcc <main+0xe64>
 8001fbe:	4851      	ldr	r0, [pc, #324]	; (8002104 <main+0xf9c>)
 8001fc0:	f005 fa36 	bl	8007430 <Pop_From_Buffer>
 8001fc4:	b2c0      	uxtb	r0, r0
 8001fc6:	f004 fd29 	bl	8006a1c <Gps_Process_Byte.constprop.26>
 8001fca:	e7f4      	b.n	8001fb6 <main+0xe4e>
 8001fcc:	f894 3030 	ldrb.w	r3, [r4, #48]	; 0x30
 8001fd0:	f8df 915c 	ldr.w	r9, [pc, #348]	; 8002130 <main+0xfc8>
 8001fd4:	2b07      	cmp	r3, #7
 8001fd6:	d10a      	bne.n	8001fee <main+0xe86>
 8001fd8:	f899 0032 	ldrb.w	r0, [r9, #50]	; 0x32
 8001fdc:	3030      	adds	r0, #48	; 0x30
 8001fde:	b2c0      	uxtb	r0, r0
 8001fe0:	f002 fa70 	bl	80044c4 <rprintfChar>
 8001fe4:	202c      	movs	r0, #44	; 0x2c
 8001fe6:	f002 fa6d 	bl	80044c4 <rprintfChar>
 8001fea:	f889 a030 	strb.w	sl, [r9, #48]	; 0x30
 8001fee:	f04f 0900 	mov.w	r9, #0
 8001ff2:	883a      	ldrh	r2, [r7, #0]
 8001ff4:	887b      	ldrh	r3, [r7, #2]
 8001ff6:	b292      	uxth	r2, r2
 8001ff8:	b29b      	uxth	r3, r3
 8001ffa:	429a      	cmp	r2, r3
 8001ffc:	d00b      	beq.n	8002016 <main+0xeae>
 8001ffe:	484d      	ldr	r0, [pc, #308]	; (8002134 <main+0xfcc>)
 8002000:	f005 fa16 	bl	8007430 <Pop_From_Buffer>
 8002004:	b2c0      	uxtb	r0, r0
 8002006:	2831      	cmp	r0, #49	; 0x31
 8002008:	d1f3      	bne.n	8001ff2 <main+0xe8a>
 800200a:	484b      	ldr	r0, [pc, #300]	; (8002138 <main+0xfd0>)
 800200c:	f002 fa6a 	bl	80044e4 <rprintf2RamRom>
 8002010:	f04f 0901 	mov.w	r9, #1
 8002014:	e7ed      	b.n	8001ff2 <main+0xe8a>
 8002016:	f1b9 0f00 	cmp.w	r9, #0
 800201a:	d003      	beq.n	8002024 <main+0xebc>
 800201c:	2300      	movs	r3, #0
 800201e:	f888 3030 	strb.w	r3, [r8, #48]	; 0x30
 8002022:	e093      	b.n	800214c <main+0xfe4>
 8002024:	f242 7210 	movw	r2, #10000	; 0x2710
 8002028:	f8df 811c 	ldr.w	r8, [pc, #284]	; 8002148 <main+0xfe0>
 800202c:	f8d8 3000 	ldr.w	r3, [r8]
 8002030:	1b9b      	subs	r3, r3, r6
 8002032:	4293      	cmp	r3, r2
 8002034:	d90a      	bls.n	800204c <main+0xee4>
 8002036:	2300      	movs	r3, #0
 8002038:	f894 1032 	ldrb.w	r1, [r4, #50]	; 0x32
 800203c:	483f      	ldr	r0, [pc, #252]	; (800213c <main+0xfd4>)
 800203e:	702b      	strb	r3, [r5, #0]
 8002040:	f002 fa50 	bl	80044e4 <rprintf2RamRom>
 8002044:	f004 fbd6 	bl	80067f4 <send_string_to_silabs.constprop.30>
 8002048:	f8d8 6000 	ldr.w	r6, [r8]
 800204c:	2400      	movs	r4, #0
 800204e:	a833      	add	r0, sp, #204	; 0xcc
 8002050:	f004 fb9e 	bl	8006790 <get_from_silabs_buffer>
 8002054:	f10d 09e4 	add.w	r9, sp, #228	; 0xe4
 8002058:	f89d 20cc 	ldrb.w	r2, [sp, #204]	; 0xcc
 800205c:	f809 0004 	strb.w	r0, [r9, r4]
 8002060:	3401      	adds	r4, #1
 8002062:	b2e3      	uxtb	r3, r4
 8002064:	2a00      	cmp	r2, #0
 8002066:	f000 841b 	beq.w	80028a0 <main+0x1738>
 800206a:	2c0b      	cmp	r4, #11
 800206c:	d1ef      	bne.n	800204e <main+0xee6>
 800206e:	4623      	mov	r3, r4
 8002070:	991b      	ldr	r1, [sp, #108]	; 0x6c
 8002072:	4419      	add	r1, r3
 8002074:	b28b      	uxth	r3, r1
 8002076:	931b      	str	r3, [sp, #108]	; 0x6c
 8002078:	2a00      	cmp	r2, #0
 800207a:	d093      	beq.n	8001fa4 <main+0xe3c>
 800207c:	4648      	mov	r0, r9
 800207e:	f005 ffb9 	bl	8007ff4 <strlen>
 8002082:	2806      	cmp	r0, #6
 8002084:	d18e      	bne.n	8001fa4 <main+0xe3c>
 8002086:	4648      	mov	r0, r9
 8002088:	492d      	ldr	r1, [pc, #180]	; (8002140 <main+0xfd8>)
 800208a:	2204      	movs	r2, #4
 800208c:	f005 ffe0 	bl	8008050 <strncmp>
 8002090:	2800      	cmp	r0, #0
 8002092:	d187      	bne.n	8001fa4 <main+0xe3c>
 8002094:	7028      	strb	r0, [r5, #0]
 8002096:	4649      	mov	r1, r9
 8002098:	482a      	ldr	r0, [pc, #168]	; (8002144 <main+0xfdc>)
 800209a:	f002 fa23 	bl	80044e4 <rprintf2RamRom>
 800209e:	f004 fba9 	bl	80067f4 <send_string_to_silabs.constprop.30>
 80020a2:	f8d8 6000 	ldr.w	r6, [r8]
 80020a6:	e77d      	b.n	8001fa4 <main+0xe3c>
 80020a8:	20001574 	andcs	r1, r0, r4, ror r5
 80020ac:	0800a89e 	stmdaeq	r0, {r1, r2, r3, r4, r7, fp, sp, pc}
 80020b0:	0800a8ac 	stmdaeq	r0, {r2, r3, r5, r7, fp, sp, pc}
 80020b4:	200011bc 			; <UNDEFINED> instruction: 0x200011bc
 80020b8:	20001330 	andcs	r1, r0, r0, lsr r3
 80020bc:	0800a8c6 	stmdaeq	r0, {r1, r2, r6, r7, fp, sp, pc}
 80020c0:	200012e8 	andcs	r1, r0, r8, ror #5
 80020c4:	40012c00 	andmi	r2, r1, r0, lsl #24
 80020c8:	20001046 	andcs	r1, r0, r6, asr #32
 80020cc:	20001050 	andcs	r1, r0, r0, asr r0
 80020d0:	0800a8e2 	stmdaeq	r0, {r1, r5, r6, r7, fp, sp, pc}
 80020d4:	0800a901 	stmdaeq	r0, {r0, r8, fp, sp, pc}
 80020d8:	0800a910 	stmdaeq	r0, {r4, r8, fp, sp, pc}
 80020dc:	0800a916 	stmdaeq	r0, {r1, r2, r4, r8, fp, sp, pc}
 80020e0:	2000184c 	andcs	r1, r0, ip, asr #16
 80020e4:	0800a994 	stmdaeq	r0, {r2, r4, r7, r8, fp, sp, pc}
 80020e8:	0800a9ae 	stmdaeq	r0, {r1, r2, r3, r5, r7, r8, fp, sp, pc}
 80020ec:	0800a9c8 	stmdaeq	r0, {r3, r6, r7, r8, fp, sp, pc}
 80020f0:	0800a9e2 	stmdaeq	r0, {r1, r5, r6, r7, r8, fp, sp, pc}
 80020f4:	0800a9fc 	stmdaeq	r0, {r2, r3, r4, r5, r6, r7, r8, fp, sp, pc}
 80020f8:	0800aa16 	stmdaeq	r0, {r1, r2, r4, r9, fp, sp, pc}
 80020fc:	0800aa30 	stmdaeq	r0, {r4, r5, r9, fp, sp, pc}
 8002100:	0004ffff 	strdeq	pc, [r4], -pc	; <UNPREDICTABLE>
 8002104:	20001324 	andcs	r1, r0, r4, lsr #6
 8002108:	0800a0f8 	stmdaeq	r0, {r3, r4, r5, r6, r7, sp, pc}
 800210c:	0800aa4a 	stmdaeq	r0, {r1, r3, r6, r9, fp, sp, pc}
 8002110:	0800a115 	stmdaeq	r0, {r0, r2, r4, r8, sp, pc}
 8002114:	0800aa64 	stmdaeq	r0, {r2, r5, r6, r9, fp, sp, pc}
 8002118:	0800a146 	stmdaeq	r0, {r1, r2, r6, r8, sp, pc}
 800211c:	0800aa80 	stmdaeq	r0, {r7, r9, fp, sp, pc}
 8002120:	0800a173 	stmdaeq	r0, {r0, r1, r4, r5, r6, r8, sp, pc}
 8002124:	0800aa9b 	stmdaeq	r0, {r0, r1, r3, r4, r7, r9, fp, sp, pc}
 8002128:	0800a182 	stmdaeq	r0, {r1, r7, r8, sp, pc}
 800212c:	0800aab6 	stmdaeq	r0, {r1, r2, r4, r5, r7, r9, fp, sp, pc}
 8002130:	200012ef 	andcs	r1, r0, pc, ror #5
 8002134:	20001798 	mulcs	r0, r8, r7
 8002138:	0800aacf 	stmdaeq	r0, {r0, r1, r2, r3, r6, r7, r9, fp, sp, pc}
 800213c:	0800aadd 	stmdaeq	r0, {r0, r2, r3, r4, r6, r7, r9, fp, sp, pc}
 8002140:	0800ac19 	stmdaeq	r0, {r0, r3, r4, sl, fp, sp, pc}
 8002144:	0800aaf6 	stmdaeq	r0, {r1, r2, r4, r5, r6, r7, r9, fp, sp, pc}
 8002148:	200012e0 	andcs	r1, r0, r0, ror #5
 800214c:	f898 3030 	ldrb.w	r3, [r8, #48]	; 0x30
 8002150:	4c66      	ldr	r4, [pc, #408]	; (80022ec <main+0x1184>)
 8002152:	2b07      	cmp	r3, #7
 8002154:	d00a      	beq.n	800216c <main+0x1004>
 8002156:	f004 ff97 	bl	8007088 <Bytes_In_DMA_Buffer.constprop.3>
 800215a:	2800      	cmp	r0, #0
 800215c:	d0f6      	beq.n	800214c <main+0xfe4>
 800215e:	4864      	ldr	r0, [pc, #400]	; (80022f0 <main+0x1188>)
 8002160:	f005 f966 	bl	8007430 <Pop_From_Buffer>
 8002164:	b2c0      	uxtb	r0, r0
 8002166:	f004 fc59 	bl	8006a1c <Gps_Process_Byte.constprop.26>
 800216a:	e7f4      	b.n	8002156 <main+0xfee>
 800216c:	4861      	ldr	r0, [pc, #388]	; (80022f4 <main+0x118c>)
 800216e:	f005 fb17 	bl	80077a0 <Usart_Send_Str>
 8002172:	69a1      	ldr	r1, [r4, #24]
 8002174:	6962      	ldr	r2, [r4, #20]
 8002176:	6a23      	ldr	r3, [r4, #32]
 8002178:	f8d4 9008 	ldr.w	r9, [r4, #8]
 800217c:	f8d4 800c 	ldr.w	r8, [r4, #12]
 8002180:	f8d4 c010 	ldr.w	ip, [r4, #16]
 8002184:	f8d4 e024 	ldr.w	lr, [r4, #36]	; 0x24
 8002188:	6aa7      	ldr	r7, [r4, #40]	; 0x28
 800218a:	6ae6      	ldr	r6, [r4, #44]	; 0x2c
 800218c:	f894 0032 	ldrb.w	r0, [r4, #50]	; 0x32
 8002190:	f8cd 9000 	str.w	r9, [sp]
 8002194:	f8cd 8004 	str.w	r8, [sp, #4]
 8002198:	9006      	str	r0, [sp, #24]
 800219a:	f8cd c008 	str.w	ip, [sp, #8]
 800219e:	f8cd e00c 	str.w	lr, [sp, #12]
 80021a2:	9704      	str	r7, [sp, #16]
 80021a4:	9605      	str	r6, [sp, #20]
 80021a6:	4854      	ldr	r0, [pc, #336]	; (80022f8 <main+0x1190>)
 80021a8:	f002 f99c 	bl	80044e4 <rprintf2RamRom>
 80021ac:	2300      	movs	r3, #0
 80021ae:	4698      	mov	r8, r3
 80021b0:	469a      	mov	sl, r3
 80021b2:	4699      	mov	r9, r3
 80021b4:	469b      	mov	fp, r3
 80021b6:	461c      	mov	r4, r3
 80021b8:	4a50      	ldr	r2, [pc, #320]	; (80022fc <main+0x1194>)
 80021ba:	702b      	strb	r3, [r5, #0]
 80021bc:	6013      	str	r3, [r2, #0]
 80021be:	931d      	str	r3, [sp, #116]	; 0x74
 80021c0:	9322      	str	r3, [sp, #136]	; 0x88
 80021c2:	931c      	str	r3, [sp, #112]	; 0x70
 80021c4:	9321      	str	r3, [sp, #132]	; 0x84
 80021c6:	931e      	str	r3, [sp, #120]	; 0x78
 80021c8:	bf30      	wfi
 80021ca:	2500      	movs	r5, #0
 80021cc:	a831      	add	r0, sp, #196	; 0xc4
 80021ce:	f004 fadf 	bl	8006790 <get_from_silabs_buffer>
 80021d2:	ab39      	add	r3, sp, #228	; 0xe4
 80021d4:	f89d 20c4 	ldrb.w	r2, [sp, #196]	; 0xc4
 80021d8:	5558      	strb	r0, [r3, r5]
 80021da:	3501      	adds	r5, #1
 80021dc:	b2eb      	uxtb	r3, r5
 80021de:	2a00      	cmp	r2, #0
 80021e0:	f000 8363 	beq.w	80028aa <main+0x1742>
 80021e4:	2d0b      	cmp	r5, #11
 80021e6:	d1f1      	bne.n	80021cc <main+0x1064>
 80021e8:	462b      	mov	r3, r5
 80021ea:	991b      	ldr	r1, [sp, #108]	; 0x6c
 80021ec:	4419      	add	r1, r3
 80021ee:	b28b      	uxth	r3, r1
 80021f0:	931b      	str	r3, [sp, #108]	; 0x6c
 80021f2:	b1f2      	cbz	r2, 8002232 <main+0x10ca>
 80021f4:	a839      	add	r0, sp, #228	; 0xe4
 80021f6:	f005 fefd 	bl	8007ff4 <strlen>
 80021fa:	2806      	cmp	r0, #6
 80021fc:	d119      	bne.n	8002232 <main+0x10ca>
 80021fe:	a839      	add	r0, sp, #228	; 0xe4
 8002200:	493f      	ldr	r1, [pc, #252]	; (8002300 <main+0x1198>)
 8002202:	2204      	movs	r2, #4
 8002204:	f005 ff24 	bl	8008050 <strncmp>
 8002208:	b998      	cbnz	r0, 8002232 <main+0x10ca>
 800220a:	f89d 30e8 	ldrb.w	r3, [sp, #232]	; 0xe8
 800220e:	2b4b      	cmp	r3, #75	; 0x4b
 8002210:	d10f      	bne.n	8002232 <main+0x10ca>
 8002212:	f89d 30e9 	ldrb.w	r3, [sp, #233]	; 0xe9
 8002216:	f1a3 0230 	sub.w	r2, r3, #48	; 0x30
 800221a:	b2d1      	uxtb	r1, r2
 800221c:	2907      	cmp	r1, #7
 800221e:	d808      	bhi.n	8002232 <main+0x10ca>
 8002220:	2b31      	cmp	r3, #49	; 0x31
 8002222:	bf1f      	itttt	ne
 8002224:	2301      	movne	r3, #1
 8002226:	4093      	lslne	r3, r2
 8002228:	431c      	orrne	r4, r3
 800222a:	b2e4      	uxtbne	r4, r4
 800222c:	bf08      	it	eq
 800222e:	f084 0402 	eoreq.w	r4, r4, #2
 8002232:	4a34      	ldr	r2, [pc, #208]	; (8002304 <main+0x119c>)
 8002234:	6813      	ldr	r3, [r2, #0]
 8002236:	b14b      	cbz	r3, 800224c <main+0x10e4>
 8002238:	4b30      	ldr	r3, [pc, #192]	; (80022fc <main+0x1194>)
 800223a:	681b      	ldr	r3, [r3, #0]
 800223c:	6812      	ldr	r2, [r2, #0]
 800223e:	1a9b      	subs	r3, r3, r2
 8002240:	2b14      	cmp	r3, #20
 8002242:	d903      	bls.n	800224c <main+0x10e4>
 8002244:	f003 ff3a 	bl	80060bc <si446x_setup>
 8002248:	901f      	str	r0, [sp, #124]	; 0x7c
 800224a:	e002      	b.n	8002252 <main+0x10ea>
 800224c:	9b1f      	ldr	r3, [sp, #124]	; 0x7c
 800224e:	2b44      	cmp	r3, #68	; 0x44
 8002250:	d1f8      	bne.n	8002244 <main+0x10dc>
 8002252:	4d26      	ldr	r5, [pc, #152]	; (80022ec <main+0x1184>)
 8002254:	f895 3030 	ldrb.w	r3, [r5, #48]	; 0x30
 8002258:	2b07      	cmp	r3, #7
 800225a:	d00a      	beq.n	8002272 <main+0x110a>
 800225c:	f004 ff14 	bl	8007088 <Bytes_In_DMA_Buffer.constprop.3>
 8002260:	2800      	cmp	r0, #0
 8002262:	d0f6      	beq.n	8002252 <main+0x10ea>
 8002264:	4822      	ldr	r0, [pc, #136]	; (80022f0 <main+0x1188>)
 8002266:	f005 f8e3 	bl	8007430 <Pop_From_Buffer>
 800226a:	b2c0      	uxtb	r0, r0
 800226c:	f004 fbd6 	bl	8006a1c <Gps_Process_Byte.constprop.26>
 8002270:	e7f4      	b.n	800225c <main+0x10f4>
 8002272:	2300      	movs	r3, #0
 8002274:	2201      	movs	r2, #1
 8002276:	f44f 4600 	mov.w	r6, #32768	; 0x8000
 800227a:	a939      	add	r1, sp, #228	; 0xe4
 800227c:	f885 3030 	strb.w	r3, [r5, #48]	; 0x30
 8002280:	4821      	ldr	r0, [pc, #132]	; (8002308 <main+0x11a0>)
 8002282:	2304      	movs	r3, #4
 8002284:	f88d 20e6 	strb.w	r2, [sp, #230]	; 0xe6
 8002288:	9220      	str	r2, [sp, #128]	; 0x80
 800228a:	f88d 30e7 	strb.w	r3, [sp, #231]	; 0xe7
 800228e:	f8ad 60e4 	strh.w	r6, [sp, #228]	; 0xe4
 8002292:	f006 fbad 	bl	80089f0 <GPIO_Init>
 8002296:	2310      	movs	r3, #16
 8002298:	2014      	movs	r0, #20
 800229a:	f88d 30e7 	strb.w	r3, [sp, #231]	; 0xe7
 800229e:	f001 f8e2 	bl	8003466 <Delay>
 80022a2:	4631      	mov	r1, r6
 80022a4:	4818      	ldr	r0, [pc, #96]	; (8002308 <main+0x11a0>)
 80022a6:	f006 fbeb 	bl	8008a80 <GPIO_ReadInputDataBit>
 80022aa:	4607      	mov	r7, r0
 80022ac:	a939      	add	r1, sp, #228	; 0xe4
 80022ae:	4816      	ldr	r0, [pc, #88]	; (8002308 <main+0x11a0>)
 80022b0:	f006 fb9e 	bl	80089f0 <GPIO_Init>
 80022b4:	9a20      	ldr	r2, [sp, #128]	; 0x80
 80022b6:	4814      	ldr	r0, [pc, #80]	; (8002308 <main+0x11a0>)
 80022b8:	4631      	mov	r1, r6
 80022ba:	f006 fbeb 	bl	8008a94 <GPIO_WriteBit>
 80022be:	f02b 0301 	bic.w	r3, fp, #1
 80022c2:	431f      	orrs	r7, r3
 80022c4:	fa5f fb87 	uxtb.w	fp, r7
 80022c8:	f01b 020e 	ands.w	r2, fp, #14
 80022cc:	d15d      	bne.n	800238a <main+0x1222>
 80022ce:	4610      	mov	r0, r2
 80022d0:	f8d5 e014 	ldr.w	lr, [r5, #20]
 80022d4:	4b0d      	ldr	r3, [pc, #52]	; (800230c <main+0x11a4>)
 80022d6:	69ae      	ldr	r6, [r5, #24]
 80022d8:	490d      	ldr	r1, [pc, #52]	; (8002310 <main+0x11a8>)
 80022da:	4d0e      	ldr	r5, [pc, #56]	; (8002314 <main+0x11ac>)
 80022dc:	5957      	ldr	r7, [r2, r5]
 80022de:	4415      	add	r5, r2
 80022e0:	686d      	ldr	r5, [r5, #4]
 80022e2:	42ae      	cmp	r6, r5
 80022e4:	da18      	bge.n	8002318 <main+0x11b0>
 80022e6:	428e      	cmp	r6, r1
 80022e8:	db27      	blt.n	800233a <main+0x11d2>
 80022ea:	e017      	b.n	800231c <main+0x11b4>
 80022ec:	200012ef 	andcs	r1, r0, pc, ror #5
 80022f0:	20001324 	andcs	r1, r0, r4, lsr #6
 80022f4:	0800ab15 	stmdaeq	r0, {r0, r2, r4, r8, r9, fp, sp, pc}
 80022f8:	0800ab24 	stmdaeq	r0, {r2, r5, r8, r9, fp, sp, pc}
 80022fc:	200012e0 	andcs	r1, r0, r0, ror #5
 8002300:	0800ac19 	stmdaeq	r0, {r0, r3, r4, sl, fp, sp, pc}
 8002304:	200012e4 	andcs	r1, r0, r4, ror #5
 8002308:	40010800 	andmi	r0, r1, r0, lsl #16
 800230c:	20e3a088 	rsccs	sl, r3, r8, lsl #1
 8002310:	ff585ca6 			; <UNDEFINED> instruction: 0xff585ca6
 8002314:	0800a194 	stmdaeq	r0, {r2, r4, r7, r8, sp, pc}
 8002318:	428e      	cmp	r6, r1
 800231a:	da0e      	bge.n	800233a <main+0x11d2>
 800231c:	1bdb      	subs	r3, r3, r7
 800231e:	ebc5 0c06 	rsb	ip, r5, r6
 8002322:	fb0c f303 	mul.w	r3, ip, r3
 8002326:	1b49      	subs	r1, r1, r5
 8002328:	fb93 f3f1 	sdiv	r3, r3, r1
 800232c:	443b      	add	r3, r7
 800232e:	459e      	cmp	lr, r3
 8002330:	bfa4      	itt	ge
 8002332:	f080 0001 	eorge.w	r0, r0, #1
 8002336:	f000 0001 	andge.w	r0, r0, #1
 800233a:	3208      	adds	r2, #8
 800233c:	2a48      	cmp	r2, #72	; 0x48
 800233e:	4629      	mov	r1, r5
 8002340:	463b      	mov	r3, r7
 8002342:	d1ca      	bne.n	80022da <main+0x1172>
 8002344:	b920      	cbnz	r0, 8002350 <main+0x11e8>
 8002346:	4bb0      	ldr	r3, [pc, #704]	; (8002608 <main+0x14a0>)
 8002348:	699b      	ldr	r3, [r3, #24]
 800234a:	b10b      	cbz	r3, 8002350 <main+0x11e8>
 800234c:	f04b 0b82 	orr.w	fp, fp, #130	; 0x82
 8002350:	4dae      	ldr	r5, [pc, #696]	; (800260c <main+0x14a4>)
 8002352:	07e3      	lsls	r3, r4, #31
 8002354:	682a      	ldr	r2, [r5, #0]
 8002356:	4bae      	ldr	r3, [pc, #696]	; (8002610 <main+0x14a8>)
 8002358:	bf44      	itt	mi
 800235a:	f04b 0b84 	orrmi.w	fp, fp, #132	; 0x84
 800235e:	f004 04fe 	andmi.w	r4, r4, #254	; 0xfe
 8002362:	429a      	cmp	r2, r3
 8002364:	bf88      	it	hi
 8002366:	f04b 0b88 	orrhi.w	fp, fp, #136	; 0x88
 800236a:	f01b 0f80 	tst.w	fp, #128	; 0x80
 800236e:	d00c      	beq.n	800238a <main+0x1222>
 8002370:	48a8      	ldr	r0, [pc, #672]	; (8002614 <main+0x14ac>)
 8002372:	f44f 4100 	mov.w	r1, #32768	; 0x8000
 8002376:	2200      	movs	r2, #0
 8002378:	f006 fb8c 	bl	8008a94 <GPIO_WriteBit>
 800237c:	682b      	ldr	r3, [r5, #0]
 800237e:	f00b 0b7f 	and.w	fp, fp, #127	; 0x7f
 8002382:	f503 59bb 	add.w	r9, r3, #5984	; 0x1760
 8002386:	f109 0910 	add.w	r9, r9, #16
 800238a:	4ba0      	ldr	r3, [pc, #640]	; (800260c <main+0x14a4>)
 800238c:	681b      	ldr	r3, [r3, #0]
 800238e:	454b      	cmp	r3, r9
 8002390:	d90a      	bls.n	80023a8 <main+0x1240>
 8002392:	f1b9 0f00 	cmp.w	r9, #0
 8002396:	d007      	beq.n	80023a8 <main+0x1240>
 8002398:	489e      	ldr	r0, [pc, #632]	; (8002614 <main+0x14ac>)
 800239a:	f44f 4100 	mov.w	r1, #32768	; 0x8000
 800239e:	2201      	movs	r2, #1
 80023a0:	f006 fb78 	bl	8008a94 <GPIO_WriteBit>
 80023a4:	f04f 0900 	mov.w	r9, #0
 80023a8:	4e9b      	ldr	r6, [pc, #620]	; (8002618 <main+0x14b0>)
 80023aa:	499c      	ldr	r1, [pc, #624]	; (800261c <main+0x14b4>)
 80023ac:	f8d6 0688 	ldr.w	r0, [r6, #1672]	; 0x688
 80023b0:	f7fe fe3a 	bl	8001028 <__aeabi_fcmpgt>
 80023b4:	4d95      	ldr	r5, [pc, #596]	; (800260c <main+0x14a4>)
 80023b6:	b928      	cbnz	r0, 80023c4 <main+0x125c>
 80023b8:	f8d6 068c 	ldr.w	r0, [r6, #1676]	; 0x68c
 80023bc:	4998      	ldr	r1, [pc, #608]	; (8002620 <main+0x14b8>)
 80023be:	f7fe fe33 	bl	8001028 <__aeabi_fcmpgt>
 80023c2:	b108      	cbz	r0, 80023c8 <main+0x1260>
 80023c4:	682b      	ldr	r3, [r5, #0]
 80023c6:	9322      	str	r3, [sp, #136]	; 0x88
 80023c8:	9a1c      	ldr	r2, [sp, #112]	; 0x70
 80023ca:	682b      	ldr	r3, [r5, #0]
 80023cc:	1a9b      	subs	r3, r3, r2
 80023ce:	4a95      	ldr	r2, [pc, #596]	; (8002624 <main+0x14bc>)
 80023d0:	4293      	cmp	r3, r2
 80023d2:	d904      	bls.n	80023de <main+0x1276>
 80023d4:	4b8d      	ldr	r3, [pc, #564]	; (800260c <main+0x14a4>)
 80023d6:	681b      	ldr	r3, [r3, #0]
 80023d8:	931c      	str	r3, [sp, #112]	; 0x70
 80023da:	f005 fa09 	bl	80077f0 <Timer_GPIO_Enable>
 80023de:	4d8b      	ldr	r5, [pc, #556]	; (800260c <main+0x14a4>)
 80023e0:	9a1c      	ldr	r2, [sp, #112]	; 0x70
 80023e2:	682b      	ldr	r3, [r5, #0]
 80023e4:	1a9b      	subs	r3, r3, r2
 80023e6:	2b64      	cmp	r3, #100	; 0x64
 80023e8:	d90f      	bls.n	800240a <main+0x12a2>
 80023ea:	682b      	ldr	r3, [r5, #0]
 80023ec:	1a9b      	subs	r3, r3, r2
 80023ee:	f5b3 7ffa 	cmp.w	r3, #500	; 0x1f4
 80023f2:	d20a      	bcs.n	800240a <main+0x12a2>
 80023f4:	4b88      	ldr	r3, [pc, #544]	; (8002618 <main+0x14b0>)
 80023f6:	f8d3 2690 	ldr.w	r2, [r3, #1680]	; 0x690
 80023fa:	f8c3 2694 	str.w	r2, [r3, #1684]	; 0x694
 80023fe:	f005 f9e3 	bl	80077c8 <Timer_GPIO_Disable>
 8002402:	682b      	ldr	r3, [r5, #0]
 8002404:	f5a3 73fa 	sub.w	r3, r3, #500	; 0x1f4
 8002408:	931c      	str	r3, [sp, #112]	; 0x70
 800240a:	b2e3      	uxtb	r3, r4
 800240c:	f013 0f80 	tst.w	r3, #128	; 0x80
 8002410:	4a7e      	ldr	r2, [pc, #504]	; (800260c <main+0x14a4>)
 8002412:	d00b      	beq.n	800242c <main+0x12c4>
 8002414:	f1ba 0f00 	cmp.w	sl, #0
 8002418:	d108      	bne.n	800242c <main+0x12c4>
 800241a:	6811      	ldr	r1, [r2, #0]
 800241c:	2000      	movs	r0, #0
 800241e:	f501 4a2f 	add.w	sl, r1, #44800	; 0xaf00
 8002422:	497d      	ldr	r1, [pc, #500]	; (8002618 <main+0x14b0>)
 8002424:	f10a 0ac8 	add.w	sl, sl, #200	; 0xc8
 8002428:	f881 0698 	strb.w	r0, [r1, #1688]	; 0x698
 800242c:	6812      	ldr	r2, [r2, #0]
 800242e:	4d77      	ldr	r5, [pc, #476]	; (800260c <main+0x14a4>)
 8002430:	4552      	cmp	r2, sl
 8002432:	d23f      	bcs.n	80024b4 <main+0x134c>
 8002434:	f1ba 0f00 	cmp.w	sl, #0
 8002438:	d03c      	beq.n	80024b4 <main+0x134c>
 800243a:	4e77      	ldr	r6, [pc, #476]	; (8002618 <main+0x14b0>)
 800243c:	f896 4698 	ldrb.w	r4, [r6, #1688]	; 0x698
 8002440:	f004 0407 	and.w	r4, r4, #7
 8002444:	ea43 04c4 	orr.w	r4, r3, r4, lsl #3
 8002448:	0667      	lsls	r7, r4, #25
 800244a:	d537      	bpl.n	80024bc <main+0x1354>
 800244c:	4b6e      	ldr	r3, [pc, #440]	; (8002608 <main+0x14a0>)
 800244e:	f44f 727a 	mov.w	r2, #1000	; 0x3e8
 8002452:	6a1b      	ldr	r3, [r3, #32]
 8002454:	f004 04bf 	and.w	r4, r4, #191	; 0xbf
 8002458:	fb93 f3f2 	sdiv	r3, r3, r2
 800245c:	f249 0288 	movw	r2, #37000	; 0x9088
 8002460:	4293      	cmp	r3, r2
 8002462:	d924      	bls.n	80024ae <main+0x1346>
 8002464:	9a22      	ldr	r2, [sp, #136]	; 0x88
 8002466:	682b      	ldr	r3, [r5, #0]
 8002468:	1a9b      	subs	r3, r3, r2
 800246a:	f642 62e0 	movw	r2, #12000	; 0x2ee0
 800246e:	4293      	cmp	r3, r2
 8002470:	d91d      	bls.n	80024ae <main+0x1346>
 8002472:	f8d6 0694 	ldr.w	r0, [r6, #1684]	; 0x694
 8002476:	f7fd ffaf 	bl	80003d8 <__aeabi_f2d>
 800247a:	a35f      	add	r3, pc, #380	; (adr r3, 80025f8 <main+0x1490>)
 800247c:	e9d3 2300 	ldrd	r2, r3, [r3]
 8002480:	f7fe fa8e 	bl	80009a0 <__aeabi_dcmpgt>
 8002484:	b198      	cbz	r0, 80024ae <main+0x1346>
 8002486:	f8d6 0694 	ldr.w	r0, [r6, #1684]	; 0x694
 800248a:	f7fd ffa5 	bl	80003d8 <__aeabi_f2d>
 800248e:	a35c      	add	r3, pc, #368	; (adr r3, 8002600 <main+0x1498>)
 8002490:	e9d3 2300 	ldrd	r2, r3, [r3]
 8002494:	f7fe fa66 	bl	8000964 <__aeabi_dcmplt>
 8002498:	b148      	cbz	r0, 80024ae <main+0x1346>
 800249a:	682b      	ldr	r3, [r5, #0]
 800249c:	4862      	ldr	r0, [pc, #392]	; (8002628 <main+0x14c0>)
 800249e:	f503 6396 	add.w	r3, r3, #1200	; 0x4b0
 80024a2:	2110      	movs	r1, #16
 80024a4:	2201      	movs	r2, #1
 80024a6:	931d      	str	r3, [sp, #116]	; 0x74
 80024a8:	f006 faf4 	bl	8008a94 <GPIO_WriteBit>
 80024ac:	e006      	b.n	80024bc <main+0x1354>
 80024ae:	f084 0404 	eor.w	r4, r4, #4
 80024b2:	e003      	b.n	80024bc <main+0x1354>
 80024b4:	f004 047f 	and.w	r4, r4, #127	; 0x7f
 80024b8:	f04f 0a00 	mov.w	sl, #0
 80024bc:	9b1d      	ldr	r3, [sp, #116]	; 0x74
 80024be:	b1a3      	cbz	r3, 80024ea <main+0x1382>
 80024c0:	4d52      	ldr	r5, [pc, #328]	; (800260c <main+0x14a4>)
 80024c2:	f2a3 23ee 	subw	r3, r3, #750	; 0x2ee
 80024c6:	682a      	ldr	r2, [r5, #0]
 80024c8:	429a      	cmp	r2, r3
 80024ca:	d904      	bls.n	80024d6 <main+0x136e>
 80024cc:	4856      	ldr	r0, [pc, #344]	; (8002628 <main+0x14c0>)
 80024ce:	2110      	movs	r1, #16
 80024d0:	2200      	movs	r2, #0
 80024d2:	f006 fadf 	bl	8008a94 <GPIO_WriteBit>
 80024d6:	682b      	ldr	r3, [r5, #0]
 80024d8:	9a1d      	ldr	r2, [sp, #116]	; 0x74
 80024da:	4293      	cmp	r3, r2
 80024dc:	d905      	bls.n	80024ea <main+0x1382>
 80024de:	4b4e      	ldr	r3, [pc, #312]	; (8002618 <main+0x14b0>)
 80024e0:	2201      	movs	r2, #1
 80024e2:	f8a3 269a 	strh.w	r2, [r3, #1690]	; 0x69a
 80024e6:	2300      	movs	r3, #0
 80024e8:	931d      	str	r3, [sp, #116]	; 0x74
 80024ea:	4d4b      	ldr	r5, [pc, #300]	; (8002618 <main+0x14b0>)
 80024ec:	f8b5 269c 	ldrh.w	r2, [r5, #1692]	; 0x69c
 80024f0:	f8b5 369e 	ldrh.w	r3, [r5, #1694]	; 0x69e
 80024f4:	b292      	uxth	r2, r2
 80024f6:	b29b      	uxth	r3, r3
 80024f8:	429a      	cmp	r2, r3
 80024fa:	462b      	mov	r3, r5
 80024fc:	d041      	beq.n	8002582 <main+0x141a>
 80024fe:	f205 609c 	addw	r0, r5, #1692	; 0x69c
 8002502:	f004 ff95 	bl	8007430 <Pop_From_Buffer>
 8002506:	f8ad 00c4 	strh.w	r0, [sp, #196]	; 0xc4
 800250a:	f505 60d5 	add.w	r0, r5, #1704	; 0x6a8
 800250e:	f004 ff8f 	bl	8007430 <Pop_From_Buffer>
 8002512:	f8ad 00c6 	strh.w	r0, [sp, #198]	; 0xc6
 8002516:	f205 60b4 	addw	r0, r5, #1716	; 0x6b4
 800251a:	f004 ff89 	bl	8007430 <Pop_From_Buffer>
 800251e:	2219      	movs	r2, #25
 8002520:	f8ad 00c8 	strh.w	r0, [sp, #200]	; 0xc8
 8002524:	2100      	movs	r1, #0
 8002526:	a839      	add	r0, sp, #228	; 0xe4
 8002528:	f007 fd84 	bl	800a034 <memset>
 800252c:	f895 36c1 	ldrb.w	r3, [r5, #1729]	; 0x6c1
 8002530:	f895 26c0 	ldrb.w	r2, [r5, #1728]	; 0x6c0
 8002534:	f88d 30e4 	strb.w	r3, [sp, #228]	; 0xe4
 8002538:	2000      	movs	r0, #0
 800253a:	eb02 1300 	add.w	r3, r2, r0, lsl #4
 800253e:	ae31      	add	r6, sp, #196	; 0xc4
 8002540:	b2db      	uxtb	r3, r3
 8002542:	f836 6010 	ldrh.w	r6, [r6, r0, lsl #1]
 8002546:	08dd      	lsrs	r5, r3, #3
 8002548:	a939      	add	r1, sp, #228	; 0xe4
 800254a:	f003 0307 	and.w	r3, r3, #7
 800254e:	409e      	lsls	r6, r3
 8002550:	594b      	ldr	r3, [r1, r5]
 8002552:	3001      	adds	r0, #1
 8002554:	4333      	orrs	r3, r6
 8002556:	2803      	cmp	r0, #3
 8002558:	514b      	str	r3, [r1, r5]
 800255a:	d1ee      	bne.n	800253a <main+0x13d2>
 800255c:	3230      	adds	r2, #48	; 0x30
 800255e:	4b2e      	ldr	r3, [pc, #184]	; (8002618 <main+0x14b0>)
 8002560:	b2d2      	uxtb	r2, r2
 8002562:	f002 0007 	and.w	r0, r2, #7
 8002566:	f883 06c0 	strb.w	r0, [r3, #1728]	; 0x6c0
 800256a:	08d2      	lsrs	r2, r2, #3
 800256c:	a844      	add	r0, sp, #272	; 0x110
 800256e:	4410      	add	r0, r2
 8002570:	f810 0c2c 	ldrb.w	r0, [r0, #-44]
 8002574:	f883 06c1 	strb.w	r0, [r3, #1729]	; 0x6c1
 8002578:	ab30      	add	r3, sp, #192	; 0xc0
 800257a:	482c      	ldr	r0, [pc, #176]	; (800262c <main+0x14c4>)
 800257c:	f001 fc6f 	bl	8003e5e <f_write>
 8002580:	e7b3      	b.n	80024ea <main+0x1382>
 8002582:	f895 26c2 	ldrb.w	r2, [r5, #1730]	; 0x6c2
 8002586:	b9b2      	cbnz	r2, 80025b6 <main+0x144e>
 8002588:	9a1e      	ldr	r2, [sp, #120]	; 0x78
 800258a:	2a1f      	cmp	r2, #31
 800258c:	d813      	bhi.n	80025b6 <main+0x144e>
 800258e:	f006 fb85 	bl	8008c9c <IWDG_ReloadCounter>
 8002592:	f205 60c4 	addw	r0, r5, #1732	; 0x6c4
 8002596:	a933      	add	r1, sp, #204	; 0xcc
 8002598:	2208      	movs	r2, #8
 800259a:	f005 fbff 	bl	8007d9c <memcmp>
 800259e:	f205 63c4 	addw	r3, r5, #1732	; 0x6c4
 80025a2:	b918      	cbnz	r0, 80025ac <main+0x1444>
 80025a4:	9a1e      	ldr	r2, [sp, #120]	; 0x78
 80025a6:	3201      	adds	r2, #1
 80025a8:	b2d2      	uxtb	r2, r2
 80025aa:	921e      	str	r2, [sp, #120]	; 0x78
 80025ac:	6818      	ldr	r0, [r3, #0]
 80025ae:	6859      	ldr	r1, [r3, #4]
 80025b0:	aa33      	add	r2, sp, #204	; 0xcc
 80025b2:	c203      	stmia	r2!, {r0, r1}
 80025b4:	e00d      	b.n	80025d2 <main+0x146a>
 80025b6:	2500      	movs	r5, #0
 80025b8:	f883 56c2 	strb.w	r5, [r3, #1730]	; 0x6c2
 80025bc:	f002 fdd4 	bl	8005168 <I2C_Config>
 80025c0:	2001      	movs	r0, #1
 80025c2:	f005 f945 	bl	8007850 <detect_sensors>
 80025c6:	4817      	ldr	r0, [pc, #92]	; (8002624 <main+0x14bc>)
 80025c8:	f000 ff4d 	bl	8003466 <Delay>
 80025cc:	f006 fb66 	bl	8008c9c <IWDG_ReloadCounter>
 80025d0:	951e      	str	r5, [sp, #120]	; 0x78
 80025d2:	4b11      	ldr	r3, [pc, #68]	; (8002618 <main+0x14b0>)
 80025d4:	f893 26cc 	ldrb.w	r2, [r3, #1740]	; 0x6cc
 80025d8:	0610      	lsls	r0, r2, #24
 80025da:	d529      	bpl.n	8002630 <main+0x14c8>
 80025dc:	f893 26cc 	ldrb.w	r2, [r3, #1740]	; 0x6cc
 80025e0:	f002 027f 	and.w	r2, r2, #127	; 0x7f
 80025e4:	2a01      	cmp	r2, #1
 80025e6:	9220      	str	r2, [sp, #128]	; 0x80
 80025e8:	d124      	bne.n	8002634 <main+0x14cc>
 80025ea:	f893 26cc 	ldrb.w	r2, [r3, #1740]	; 0x6cc
 80025ee:	f002 027f 	and.w	r2, r2, #127	; 0x7f
 80025f2:	f883 26cc 	strb.w	r2, [r3, #1740]	; 0x6cc
 80025f6:	e01d      	b.n	8002634 <main+0x14cc>
 80025f8:	33333333 	teqcc	r3, #-872415232	; 0xcc000000
 80025fc:	3fc33333 	svccc	0x00c33333
 8002600:	51eb851f 	mvnpl	r8, pc, lsl r5
 8002604:	3fdd1eb8 	svccc	0x00dd1eb8
 8002608:	200012ef 	andcs	r1, r0, pc, ror #5
 800260c:	200012e0 	andcs	r1, r0, r0, ror #5
 8002610:	00c042c0 	sbceq	r4, r0, r0, asr #5
 8002614:	40010800 	andmi	r0, r1, r0, lsl #16
 8002618:	200009d8 	ldrdcs	r0, [r0], -r8
 800261c:	41200000 	teqmi	r0, r0
 8002620:	41f00000 	mvnsmi	r0, r0
 8002624:	000186a0 	andeq	r8, r1, r0, lsr #13
 8002628:	40010c00 	andmi	r0, r1, r0, lsl #24
 800262c:	20001574 	andcs	r1, r0, r4, ror r5
 8002630:	2300      	movs	r3, #0
 8002632:	9320      	str	r3, [sp, #128]	; 0x80
 8002634:	4aa4      	ldr	r2, [pc, #656]	; (80028c8 <main+0x1760>)
 8002636:	9921      	ldr	r1, [sp, #132]	; 0x84
 8002638:	6813      	ldr	r3, [r2, #0]
 800263a:	1a5b      	subs	r3, r3, r1
 800263c:	f246 11a8 	movw	r1, #25000	; 0x61a8
 8002640:	428b      	cmp	r3, r1
 8002642:	f240 80ca 	bls.w	80027da <main+0x1672>
 8002646:	6813      	ldr	r3, [r2, #0]
 8002648:	4da0      	ldr	r5, [pc, #640]	; (80028cc <main+0x1764>)
 800264a:	a835      	add	r0, sp, #212	; 0xd4
 800264c:	9321      	str	r3, [sp, #132]	; 0x84
 800264e:	f002 fbed 	bl	8004e2c <rtc_gettime>
 8002652:	2300      	movs	r3, #0
 8002654:	702b      	strb	r3, [r5, #0]
 8002656:	f108 0301 	add.w	r3, r8, #1
 800265a:	b29b      	uxth	r3, r3
 800265c:	9323      	str	r3, [sp, #140]	; 0x8c
 800265e:	4b9c      	ldr	r3, [pc, #624]	; (80028d0 <main+0x1768>)
 8002660:	6998      	ldr	r0, [r3, #24]
 8002662:	695a      	ldr	r2, [r3, #20]
 8002664:	9228      	str	r2, [sp, #160]	; 0xa0
 8002666:	6a1b      	ldr	r3, [r3, #32]
 8002668:	9329      	str	r3, [sp, #164]	; 0xa4
 800266a:	4b9a      	ldr	r3, [pc, #616]	; (80028d4 <main+0x176c>)
 800266c:	f8d3 c434 	ldr.w	ip, [r3, #1076]	; 0x434
 8002670:	f8d3 26d0 	ldr.w	r2, [r3, #1744]	; 0x6d0
 8002674:	f8cd c0ac 	str.w	ip, [sp, #172]	; 0xac
 8002678:	9224      	str	r2, [sp, #144]	; 0x90
 800267a:	f8d3 2688 	ldr.w	r2, [r3, #1672]	; 0x688
 800267e:	f8d3 768c 	ldr.w	r7, [r3, #1676]	; 0x68c
 8002682:	9225      	str	r2, [sp, #148]	; 0x94
 8002684:	f8d3 66d4 	ldr.w	r6, [r3, #1748]	; 0x6d4
 8002688:	f8d3 26d8 	ldr.w	r2, [r3, #1752]	; 0x6d8
 800268c:	f8d3 3694 	ldr.w	r3, [r3, #1684]	; 0x694
 8002690:	9226      	str	r2, [sp, #152]	; 0x98
 8002692:	9327      	str	r3, [sp, #156]	; 0x9c
 8002694:	f89d 30d9 	ldrb.w	r3, [sp, #217]	; 0xd9
 8002698:	932a      	str	r3, [sp, #168]	; 0xa8
 800269a:	f89d 30da 	ldrb.w	r3, [sp, #218]	; 0xda
 800269e:	9300      	str	r3, [sp, #0]
 80026a0:	f7fe fab2 	bl	8000c08 <__aeabi_i2f>
 80026a4:	f7fd fe98 	bl	80003d8 <__aeabi_f2d>
 80026a8:	a383      	add	r3, pc, #524	; (adr r3, 80028b8 <main+0x1750>)
 80026aa:	e9d3 2300 	ldrd	r2, r3, [r3]
 80026ae:	f7fd fee7 	bl	8000480 <__aeabi_dmul>
 80026b2:	e9cd 0102 	strd	r0, r1, [sp, #8]
 80026b6:	9828      	ldr	r0, [sp, #160]	; 0xa0
 80026b8:	f7fe faa6 	bl	8000c08 <__aeabi_i2f>
 80026bc:	f7fd fe8c 	bl	80003d8 <__aeabi_f2d>
 80026c0:	a37d      	add	r3, pc, #500	; (adr r3, 80028b8 <main+0x1750>)
 80026c2:	e9d3 2300 	ldrd	r2, r3, [r3]
 80026c6:	f7fd fedb 	bl	8000480 <__aeabi_dmul>
 80026ca:	e9cd 0104 	strd	r0, r1, [sp, #16]
 80026ce:	9829      	ldr	r0, [sp, #164]	; 0xa4
 80026d0:	f7fe fa9a 	bl	8000c08 <__aeabi_i2f>
 80026d4:	f7fd fe80 	bl	80003d8 <__aeabi_f2d>
 80026d8:	a379      	add	r3, pc, #484	; (adr r3, 80028c0 <main+0x1758>)
 80026da:	e9d3 2300 	ldrd	r2, r3, [r3]
 80026de:	f7fd fecf 	bl	8000480 <__aeabi_dmul>
 80026e2:	f8dd c0ac 	ldr.w	ip, [sp, #172]	; 0xac
 80026e6:	e9cd 0106 	strd	r0, r1, [sp, #24]
 80026ea:	4660      	mov	r0, ip
 80026ec:	f7fd fe74 	bl	80003d8 <__aeabi_f2d>
 80026f0:	e9cd 0108 	strd	r0, r1, [sp, #32]
 80026f4:	9824      	ldr	r0, [sp, #144]	; 0x90
 80026f6:	f7fd fe6f 	bl	80003d8 <__aeabi_f2d>
 80026fa:	e9cd 010a 	strd	r0, r1, [sp, #40]	; 0x28
 80026fe:	9825      	ldr	r0, [sp, #148]	; 0x94
 8002700:	f7fd fe6a 	bl	80003d8 <__aeabi_f2d>
 8002704:	e9cd 010c 	strd	r0, r1, [sp, #48]	; 0x30
 8002708:	4638      	mov	r0, r7
 800270a:	f7fd fe65 	bl	80003d8 <__aeabi_f2d>
 800270e:	e9cd 010e 	strd	r0, r1, [sp, #56]	; 0x38
 8002712:	4630      	mov	r0, r6
 8002714:	f7fd fe60 	bl	80003d8 <__aeabi_f2d>
 8002718:	9b1b      	ldr	r3, [sp, #108]	; 0x6c
 800271a:	e9cd 0110 	strd	r0, r1, [sp, #64]	; 0x40
 800271e:	9312      	str	r3, [sp, #72]	; 0x48
 8002720:	9826      	ldr	r0, [sp, #152]	; 0x98
 8002722:	9413      	str	r4, [sp, #76]	; 0x4c
 8002724:	f8cd b050 	str.w	fp, [sp, #80]	; 0x50
 8002728:	f7fd fe56 	bl	80003d8 <__aeabi_f2d>
 800272c:	e9cd 0116 	strd	r0, r1, [sp, #88]	; 0x58
 8002730:	9827      	ldr	r0, [sp, #156]	; 0x9c
 8002732:	f7fd fe51 	bl	80003d8 <__aeabi_f2d>
 8002736:	9b2a      	ldr	r3, [sp, #168]	; 0xa8
 8002738:	e9cd 0118 	strd	r0, r1, [sp, #96]	; 0x60
 800273c:	4642      	mov	r2, r8
 800273e:	4966      	ldr	r1, [pc, #408]	; (80028d8 <main+0x1770>)
 8002740:	4866      	ldr	r0, [pc, #408]	; (80028dc <main+0x1774>)
 8002742:	f001 fecf 	bl	80044e4 <rprintf2RamRom>
 8002746:	4628      	mov	r0, r5
 8002748:	f005 fc54 	bl	8007ff4 <strlen>
 800274c:	f64f 71ff 	movw	r1, #65535	; 0xffff
 8002750:	2302      	movs	r3, #2
 8002752:	4283      	cmp	r3, r0
 8002754:	4d5d      	ldr	r5, [pc, #372]	; (80028cc <main+0x1764>)
 8002756:	d216      	bcs.n	8002786 <main+0x161e>
 8002758:	5cea      	ldrb	r2, [r5, r3]
 800275a:	ea81 2102 	eor.w	r1, r1, r2, lsl #8
 800275e:	2208      	movs	r2, #8
 8002760:	f411 4f00 	tst.w	r1, #32768	; 0x8000
 8002764:	ea4f 0141 	mov.w	r1, r1, lsl #1
 8002768:	bf18      	it	ne
 800276a:	f481 5181 	eorne.w	r1, r1, #4128	; 0x1020
 800276e:	f102 32ff 	add.w	r2, r2, #4294967295
 8002772:	bf18      	it	ne
 8002774:	f081 0101 	eorne.w	r1, r1, #1
 8002778:	b292      	uxth	r2, r2
 800277a:	b289      	uxth	r1, r1
 800277c:	2a00      	cmp	r2, #0
 800277e:	d1ef      	bne.n	8002760 <main+0x15f8>
 8002780:	3301      	adds	r3, #1
 8002782:	b29b      	uxth	r3, r3
 8002784:	e7e5      	b.n	8002752 <main+0x15ea>
 8002786:	4856      	ldr	r0, [pc, #344]	; (80028e0 <main+0x1778>)
 8002788:	f001 feac 	bl	80044e4 <rprintf2RamRom>
 800278c:	f004 f832 	bl	80067f4 <send_string_to_silabs.constprop.30>
 8002790:	212c      	movs	r1, #44	; 0x2c
 8002792:	4628      	mov	r0, r5
 8002794:	f005 fb6a 	bl	8007e6c <strchr>
 8002798:	212a      	movs	r1, #42	; 0x2a
 800279a:	4606      	mov	r6, r0
 800279c:	4628      	mov	r0, r5
 800279e:	f005 fb65 	bl	8007e6c <strchr>
 80027a2:	2300      	movs	r3, #0
 80027a4:	7003      	strb	r3, [r0, #0]
 80027a6:	702b      	strb	r3, [r5, #0]
 80027a8:	4b47      	ldr	r3, [pc, #284]	; (80028c8 <main+0x1760>)
 80027aa:	4607      	mov	r7, r0
 80027ac:	6819      	ldr	r1, [r3, #0]
 80027ae:	f44f 737a 	mov.w	r3, #1000	; 0x3e8
 80027b2:	fbb1 f1f3 	udiv	r1, r1, r3
 80027b6:	484b      	ldr	r0, [pc, #300]	; (80028e4 <main+0x177c>)
 80027b8:	f001 fe94 	bl	80044e4 <rprintf2RamRom>
 80027bc:	4628      	mov	r0, r5
 80027be:	f005 fc19 	bl	8007ff4 <strlen>
 80027c2:	1bba      	subs	r2, r7, r6
 80027c4:	4631      	mov	r1, r6
 80027c6:	3201      	adds	r2, #1
 80027c8:	4428      	add	r0, r5
 80027ca:	f7fe fc57 	bl	800107c <memcpy>
 80027ce:	4846      	ldr	r0, [pc, #280]	; (80028e8 <main+0x1780>)
 80027d0:	9920      	ldr	r1, [sp, #128]	; 0x80
 80027d2:	f001 fe87 	bl	80044e4 <rprintf2RamRom>
 80027d6:	f8dd 808c 	ldr.w	r8, [sp, #140]	; 0x8c
 80027da:	4b44      	ldr	r3, [pc, #272]	; (80028ec <main+0x1784>)
 80027dc:	781b      	ldrb	r3, [r3, #0]
 80027de:	07d9      	lsls	r1, r3, #31
 80027e0:	d507      	bpl.n	80027f2 <main+0x168a>
 80027e2:	4d3a      	ldr	r5, [pc, #232]	; (80028cc <main+0x1764>)
 80027e4:	782b      	ldrb	r3, [r5, #0]
 80027e6:	b123      	cbz	r3, 80027f2 <main+0x168a>
 80027e8:	4628      	mov	r0, r5
 80027ea:	f004 fbf5 	bl	8006fd8 <f_puts.constprop.10>
 80027ee:	2300      	movs	r3, #0
 80027f0:	702b      	strb	r3, [r5, #0]
 80027f2:	483f      	ldr	r0, [pc, #252]	; (80028f0 <main+0x1788>)
 80027f4:	f005 f810 	bl	8007818 <file_preallocation_control>
 80027f8:	483e      	ldr	r0, [pc, #248]	; (80028f4 <main+0x178c>)
 80027fa:	f005 f80d 	bl	8007818 <file_preallocation_control>
 80027fe:	4a35      	ldr	r2, [pc, #212]	; (80028d4 <main+0x176c>)
 8002800:	f892 36dc 	ldrb.w	r3, [r2, #1756]	; 0x6dc
 8002804:	2b00      	cmp	r3, #0
 8002806:	f43f acdf 	beq.w	80021c8 <main+0x1060>
 800280a:	4b38      	ldr	r3, [pc, #224]	; (80028ec <main+0x1784>)
 800280c:	7819      	ldrb	r1, [r3, #0]
 800280e:	b369      	cbz	r1, 800286c <main+0x1704>
 8002810:	f892 66dc 	ldrb.w	r6, [r2, #1756]	; 0x6dc
 8002814:	a839      	add	r0, sp, #228	; 0xe4
 8002816:	781d      	ldrb	r5, [r3, #0]
 8002818:	b2f6      	uxtb	r6, r6
 800281a:	2100      	movs	r1, #0
 800281c:	2219      	movs	r2, #25
 800281e:	f007 fc09 	bl	800a034 <memset>
 8002822:	2e01      	cmp	r6, #1
 8002824:	b2ed      	uxtb	r5, r5
 8002826:	a839      	add	r0, sp, #228	; 0xe4
 8002828:	d101      	bne.n	800282e <main+0x16c6>
 800282a:	4933      	ldr	r1, [pc, #204]	; (80028f8 <main+0x1790>)
 800282c:	e003      	b.n	8002836 <main+0x16ce>
 800282e:	2e02      	cmp	r6, #2
 8002830:	bf0c      	ite	eq
 8002832:	4932      	ldreq	r1, [pc, #200]	; (80028fc <main+0x1794>)
 8002834:	4932      	ldrne	r1, [pc, #200]	; (8002900 <main+0x1798>)
 8002836:	2219      	movs	r2, #25
 8002838:	f005 fc54 	bl	80080e4 <strncpy>
 800283c:	07ea      	lsls	r2, r5, #31
 800283e:	d511      	bpl.n	8002864 <main+0x16fc>
 8002840:	a839      	add	r0, sp, #228	; 0xe4
 8002842:	f005 fbd7 	bl	8007ff4 <strlen>
 8002846:	a939      	add	r1, sp, #228	; 0xe4
 8002848:	4602      	mov	r2, r0
 800284a:	ab31      	add	r3, sp, #196	; 0xc4
 800284c:	4828      	ldr	r0, [pc, #160]	; (80028f0 <main+0x1788>)
 800284e:	f001 fb06 	bl	8003e5e <f_write>
 8002852:	4827      	ldr	r0, [pc, #156]	; (80028f0 <main+0x1788>)
 8002854:	f001 fa38 	bl	8003cc8 <f_sync>
 8002858:	4825      	ldr	r0, [pc, #148]	; (80028f0 <main+0x1788>)
 800285a:	f001 f950 	bl	8003afe <f_truncate>
 800285e:	4824      	ldr	r0, [pc, #144]	; (80028f0 <main+0x1788>)
 8002860:	f001 faf6 	bl	8003e50 <f_close>
 8002864:	07ab      	lsls	r3, r5, #30
 8002866:	d501      	bpl.n	800286c <main+0x1704>
 8002868:	f004 fbce 	bl	8007008 <wave_terminate.constprop.6>
 800286c:	4b19      	ldr	r3, [pc, #100]	; (80028d4 <main+0x176c>)
 800286e:	f893 36dc 	ldrb.w	r3, [r3, #1756]	; 0x6dc
 8002872:	2b02      	cmp	r3, #2
 8002874:	d10c      	bne.n	8002890 <main+0x1728>
 8002876:	4923      	ldr	r1, [pc, #140]	; (8002904 <main+0x179c>)
 8002878:	f103 63bf 	add.w	r3, r3, #100139008	; 0x5f80000
 800287c:	68ca      	ldr	r2, [r1, #12]
 800287e:	f103 1302 	add.w	r3, r3, #131074	; 0x20002
 8002882:	f402 62e0 	and.w	r2, r2, #1792	; 0x700
 8002886:	4313      	orrs	r3, r2
 8002888:	60cb      	str	r3, [r1, #12]
 800288a:	f3bf 8f4f 	dsb	sy
 800288e:	e7fe      	b.n	800288e <main+0x1726>
 8002890:	f004 ff91 	bl	80077b6 <shutdown>
 8002894:	e498      	b.n	80021c8 <main+0x1060>
 8002896:	481c      	ldr	r0, [pc, #112]	; (8002908 <main+0x17a0>)
 8002898:	f004 ff82 	bl	80077a0 <Usart_Send_Str>
 800289c:	f7ff bb80 	b.w	8001fa0 <main+0xe38>
 80028a0:	2b01      	cmp	r3, #1
 80028a2:	f47f abe5 	bne.w	8002070 <main+0xf08>
 80028a6:	f7ff bb7d 	b.w	8001fa4 <main+0xe3c>
 80028aa:	2b01      	cmp	r3, #1
 80028ac:	f47f ac9d 	bne.w	80021ea <main+0x1082>
 80028b0:	e4bf      	b.n	8002232 <main+0x10ca>
 80028b2:	bf00      	nop
 80028b4:	f3af 8000 	nop.w
 80028b8:	9abcaf48 	bls	6f2e5e0 <_Minimum_Stack_Size+0x6f2c5e0>
 80028bc:	3e7ad7f2 	mrccc	7, 3, sp, cr10, cr2, {7}
 80028c0:	d2f1a9fc 	rscsle	sl, r1, #252, 18	; 0x3f0000
 80028c4:	3f50624d 	svccc	0x0050624d
 80028c8:	200012e0 	andcs	r1, r0, r0, ror #5
 80028cc:	200011bc 			; <UNDEFINED> instruction: 0x200011bc
 80028d0:	200012ef 	andcs	r1, r0, pc, ror #5
 80028d4:	200009d8 	ldrdcs	r0, [r0], -r8
 80028d8:	0800ab92 	stmdaeq	r0, {r1, r4, r7, r8, r9, fp, sp, pc}
 80028dc:	0800ab4e 	stmdaeq	r0, {r1, r2, r3, r6, r8, r9, fp, sp, pc}
 80028e0:	0800ab96 	stmdaeq	r0, {r1, r2, r4, r7, r8, r9, fp, sp, pc}
 80028e4:	0800ab9d 	stmdaeq	r0, {r0, r2, r3, r4, r7, r8, r9, fp, sp, pc}
 80028e8:	0800aba0 	stmdaeq	r0, {r5, r7, r8, r9, fp, sp, pc}
 80028ec:	2000184c 	andcs	r1, r0, ip, asr #16
 80028f0:	20001330 	andcs	r1, r0, r0, lsr r3
 80028f4:	20001574 	andcs	r1, r0, r4, ror r5
 80028f8:	0800aba5 	stmdaeq	r0, {r0, r2, r5, r7, r8, r9, fp, sp, pc}
 80028fc:	0800abbb 	stmdaeq	r0, {r0, r1, r3, r4, r5, r7, r8, r9, fp, sp, pc}
 8002900:	0800abd2 	stmdaeq	r0, {r1, r4, r6, r7, r8, r9, fp, sp, pc}
 8002904:	e000ed00 	and	lr, r0, r0, lsl #26
 8002908:	0800abe2 	stmdaeq	r0, {r1, r5, r6, r7, r8, r9, fp, sp, pc}
 800290c:	f3af 8000 	nop.w

08002910 <check_fs>:
 8002910:	b510      	push	{r4, lr}
 8002912:	4604      	mov	r4, r0
 8002914:	460a      	mov	r2, r1
 8002916:	7840      	ldrb	r0, [r0, #1]
 8002918:	f104 0130 	add.w	r1, r4, #48	; 0x30
 800291c:	2301      	movs	r3, #1
 800291e:	f002 f8c1 	bl	8004aa4 <disk_read>
 8002922:	bb80      	cbnz	r0, 8002986 <check_fs+0x76>
 8002924:	f894 222f 	ldrb.w	r2, [r4, #559]	; 0x22f
 8002928:	f894 322e 	ldrb.w	r3, [r4, #558]	; 0x22e
 800292c:	ea43 2302 	orr.w	r3, r3, r2, lsl #8
 8002930:	f64a 2255 	movw	r2, #43605	; 0xaa55
 8002934:	4293      	cmp	r3, r2
 8002936:	d128      	bne.n	800298a <check_fs+0x7a>
 8002938:	f894 3068 	ldrb.w	r3, [r4, #104]	; 0x68
 800293c:	f894 2069 	ldrb.w	r2, [r4, #105]	; 0x69
 8002940:	041b      	lsls	r3, r3, #16
 8002942:	ea43 6302 	orr.w	r3, r3, r2, lsl #24
 8002946:	f894 2066 	ldrb.w	r2, [r4, #102]	; 0x66
 800294a:	4313      	orrs	r3, r2
 800294c:	f894 2067 	ldrb.w	r2, [r4, #103]	; 0x67
 8002950:	ea43 2302 	orr.w	r3, r3, r2, lsl #8
 8002954:	4a0e      	ldr	r2, [pc, #56]	; (8002990 <check_fs+0x80>)
 8002956:	f023 437f 	bic.w	r3, r3, #4278190080	; 0xff000000
 800295a:	4293      	cmp	r3, r2
 800295c:	d016      	beq.n	800298c <check_fs+0x7c>
 800295e:	f894 3084 	ldrb.w	r3, [r4, #132]	; 0x84
 8002962:	f894 0085 	ldrb.w	r0, [r4, #133]	; 0x85
 8002966:	041b      	lsls	r3, r3, #16
 8002968:	ea43 6000 	orr.w	r0, r3, r0, lsl #24
 800296c:	f894 3082 	ldrb.w	r3, [r4, #130]	; 0x82
 8002970:	4303      	orrs	r3, r0
 8002972:	f894 0083 	ldrb.w	r0, [r4, #131]	; 0x83
 8002976:	ea43 2000 	orr.w	r0, r3, r0, lsl #8
 800297a:	f020 407f 	bic.w	r0, r0, #4278190080	; 0xff000000
 800297e:	1a80      	subs	r0, r0, r2
 8002980:	bf18      	it	ne
 8002982:	2001      	movne	r0, #1
 8002984:	bd10      	pop	{r4, pc}
 8002986:	2003      	movs	r0, #3
 8002988:	bd10      	pop	{r4, pc}
 800298a:	2002      	movs	r0, #2
 800298c:	bd10      	pop	{r4, pc}
 800298e:	bf00      	nop
 8002990:	00544146 	subseq	r4, r4, r6, asr #2

08002994 <validate.lto_priv.31>:
 8002994:	b188      	cbz	r0, 80029ba <validate.lto_priv.31+0x26>
 8002996:	7803      	ldrb	r3, [r0, #0]
 8002998:	b17b      	cbz	r3, 80029ba <validate.lto_priv.31+0x26>
 800299a:	88c3      	ldrh	r3, [r0, #6]
 800299c:	428b      	cmp	r3, r1
 800299e:	d10c      	bne.n	80029ba <validate.lto_priv.31+0x26>
 80029a0:	7843      	ldrb	r3, [r0, #1]
 80029a2:	b91b      	cbnz	r3, 80029ac <validate.lto_priv.31+0x18>
 80029a4:	4b06      	ldr	r3, [pc, #24]	; (80029c0 <validate.lto_priv.31+0x2c>)
 80029a6:	781b      	ldrb	r3, [r3, #0]
 80029a8:	b2db      	uxtb	r3, r3
 80029aa:	e000      	b.n	80029ae <validate.lto_priv.31+0x1a>
 80029ac:	2301      	movs	r3, #1
 80029ae:	f013 0f01 	tst.w	r3, #1
 80029b2:	bf14      	ite	ne
 80029b4:	2003      	movne	r0, #3
 80029b6:	2000      	moveq	r0, #0
 80029b8:	4770      	bx	lr
 80029ba:	2009      	movs	r0, #9
 80029bc:	4770      	bx	lr
 80029be:	bf00      	nop
 80029c0:	200000f0 	strdcs	r0, [r0], -r0	; <UNPREDICTABLE>

080029c4 <chk_mounted.lto_priv.33>:
 80029c4:	b5f8      	push	{r3, r4, r5, r6, r7, lr}
 80029c6:	6803      	ldr	r3, [r0, #0]
 80029c8:	4615      	mov	r5, r2
 80029ca:	781a      	ldrb	r2, [r3, #0]
 80029cc:	3a30      	subs	r2, #48	; 0x30
 80029ce:	2a09      	cmp	r2, #9
 80029d0:	d904      	bls.n	80029dc <chk_mounted.lto_priv.33+0x18>
 80029d2:	4bb5      	ldr	r3, [pc, #724]	; (8002ca8 <chk_mounted.lto_priv.33+0x2e4>)
 80029d4:	681c      	ldr	r4, [r3, #0]
 80029d6:	600c      	str	r4, [r1, #0]
 80029d8:	b94c      	cbnz	r4, 80029ee <chk_mounted.lto_priv.33+0x2a>
 80029da:	e15d      	b.n	8002c98 <chk_mounted.lto_priv.33+0x2d4>
 80029dc:	785c      	ldrb	r4, [r3, #1]
 80029de:	2c3a      	cmp	r4, #58	; 0x3a
 80029e0:	d1f7      	bne.n	80029d2 <chk_mounted.lto_priv.33+0xe>
 80029e2:	3302      	adds	r3, #2
 80029e4:	6003      	str	r3, [r0, #0]
 80029e6:	2a00      	cmp	r2, #0
 80029e8:	d0f3      	beq.n	80029d2 <chk_mounted.lto_priv.33+0xe>
 80029ea:	200b      	movs	r0, #11
 80029ec:	bdf8      	pop	{r3, r4, r5, r6, r7, pc}
 80029ee:	7823      	ldrb	r3, [r4, #0]
 80029f0:	b1a3      	cbz	r3, 8002a1c <chk_mounted.lto_priv.33+0x58>
 80029f2:	7863      	ldrb	r3, [r4, #1]
 80029f4:	b91b      	cbnz	r3, 80029fe <chk_mounted.lto_priv.33+0x3a>
 80029f6:	4bad      	ldr	r3, [pc, #692]	; (8002cac <chk_mounted.lto_priv.33+0x2e8>)
 80029f8:	781b      	ldrb	r3, [r3, #0]
 80029fa:	b2db      	uxtb	r3, r3
 80029fc:	e000      	b.n	8002a00 <chk_mounted.lto_priv.33+0x3c>
 80029fe:	2301      	movs	r3, #1
 8002a00:	07d9      	lsls	r1, r3, #31
 8002a02:	d40b      	bmi.n	8002a1c <chk_mounted.lto_priv.33+0x58>
 8002a04:	2d00      	cmp	r5, #0
 8002a06:	f000 8149 	beq.w	8002c9c <chk_mounted.lto_priv.33+0x2d8>
 8002a0a:	f003 0304 	and.w	r3, r3, #4
 8002a0e:	f003 00ff 	and.w	r0, r3, #255	; 0xff
 8002a12:	2b00      	cmp	r3, #0
 8002a14:	f000 8147 	beq.w	8002ca6 <chk_mounted.lto_priv.33+0x2e2>
 8002a18:	200a      	movs	r0, #10
 8002a1a:	bdf8      	pop	{r3, r4, r5, r6, r7, pc}
 8002a1c:	2000      	movs	r0, #0
 8002a1e:	7020      	strb	r0, [r4, #0]
 8002a20:	7060      	strb	r0, [r4, #1]
 8002a22:	f002 f889 	bl	8004b38 <disk_initialize>
 8002a26:	07c2      	lsls	r2, r0, #31
 8002a28:	f100 813a 	bmi.w	8002ca0 <chk_mounted.lto_priv.33+0x2dc>
 8002a2c:	b10d      	cbz	r5, 8002a32 <chk_mounted.lto_priv.33+0x6e>
 8002a2e:	0743      	lsls	r3, r0, #29
 8002a30:	d4f2      	bmi.n	8002a18 <chk_mounted.lto_priv.33+0x54>
 8002a32:	4620      	mov	r0, r4
 8002a34:	2100      	movs	r1, #0
 8002a36:	f7ff ff6b 	bl	8002910 <check_fs>
 8002a3a:	2801      	cmp	r0, #1
 8002a3c:	d117      	bne.n	8002a6e <chk_mounted.lto_priv.33+0xaa>
 8002a3e:	f894 31f2 	ldrb.w	r3, [r4, #498]	; 0x1f2
 8002a42:	b90b      	cbnz	r3, 8002a48 <chk_mounted.lto_priv.33+0x84>
 8002a44:	200d      	movs	r0, #13
 8002a46:	bdf8      	pop	{r3, r4, r5, r6, r7, pc}
 8002a48:	f894 31f8 	ldrb.w	r3, [r4, #504]	; 0x1f8
 8002a4c:	f894 61f9 	ldrb.w	r6, [r4, #505]	; 0x1f9
 8002a50:	041b      	lsls	r3, r3, #16
 8002a52:	ea43 6306 	orr.w	r3, r3, r6, lsl #24
 8002a56:	f894 61f6 	ldrb.w	r6, [r4, #502]	; 0x1f6
 8002a5a:	4620      	mov	r0, r4
 8002a5c:	4333      	orrs	r3, r6
 8002a5e:	f894 61f7 	ldrb.w	r6, [r4, #503]	; 0x1f7
 8002a62:	ea43 2606 	orr.w	r6, r3, r6, lsl #8
 8002a66:	4631      	mov	r1, r6
 8002a68:	f7ff ff52 	bl	8002910 <check_fs>
 8002a6c:	e000      	b.n	8002a70 <chk_mounted.lto_priv.33+0xac>
 8002a6e:	2600      	movs	r6, #0
 8002a70:	2803      	cmp	r0, #3
 8002a72:	f000 8117 	beq.w	8002ca4 <chk_mounted.lto_priv.33+0x2e0>
 8002a76:	2800      	cmp	r0, #0
 8002a78:	d1e4      	bne.n	8002a44 <chk_mounted.lto_priv.33+0x80>
 8002a7a:	f894 203c 	ldrb.w	r2, [r4, #60]	; 0x3c
 8002a7e:	f894 303b 	ldrb.w	r3, [r4, #59]	; 0x3b
 8002a82:	ea43 2302 	orr.w	r3, r3, r2, lsl #8
 8002a86:	f5b3 7f00 	cmp.w	r3, #512	; 0x200
 8002a8a:	d1db      	bne.n	8002a44 <chk_mounted.lto_priv.33+0x80>
 8002a8c:	f894 5047 	ldrb.w	r5, [r4, #71]	; 0x47
 8002a90:	f894 3046 	ldrb.w	r3, [r4, #70]	; 0x46
 8002a94:	ea53 2505 	orrs.w	r5, r3, r5, lsl #8
 8002a98:	d10d      	bne.n	8002ab6 <chk_mounted.lto_priv.33+0xf2>
 8002a9a:	f894 3056 	ldrb.w	r3, [r4, #86]	; 0x56
 8002a9e:	f894 5057 	ldrb.w	r5, [r4, #87]	; 0x57
 8002aa2:	041b      	lsls	r3, r3, #16
 8002aa4:	ea43 6305 	orr.w	r3, r3, r5, lsl #24
 8002aa8:	f894 5054 	ldrb.w	r5, [r4, #84]	; 0x54
 8002aac:	432b      	orrs	r3, r5
 8002aae:	f894 5055 	ldrb.w	r5, [r4, #85]	; 0x55
 8002ab2:	ea43 2505 	orr.w	r5, r3, r5, lsl #8
 8002ab6:	f894 c040 	ldrb.w	ip, [r4, #64]	; 0x40
 8002aba:	61e5      	str	r5, [r4, #28]
 8002abc:	f10c 33ff 	add.w	r3, ip, #4294967295
 8002ac0:	2b01      	cmp	r3, #1
 8002ac2:	f884 c003 	strb.w	ip, [r4, #3]
 8002ac6:	d8bd      	bhi.n	8002a44 <chk_mounted.lto_priv.33+0x80>
 8002ac8:	f894 303d 	ldrb.w	r3, [r4, #61]	; 0x3d
 8002acc:	70a3      	strb	r3, [r4, #2]
 8002ace:	2b00      	cmp	r3, #0
 8002ad0:	d0b8      	beq.n	8002a44 <chk_mounted.lto_priv.33+0x80>
 8002ad2:	1e5a      	subs	r2, r3, #1
 8002ad4:	421a      	tst	r2, r3
 8002ad6:	d1b5      	bne.n	8002a44 <chk_mounted.lto_priv.33+0x80>
 8002ad8:	f894 e042 	ldrb.w	lr, [r4, #66]	; 0x42
 8002adc:	f894 2041 	ldrb.w	r2, [r4, #65]	; 0x41
 8002ae0:	ea42 2e0e 	orr.w	lr, r2, lr, lsl #8
 8002ae4:	f01e 0f0f 	tst.w	lr, #15
 8002ae8:	f8a4 e008 	strh.w	lr, [r4, #8]
 8002aec:	d1aa      	bne.n	8002a44 <chk_mounted.lto_priv.33+0x80>
 8002aee:	f894 2044 	ldrb.w	r2, [r4, #68]	; 0x44
 8002af2:	f894 1043 	ldrb.w	r1, [r4, #67]	; 0x43
 8002af6:	ea51 2102 	orrs.w	r1, r1, r2, lsl #8
 8002afa:	d10d      	bne.n	8002b18 <chk_mounted.lto_priv.33+0x154>
 8002afc:	f894 1052 	ldrb.w	r1, [r4, #82]	; 0x52
 8002b00:	f894 2053 	ldrb.w	r2, [r4, #83]	; 0x53
 8002b04:	0409      	lsls	r1, r1, #16
 8002b06:	f894 0050 	ldrb.w	r0, [r4, #80]	; 0x50
 8002b0a:	ea41 6102 	orr.w	r1, r1, r2, lsl #24
 8002b0e:	f894 2051 	ldrb.w	r2, [r4, #81]	; 0x51
 8002b12:	4301      	orrs	r1, r0
 8002b14:	ea41 2102 	orr.w	r1, r1, r2, lsl #8
 8002b18:	f894 003f 	ldrb.w	r0, [r4, #63]	; 0x3f
 8002b1c:	f894 203e 	ldrb.w	r2, [r4, #62]	; 0x3e
 8002b20:	ea52 2200 	orrs.w	r2, r2, r0, lsl #8
 8002b24:	d08e      	beq.n	8002a44 <chk_mounted.lto_priv.33+0x80>
 8002b26:	fb0c fc05 	mul.w	ip, ip, r5
 8002b2a:	eb02 101e 	add.w	r0, r2, lr, lsr #4
 8002b2e:	4460      	add	r0, ip
 8002b30:	4281      	cmp	r1, r0
 8002b32:	d387      	bcc.n	8002a44 <chk_mounted.lto_priv.33+0x80>
 8002b34:	1a09      	subs	r1, r1, r0
 8002b36:	fbb1 f3f3 	udiv	r3, r1, r3
 8002b3a:	2b00      	cmp	r3, #0
 8002b3c:	d082      	beq.n	8002a44 <chk_mounted.lto_priv.33+0x80>
 8002b3e:	f640 71f5 	movw	r1, #4085	; 0xff5
 8002b42:	428b      	cmp	r3, r1
 8002b44:	d906      	bls.n	8002b54 <chk_mounted.lto_priv.33+0x190>
 8002b46:	f64f 77f5 	movw	r7, #65525	; 0xfff5
 8002b4a:	42bb      	cmp	r3, r7
 8002b4c:	bf8c      	ite	hi
 8002b4e:	2703      	movhi	r7, #3
 8002b50:	2702      	movls	r7, #2
 8002b52:	e000      	b.n	8002b56 <chk_mounted.lto_priv.33+0x192>
 8002b54:	2701      	movs	r7, #1
 8002b56:	3302      	adds	r3, #2
 8002b58:	4430      	add	r0, r6
 8002b5a:	4432      	add	r2, r6
 8002b5c:	2f03      	cmp	r7, #3
 8002b5e:	61a3      	str	r3, [r4, #24]
 8002b60:	62a0      	str	r0, [r4, #40]	; 0x28
 8002b62:	6222      	str	r2, [r4, #32]
 8002b64:	d114      	bne.n	8002b90 <chk_mounted.lto_priv.33+0x1cc>
 8002b66:	f1be 0f00 	cmp.w	lr, #0
 8002b6a:	f47f af6b 	bne.w	8002a44 <chk_mounted.lto_priv.33+0x80>
 8002b6e:	f894 205e 	ldrb.w	r2, [r4, #94]	; 0x5e
 8002b72:	f894 105f 	ldrb.w	r1, [r4, #95]	; 0x5f
 8002b76:	0412      	lsls	r2, r2, #16
 8002b78:	ea42 6201 	orr.w	r2, r2, r1, lsl #24
 8002b7c:	f894 105c 	ldrb.w	r1, [r4, #92]	; 0x5c
 8002b80:	009b      	lsls	r3, r3, #2
 8002b82:	430a      	orrs	r2, r1
 8002b84:	f894 105d 	ldrb.w	r1, [r4, #93]	; 0x5d
 8002b88:	ea42 2201 	orr.w	r2, r2, r1, lsl #8
 8002b8c:	6262      	str	r2, [r4, #36]	; 0x24
 8002b8e:	e00f      	b.n	8002bb0 <chk_mounted.lto_priv.33+0x1ec>
 8002b90:	f1be 0f00 	cmp.w	lr, #0
 8002b94:	f43f af56 	beq.w	8002a44 <chk_mounted.lto_priv.33+0x80>
 8002b98:	4462      	add	r2, ip
 8002b9a:	2f02      	cmp	r7, #2
 8002b9c:	6262      	str	r2, [r4, #36]	; 0x24
 8002b9e:	ea4f 0243 	mov.w	r2, r3, lsl #1
 8002ba2:	bf0f      	iteee	eq
 8002ba4:	4613      	moveq	r3, r2
 8002ba6:	18d2      	addne	r2, r2, r3
 8002ba8:	f003 0301 	andne.w	r3, r3, #1
 8002bac:	eb03 0352 	addne.w	r3, r3, r2, lsr #1
 8002bb0:	f203 13ff 	addw	r3, r3, #511	; 0x1ff
 8002bb4:	ebb5 2f53 	cmp.w	r5, r3, lsr #9
 8002bb8:	f4ff af44 	bcc.w	8002a44 <chk_mounted.lto_priv.33+0x80>
 8002bbc:	f04f 33ff 	mov.w	r3, #4294967295
 8002bc0:	6123      	str	r3, [r4, #16]
 8002bc2:	2f03      	cmp	r7, #3
 8002bc4:	f04f 0300 	mov.w	r3, #0
 8002bc8:	60e3      	str	r3, [r4, #12]
 8002bca:	d15a      	bne.n	8002c82 <chk_mounted.lto_priv.33+0x2be>
 8002bcc:	7163      	strb	r3, [r4, #5]
 8002bce:	f894 2061 	ldrb.w	r2, [r4, #97]	; 0x61
 8002bd2:	f894 3060 	ldrb.w	r3, [r4, #96]	; 0x60
 8002bd6:	7860      	ldrb	r0, [r4, #1]
 8002bd8:	ea43 2202 	orr.w	r2, r3, r2, lsl #8
 8002bdc:	4432      	add	r2, r6
 8002bde:	6162      	str	r2, [r4, #20]
 8002be0:	f104 0130 	add.w	r1, r4, #48	; 0x30
 8002be4:	2301      	movs	r3, #1
 8002be6:	f001 ff5d 	bl	8004aa4 <disk_read>
 8002bea:	2800      	cmp	r0, #0
 8002bec:	d149      	bne.n	8002c82 <chk_mounted.lto_priv.33+0x2be>
 8002bee:	f894 222f 	ldrb.w	r2, [r4, #559]	; 0x22f
 8002bf2:	f894 322e 	ldrb.w	r3, [r4, #558]	; 0x22e
 8002bf6:	ea43 2302 	orr.w	r3, r3, r2, lsl #8
 8002bfa:	f64a 2255 	movw	r2, #43605	; 0xaa55
 8002bfe:	4293      	cmp	r3, r2
 8002c00:	d13f      	bne.n	8002c82 <chk_mounted.lto_priv.33+0x2be>
 8002c02:	f894 3032 	ldrb.w	r3, [r4, #50]	; 0x32
 8002c06:	f894 2033 	ldrb.w	r2, [r4, #51]	; 0x33
 8002c0a:	041b      	lsls	r3, r3, #16
 8002c0c:	ea43 6302 	orr.w	r3, r3, r2, lsl #24
 8002c10:	f894 2030 	ldrb.w	r2, [r4, #48]	; 0x30
 8002c14:	4313      	orrs	r3, r2
 8002c16:	f894 2031 	ldrb.w	r2, [r4, #49]	; 0x31
 8002c1a:	ea43 2302 	orr.w	r3, r3, r2, lsl #8
 8002c1e:	4a24      	ldr	r2, [pc, #144]	; (8002cb0 <chk_mounted.lto_priv.33+0x2ec>)
 8002c20:	4293      	cmp	r3, r2
 8002c22:	d12e      	bne.n	8002c82 <chk_mounted.lto_priv.33+0x2be>
 8002c24:	f894 3216 	ldrb.w	r3, [r4, #534]	; 0x216
 8002c28:	f894 2217 	ldrb.w	r2, [r4, #535]	; 0x217
 8002c2c:	041b      	lsls	r3, r3, #16
 8002c2e:	ea43 6302 	orr.w	r3, r3, r2, lsl #24
 8002c32:	f894 2214 	ldrb.w	r2, [r4, #532]	; 0x214
 8002c36:	4313      	orrs	r3, r2
 8002c38:	f894 2215 	ldrb.w	r2, [r4, #533]	; 0x215
 8002c3c:	ea43 2302 	orr.w	r3, r3, r2, lsl #8
 8002c40:	4a1c      	ldr	r2, [pc, #112]	; (8002cb4 <chk_mounted.lto_priv.33+0x2f0>)
 8002c42:	4293      	cmp	r3, r2
 8002c44:	d11d      	bne.n	8002c82 <chk_mounted.lto_priv.33+0x2be>
 8002c46:	f894 321e 	ldrb.w	r3, [r4, #542]	; 0x21e
 8002c4a:	f894 221f 	ldrb.w	r2, [r4, #543]	; 0x21f
 8002c4e:	041b      	lsls	r3, r3, #16
 8002c50:	ea43 6302 	orr.w	r3, r3, r2, lsl #24
 8002c54:	f894 221c 	ldrb.w	r2, [r4, #540]	; 0x21c
 8002c58:	4313      	orrs	r3, r2
 8002c5a:	f894 221d 	ldrb.w	r2, [r4, #541]	; 0x21d
 8002c5e:	ea43 2302 	orr.w	r3, r3, r2, lsl #8
 8002c62:	60e3      	str	r3, [r4, #12]
 8002c64:	f894 321a 	ldrb.w	r3, [r4, #538]	; 0x21a
 8002c68:	f894 221b 	ldrb.w	r2, [r4, #539]	; 0x21b
 8002c6c:	041b      	lsls	r3, r3, #16
 8002c6e:	ea43 6302 	orr.w	r3, r3, r2, lsl #24
 8002c72:	f894 2218 	ldrb.w	r2, [r4, #536]	; 0x218
 8002c76:	4313      	orrs	r3, r2
 8002c78:	f894 2219 	ldrb.w	r2, [r4, #537]	; 0x219
 8002c7c:	ea43 2302 	orr.w	r3, r3, r2, lsl #8
 8002c80:	6123      	str	r3, [r4, #16]
 8002c82:	4a0d      	ldr	r2, [pc, #52]	; (8002cb8 <chk_mounted.lto_priv.33+0x2f4>)
 8002c84:	2000      	movs	r0, #0
 8002c86:	8813      	ldrh	r3, [r2, #0]
 8002c88:	7027      	strb	r7, [r4, #0]
 8002c8a:	3301      	adds	r3, #1
 8002c8c:	b29b      	uxth	r3, r3
 8002c8e:	7120      	strb	r0, [r4, #4]
 8002c90:	8013      	strh	r3, [r2, #0]
 8002c92:	80e3      	strh	r3, [r4, #6]
 8002c94:	62e0      	str	r0, [r4, #44]	; 0x2c
 8002c96:	bdf8      	pop	{r3, r4, r5, r6, r7, pc}
 8002c98:	200c      	movs	r0, #12
 8002c9a:	bdf8      	pop	{r3, r4, r5, r6, r7, pc}
 8002c9c:	4628      	mov	r0, r5
 8002c9e:	bdf8      	pop	{r3, r4, r5, r6, r7, pc}
 8002ca0:	2003      	movs	r0, #3
 8002ca2:	bdf8      	pop	{r3, r4, r5, r6, r7, pc}
 8002ca4:	2001      	movs	r0, #1
 8002ca6:	bdf8      	pop	{r3, r4, r5, r6, r7, pc}
 8002ca8:	20000e10 	andcs	r0, r0, r0, lsl lr
 8002cac:	200000f0 	strdcs	r0, [r0], -r0	; <UNPREDICTABLE>
 8002cb0:	41615252 	cmnmi	r1, r2, asr r2
 8002cb4:	61417272 	hvcvs	5922	; 0x1722
 8002cb8:	200010b8 	strhcs	r1, [r0], -r8

08002cbc <clust2sect>:
 8002cbc:	6983      	ldr	r3, [r0, #24]
 8002cbe:	3902      	subs	r1, #2
 8002cc0:	3b02      	subs	r3, #2
 8002cc2:	4299      	cmp	r1, r3
 8002cc4:	bf3d      	ittte	cc
 8002cc6:	7882      	ldrbcc	r2, [r0, #2]
 8002cc8:	6a83      	ldrcc	r3, [r0, #40]	; 0x28
 8002cca:	fb02 3001 	mlacc	r0, r2, r1, r3
 8002cce:	2000      	movcs	r0, #0
 8002cd0:	4770      	bx	lr

08002cd2 <move_window.lto_priv.43>:
 8002cd2:	e92d 41f0 	stmdb	sp!, {r4, r5, r6, r7, r8, lr}
 8002cd6:	6ac5      	ldr	r5, [r0, #44]	; 0x2c
 8002cd8:	4604      	mov	r4, r0
 8002cda:	428d      	cmp	r5, r1
 8002cdc:	460f      	mov	r7, r1
 8002cde:	d102      	bne.n	8002ce6 <move_window.lto_priv.43+0x14>
 8002ce0:	2000      	movs	r0, #0
 8002ce2:	e8bd 81f0 	ldmia.w	sp!, {r4, r5, r6, r7, r8, pc}
 8002ce6:	7903      	ldrb	r3, [r0, #4]
 8002ce8:	b913      	cbnz	r3, 8002cf0 <move_window.lto_priv.43+0x1e>
 8002cea:	2f00      	cmp	r7, #0
 8002cec:	d0f8      	beq.n	8002ce0 <move_window.lto_priv.43+0xe>
 8002cee:	e01f      	b.n	8002d30 <move_window.lto_priv.43+0x5e>
 8002cf0:	f100 0830 	add.w	r8, r0, #48	; 0x30
 8002cf4:	4641      	mov	r1, r8
 8002cf6:	7840      	ldrb	r0, [r0, #1]
 8002cf8:	462a      	mov	r2, r5
 8002cfa:	2301      	movs	r3, #1
 8002cfc:	f001 fe72 	bl	80049e4 <disk_write>
 8002d00:	b110      	cbz	r0, 8002d08 <move_window.lto_priv.43+0x36>
 8002d02:	2001      	movs	r0, #1
 8002d04:	e8bd 81f0 	ldmia.w	sp!, {r4, r5, r6, r7, r8, pc}
 8002d08:	69e2      	ldr	r2, [r4, #28]
 8002d0a:	6a23      	ldr	r3, [r4, #32]
 8002d0c:	7120      	strb	r0, [r4, #4]
 8002d0e:	4413      	add	r3, r2
 8002d10:	429d      	cmp	r5, r3
 8002d12:	d2ea      	bcs.n	8002cea <move_window.lto_priv.43+0x18>
 8002d14:	78e6      	ldrb	r6, [r4, #3]
 8002d16:	2e01      	cmp	r6, #1
 8002d18:	d9e7      	bls.n	8002cea <move_window.lto_priv.43+0x18>
 8002d1a:	69e3      	ldr	r3, [r4, #28]
 8002d1c:	7860      	ldrb	r0, [r4, #1]
 8002d1e:	441d      	add	r5, r3
 8002d20:	4641      	mov	r1, r8
 8002d22:	462a      	mov	r2, r5
 8002d24:	2301      	movs	r3, #1
 8002d26:	3e01      	subs	r6, #1
 8002d28:	f001 fe5c 	bl	80049e4 <disk_write>
 8002d2c:	b2f6      	uxtb	r6, r6
 8002d2e:	e7f2      	b.n	8002d16 <move_window.lto_priv.43+0x44>
 8002d30:	7860      	ldrb	r0, [r4, #1]
 8002d32:	f104 0130 	add.w	r1, r4, #48	; 0x30
 8002d36:	463a      	mov	r2, r7
 8002d38:	2301      	movs	r3, #1
 8002d3a:	f001 feb3 	bl	8004aa4 <disk_read>
 8002d3e:	2800      	cmp	r0, #0
 8002d40:	d1df      	bne.n	8002d02 <move_window.lto_priv.43+0x30>
 8002d42:	62e7      	str	r7, [r4, #44]	; 0x2c
 8002d44:	e8bd 81f0 	ldmia.w	sp!, {r4, r5, r6, r7, r8, pc}

08002d48 <put_fat>:
 8002d48:	2901      	cmp	r1, #1
 8002d4a:	b5f8      	push	{r3, r4, r5, r6, r7, lr}
 8002d4c:	4606      	mov	r6, r0
 8002d4e:	460c      	mov	r4, r1
 8002d50:	4615      	mov	r5, r2
 8002d52:	d970      	bls.n	8002e36 <put_fat+0xee>
 8002d54:	6983      	ldr	r3, [r0, #24]
 8002d56:	4299      	cmp	r1, r3
 8002d58:	d26d      	bcs.n	8002e36 <put_fat+0xee>
 8002d5a:	7803      	ldrb	r3, [r0, #0]
 8002d5c:	2b02      	cmp	r3, #2
 8002d5e:	d039      	beq.n	8002dd4 <put_fat+0x8c>
 8002d60:	2b03      	cmp	r3, #3
 8002d62:	d048      	beq.n	8002df6 <put_fat+0xae>
 8002d64:	2b01      	cmp	r3, #1
 8002d66:	d162      	bne.n	8002e2e <put_fat+0xe6>
 8002d68:	eb01 0751 	add.w	r7, r1, r1, lsr #1
 8002d6c:	6a01      	ldr	r1, [r0, #32]
 8002d6e:	eb01 2157 	add.w	r1, r1, r7, lsr #9
 8002d72:	f7ff ffae 	bl	8002cd2 <move_window.lto_priv.43>
 8002d76:	2800      	cmp	r0, #0
 8002d78:	d15a      	bne.n	8002e30 <put_fat+0xe8>
 8002d7a:	f3c7 0308 	ubfx	r3, r7, #0, #9
 8002d7e:	f014 0401 	ands.w	r4, r4, #1
 8002d82:	4433      	add	r3, r6
 8002d84:	bf18      	it	ne
 8002d86:	f893 1030 	ldrbne.w	r1, [r3, #48]	; 0x30
 8002d8a:	b2ea      	uxtb	r2, r5
 8002d8c:	bf1e      	ittt	ne
 8002d8e:	f001 010f 	andne.w	r1, r1, #15
 8002d92:	ea41 1202 	orrne.w	r2, r1, r2, lsl #4
 8002d96:	b2d2      	uxtbne	r2, r2
 8002d98:	6a31      	ldr	r1, [r6, #32]
 8002d9a:	f883 2030 	strb.w	r2, [r3, #48]	; 0x30
 8002d9e:	3701      	adds	r7, #1
 8002da0:	2301      	movs	r3, #1
 8002da2:	7133      	strb	r3, [r6, #4]
 8002da4:	4630      	mov	r0, r6
 8002da6:	eb01 2157 	add.w	r1, r1, r7, lsr #9
 8002daa:	f7ff ff92 	bl	8002cd2 <move_window.lto_priv.43>
 8002dae:	2800      	cmp	r0, #0
 8002db0:	d13e      	bne.n	8002e30 <put_fat+0xe8>
 8002db2:	f3c7 0708 	ubfx	r7, r7, #0, #9
 8002db6:	4437      	add	r7, r6
 8002db8:	b114      	cbz	r4, 8002dc0 <put_fat+0x78>
 8002dba:	f3c5 1507 	ubfx	r5, r5, #4, #8
 8002dbe:	e006      	b.n	8002dce <put_fat+0x86>
 8002dc0:	f897 3030 	ldrb.w	r3, [r7, #48]	; 0x30
 8002dc4:	f3c5 2503 	ubfx	r5, r5, #8, #4
 8002dc8:	f023 030f 	bic.w	r3, r3, #15
 8002dcc:	431d      	orrs	r5, r3
 8002dce:	f887 5030 	strb.w	r5, [r7, #48]	; 0x30
 8002dd2:	e02d      	b.n	8002e30 <put_fat+0xe8>
 8002dd4:	6a01      	ldr	r1, [r0, #32]
 8002dd6:	eb01 2114 	add.w	r1, r1, r4, lsr #8
 8002dda:	f7ff ff7a 	bl	8002cd2 <move_window.lto_priv.43>
 8002dde:	bb38      	cbnz	r0, 8002e30 <put_fat+0xe8>
 8002de0:	0064      	lsls	r4, r4, #1
 8002de2:	f404 74ff 	and.w	r4, r4, #510	; 0x1fe
 8002de6:	1933      	adds	r3, r6, r4
 8002de8:	f883 5030 	strb.w	r5, [r3, #48]	; 0x30
 8002dec:	f3c5 2507 	ubfx	r5, r5, #8, #8
 8002df0:	f883 5031 	strb.w	r5, [r3, #49]	; 0x31
 8002df4:	e01c      	b.n	8002e30 <put_fat+0xe8>
 8002df6:	6a01      	ldr	r1, [r0, #32]
 8002df8:	eb01 11d4 	add.w	r1, r1, r4, lsr #7
 8002dfc:	f7ff ff69 	bl	8002cd2 <move_window.lto_priv.43>
 8002e00:	b9b0      	cbnz	r0, 8002e30 <put_fat+0xe8>
 8002e02:	00a4      	lsls	r4, r4, #2
 8002e04:	f404 74fe 	and.w	r4, r4, #508	; 0x1fc
 8002e08:	f104 0330 	add.w	r3, r4, #48	; 0x30
 8002e0c:	4433      	add	r3, r6
 8002e0e:	78da      	ldrb	r2, [r3, #3]
 8002e10:	4434      	add	r4, r6
 8002e12:	0612      	lsls	r2, r2, #24
 8002e14:	f002 4270 	and.w	r2, r2, #4026531840	; 0xf0000000
 8002e18:	4315      	orrs	r5, r2
 8002e1a:	f3c5 2207 	ubfx	r2, r5, #8, #8
 8002e1e:	f884 5030 	strb.w	r5, [r4, #48]	; 0x30
 8002e22:	705a      	strb	r2, [r3, #1]
 8002e24:	0c2a      	lsrs	r2, r5, #16
 8002e26:	0e2d      	lsrs	r5, r5, #24
 8002e28:	709a      	strb	r2, [r3, #2]
 8002e2a:	70dd      	strb	r5, [r3, #3]
 8002e2c:	e000      	b.n	8002e30 <put_fat+0xe8>
 8002e2e:	2002      	movs	r0, #2
 8002e30:	2301      	movs	r3, #1
 8002e32:	7133      	strb	r3, [r6, #4]
 8002e34:	bdf8      	pop	{r3, r4, r5, r6, r7, pc}
 8002e36:	2002      	movs	r0, #2
 8002e38:	bdf8      	pop	{r3, r4, r5, r6, r7, pc}

08002e3a <get_fat>:
 8002e3a:	2901      	cmp	r1, #1
 8002e3c:	b5f8      	push	{r3, r4, r5, r6, r7, lr}
 8002e3e:	4606      	mov	r6, r0
 8002e40:	460c      	mov	r4, r1
 8002e42:	d95a      	bls.n	8002efa <get_fat+0xc0>
 8002e44:	6983      	ldr	r3, [r0, #24]
 8002e46:	4299      	cmp	r1, r3
 8002e48:	d257      	bcs.n	8002efa <get_fat+0xc0>
 8002e4a:	7803      	ldrb	r3, [r0, #0]
 8002e4c:	2b02      	cmp	r3, #2
 8002e4e:	d027      	beq.n	8002ea0 <get_fat+0x66>
 8002e50:	2b03      	cmp	r3, #3
 8002e52:	d037      	beq.n	8002ec4 <get_fat+0x8a>
 8002e54:	2b01      	cmp	r3, #1
 8002e56:	d152      	bne.n	8002efe <get_fat+0xc4>
 8002e58:	eb01 0751 	add.w	r7, r1, r1, lsr #1
 8002e5c:	6a01      	ldr	r1, [r0, #32]
 8002e5e:	eb01 2157 	add.w	r1, r1, r7, lsr #9
 8002e62:	f7ff ff36 	bl	8002cd2 <move_window.lto_priv.43>
 8002e66:	2800      	cmp	r0, #0
 8002e68:	d149      	bne.n	8002efe <get_fat+0xc4>
 8002e6a:	6a31      	ldr	r1, [r6, #32]
 8002e6c:	f3c7 0308 	ubfx	r3, r7, #0, #9
 8002e70:	3701      	adds	r7, #1
 8002e72:	4433      	add	r3, r6
 8002e74:	4630      	mov	r0, r6
 8002e76:	eb01 2157 	add.w	r1, r1, r7, lsr #9
 8002e7a:	f893 5030 	ldrb.w	r5, [r3, #48]	; 0x30
 8002e7e:	f7ff ff28 	bl	8002cd2 <move_window.lto_priv.43>
 8002e82:	2800      	cmp	r0, #0
 8002e84:	d13b      	bne.n	8002efe <get_fat+0xc4>
 8002e86:	f3c7 0708 	ubfx	r7, r7, #0, #9
 8002e8a:	443e      	add	r6, r7
 8002e8c:	f896 0030 	ldrb.w	r0, [r6, #48]	; 0x30
 8002e90:	07e3      	lsls	r3, r4, #31
 8002e92:	ea45 2000 	orr.w	r0, r5, r0, lsl #8
 8002e96:	bf4c      	ite	mi
 8002e98:	0900      	lsrmi	r0, r0, #4
 8002e9a:	f3c0 000b 	ubfxpl	r0, r0, #0, #12
 8002e9e:	bdf8      	pop	{r3, r4, r5, r6, r7, pc}
 8002ea0:	6a01      	ldr	r1, [r0, #32]
 8002ea2:	eb01 2114 	add.w	r1, r1, r4, lsr #8
 8002ea6:	f7ff ff14 	bl	8002cd2 <move_window.lto_priv.43>
 8002eaa:	bb40      	cbnz	r0, 8002efe <get_fat+0xc4>
 8002eac:	0064      	lsls	r4, r4, #1
 8002eae:	f404 74ff 	and.w	r4, r4, #510	; 0x1fe
 8002eb2:	1933      	adds	r3, r6, r4
 8002eb4:	4434      	add	r4, r6
 8002eb6:	f893 3030 	ldrb.w	r3, [r3, #48]	; 0x30
 8002eba:	f894 0031 	ldrb.w	r0, [r4, #49]	; 0x31
 8002ebe:	ea43 2000 	orr.w	r0, r3, r0, lsl #8
 8002ec2:	bdf8      	pop	{r3, r4, r5, r6, r7, pc}
 8002ec4:	6a01      	ldr	r1, [r0, #32]
 8002ec6:	eb01 11d4 	add.w	r1, r1, r4, lsr #7
 8002eca:	f7ff ff02 	bl	8002cd2 <move_window.lto_priv.43>
 8002ece:	b9b0      	cbnz	r0, 8002efe <get_fat+0xc4>
 8002ed0:	00a3      	lsls	r3, r4, #2
 8002ed2:	f403 74fe 	and.w	r4, r3, #508	; 0x1fc
 8002ed6:	f104 0330 	add.w	r3, r4, #48	; 0x30
 8002eda:	4433      	add	r3, r6
 8002edc:	78d8      	ldrb	r0, [r3, #3]
 8002ede:	789a      	ldrb	r2, [r3, #2]
 8002ee0:	0600      	lsls	r0, r0, #24
 8002ee2:	785b      	ldrb	r3, [r3, #1]
 8002ee4:	ea40 4002 	orr.w	r0, r0, r2, lsl #16
 8002ee8:	4434      	add	r4, r6
 8002eea:	ea40 2003 	orr.w	r0, r0, r3, lsl #8
 8002eee:	f894 3030 	ldrb.w	r3, [r4, #48]	; 0x30
 8002ef2:	4318      	orrs	r0, r3
 8002ef4:	f020 4070 	bic.w	r0, r0, #4026531840	; 0xf0000000
 8002ef8:	bdf8      	pop	{r3, r4, r5, r6, r7, pc}
 8002efa:	2001      	movs	r0, #1
 8002efc:	bdf8      	pop	{r3, r4, r5, r6, r7, pc}
 8002efe:	f04f 30ff 	mov.w	r0, #4294967295
 8002f02:	bdf8      	pop	{r3, r4, r5, r6, r7, pc}

08002f04 <dir_sdi.lto_priv.50>:
 8002f04:	b570      	push	{r4, r5, r6, lr}
 8002f06:	4605      	mov	r5, r0
 8002f08:	460c      	mov	r4, r1
 8002f0a:	80e9      	strh	r1, [r5, #6]
 8002f0c:	6881      	ldr	r1, [r0, #8]
 8002f0e:	2901      	cmp	r1, #1
 8002f10:	d101      	bne.n	8002f16 <dir_sdi.lto_priv.50+0x12>
 8002f12:	2002      	movs	r0, #2
 8002f14:	bd70      	pop	{r4, r5, r6, pc}
 8002f16:	6803      	ldr	r3, [r0, #0]
 8002f18:	699a      	ldr	r2, [r3, #24]
 8002f1a:	4291      	cmp	r1, r2
 8002f1c:	d2f9      	bcs.n	8002f12 <dir_sdi.lto_priv.50+0xe>
 8002f1e:	b971      	cbnz	r1, 8002f3e <dir_sdi.lto_priv.50+0x3a>
 8002f20:	781a      	ldrb	r2, [r3, #0]
 8002f22:	2a03      	cmp	r2, #3
 8002f24:	d101      	bne.n	8002f2a <dir_sdi.lto_priv.50+0x26>
 8002f26:	6a59      	ldr	r1, [r3, #36]	; 0x24
 8002f28:	b949      	cbnz	r1, 8002f3e <dir_sdi.lto_priv.50+0x3a>
 8002f2a:	2200      	movs	r2, #0
 8002f2c:	60ea      	str	r2, [r5, #12]
 8002f2e:	891a      	ldrh	r2, [r3, #8]
 8002f30:	42a2      	cmp	r2, r4
 8002f32:	d9ee      	bls.n	8002f12 <dir_sdi.lto_priv.50+0xe>
 8002f34:	6a5b      	ldr	r3, [r3, #36]	; 0x24
 8002f36:	eb03 1314 	add.w	r3, r3, r4, lsr #4
 8002f3a:	612b      	str	r3, [r5, #16]
 8002f3c:	e019      	b.n	8002f72 <dir_sdi.lto_priv.50+0x6e>
 8002f3e:	789e      	ldrb	r6, [r3, #2]
 8002f40:	0136      	lsls	r6, r6, #4
 8002f42:	42b4      	cmp	r4, r6
 8002f44:	d30e      	bcc.n	8002f64 <dir_sdi.lto_priv.50+0x60>
 8002f46:	6828      	ldr	r0, [r5, #0]
 8002f48:	f7ff ff77 	bl	8002e3a <get_fat>
 8002f4c:	1c43      	adds	r3, r0, #1
 8002f4e:	4601      	mov	r1, r0
 8002f50:	d018      	beq.n	8002f84 <dir_sdi.lto_priv.50+0x80>
 8002f52:	2801      	cmp	r0, #1
 8002f54:	d9dd      	bls.n	8002f12 <dir_sdi.lto_priv.50+0xe>
 8002f56:	682b      	ldr	r3, [r5, #0]
 8002f58:	699b      	ldr	r3, [r3, #24]
 8002f5a:	4298      	cmp	r0, r3
 8002f5c:	d2d9      	bcs.n	8002f12 <dir_sdi.lto_priv.50+0xe>
 8002f5e:	1ba4      	subs	r4, r4, r6
 8002f60:	b2a4      	uxth	r4, r4
 8002f62:	e7ee      	b.n	8002f42 <dir_sdi.lto_priv.50+0x3e>
 8002f64:	60e9      	str	r1, [r5, #12]
 8002f66:	6828      	ldr	r0, [r5, #0]
 8002f68:	f7ff fea8 	bl	8002cbc <clust2sect>
 8002f6c:	eb00 1014 	add.w	r0, r0, r4, lsr #4
 8002f70:	6128      	str	r0, [r5, #16]
 8002f72:	f004 040f 	and.w	r4, r4, #15
 8002f76:	682b      	ldr	r3, [r5, #0]
 8002f78:	0164      	lsls	r4, r4, #5
 8002f7a:	3430      	adds	r4, #48	; 0x30
 8002f7c:	441c      	add	r4, r3
 8002f7e:	616c      	str	r4, [r5, #20]
 8002f80:	2000      	movs	r0, #0
 8002f82:	bd70      	pop	{r4, r5, r6, pc}
 8002f84:	2001      	movs	r0, #1
 8002f86:	bd70      	pop	{r4, r5, r6, pc}

08002f88 <follow_path.lto_priv.34>:
 8002f88:	e92d 47f0 	stmdb	sp!, {r4, r5, r6, r7, r8, r9, sl, lr}
 8002f8c:	780b      	ldrb	r3, [r1, #0]
 8002f8e:	4604      	mov	r4, r0
 8002f90:	2b2f      	cmp	r3, #47	; 0x2f
 8002f92:	460d      	mov	r5, r1
 8002f94:	d001      	beq.n	8002f9a <follow_path.lto_priv.34+0x12>
 8002f96:	2b5c      	cmp	r3, #92	; 0x5c
 8002f98:	d100      	bne.n	8002f9c <follow_path.lto_priv.34+0x14>
 8002f9a:	3501      	adds	r5, #1
 8002f9c:	2600      	movs	r6, #0
 8002f9e:	60a6      	str	r6, [r4, #8]
 8002fa0:	782b      	ldrb	r3, [r5, #0]
 8002fa2:	2b1f      	cmp	r3, #31
 8002fa4:	d875      	bhi.n	8003092 <follow_path.lto_priv.34+0x10a>
 8002fa6:	4620      	mov	r0, r4
 8002fa8:	4631      	mov	r1, r6
 8002faa:	f7ff ffab 	bl	8002f04 <dir_sdi.lto_priv.50>
 8002fae:	6166      	str	r6, [r4, #20]
 8002fb0:	e8bd 87f0 	ldmia.w	sp!, {r4, r5, r6, r7, r8, r9, sl, pc}
 8002fb4:	2200      	movs	r2, #0
 8002fb6:	f83e 6012 	ldrh.w	r6, [lr, r2, lsl #1]
 8002fba:	2e20      	cmp	r6, #32
 8002fbc:	f000 80bb 	beq.w	8003136 <follow_path.lto_priv.34+0x1ae>
 8002fc0:	2e2e      	cmp	r6, #46	; 0x2e
 8002fc2:	f000 80b8 	beq.w	8003136 <follow_path.lto_priv.34+0x1ae>
 8002fc6:	b10a      	cbz	r2, 8002fcc <follow_path.lto_priv.34+0x44>
 8002fc8:	f043 0303 	orr.w	r3, r3, #3
 8002fcc:	f830 6d02 	ldrh.w	r6, [r0, #-2]!
 8002fd0:	2e2e      	cmp	r6, #46	; 0x2e
 8002fd2:	d001      	beq.n	8002fd8 <follow_path.lto_priv.34+0x50>
 8002fd4:	3901      	subs	r1, #1
 8002fd6:	d1f9      	bne.n	8002fcc <follow_path.lto_priv.34+0x44>
 8002fd8:	f04f 0c00 	mov.w	ip, #0
 8002fdc:	4660      	mov	r0, ip
 8002fde:	2608      	movs	r6, #8
 8002fe0:	f102 0801 	add.w	r8, r2, #1
 8002fe4:	f83e 2012 	ldrh.w	r2, [lr, r2, lsl #1]
 8002fe8:	2a00      	cmp	r2, #0
 8002fea:	f000 80ee 	beq.w	80031ca <follow_path.lto_priv.34+0x242>
 8002fee:	2a20      	cmp	r2, #32
 8002ff0:	f000 80a5 	beq.w	800313e <follow_path.lto_priv.34+0x1b6>
 8002ff4:	2a2e      	cmp	r2, #46	; 0x2e
 8002ff6:	f000 80a0 	beq.w	800313a <follow_path.lto_priv.34+0x1b2>
 8002ffa:	45b4      	cmp	ip, r6
 8002ffc:	f0c0 80a3 	bcc.w	8003146 <follow_path.lto_priv.34+0x1be>
 8003000:	2e0b      	cmp	r6, #11
 8003002:	f040 80a3 	bne.w	800314c <follow_path.lto_priv.34+0x1c4>
 8003006:	4602      	mov	r2, r0
 8003008:	f043 0303 	orr.w	r3, r3, #3
 800300c:	260b      	movs	r6, #11
 800300e:	69a1      	ldr	r1, [r4, #24]
 8003010:	780f      	ldrb	r7, [r1, #0]
 8003012:	2fe5      	cmp	r7, #229	; 0xe5
 8003014:	bf04      	itt	eq
 8003016:	2705      	moveq	r7, #5
 8003018:	700f      	strbeq	r7, [r1, #0]
 800301a:	2e08      	cmp	r6, #8
 800301c:	bf04      	itt	eq
 800301e:	0082      	lsleq	r2, r0, #2
 8003020:	b2d2      	uxtbeq	r2, r2
 8003022:	f002 010c 	and.w	r1, r2, #12
 8003026:	290c      	cmp	r1, #12
 8003028:	f000 80d1 	beq.w	80031ce <follow_path.lto_priv.34+0x246>
 800302c:	f002 0003 	and.w	r0, r2, #3
 8003030:	2803      	cmp	r0, #3
 8003032:	f000 80cc 	beq.w	80031ce <follow_path.lto_priv.34+0x246>
 8003036:	0798      	lsls	r0, r3, #30
 8003038:	d409      	bmi.n	800304e <follow_path.lto_priv.34+0xc6>
 800303a:	f002 0203 	and.w	r2, r2, #3
 800303e:	2a01      	cmp	r2, #1
 8003040:	bf08      	it	eq
 8003042:	f043 0310 	orreq.w	r3, r3, #16
 8003046:	2904      	cmp	r1, #4
 8003048:	bf08      	it	eq
 800304a:	f043 0308 	orreq.w	r3, r3, #8
 800304e:	69a2      	ldr	r2, [r4, #24]
 8003050:	4620      	mov	r0, r4
 8003052:	72d3      	strb	r3, [r2, #11]
 8003054:	2100      	movs	r1, #0
 8003056:	f7ff ff55 	bl	8002f04 <dir_sdi.lto_priv.50>
 800305a:	b910      	cbnz	r0, 8003062 <follow_path.lto_priv.34+0xda>
 800305c:	4620      	mov	r0, r4
 800305e:	f001 ff23 	bl	8004ea8 <dir_find.part.4.lto_priv.51>
 8003062:	69a3      	ldr	r3, [r4, #24]
 8003064:	7adb      	ldrb	r3, [r3, #11]
 8003066:	2800      	cmp	r0, #0
 8003068:	f040 80b4 	bne.w	80031d4 <follow_path.lto_priv.34+0x24c>
 800306c:	075a      	lsls	r2, r3, #29
 800306e:	f100 80cc 	bmi.w	800320a <follow_path.lto_priv.34+0x282>
 8003072:	6962      	ldr	r2, [r4, #20]
 8003074:	7ad3      	ldrb	r3, [r2, #11]
 8003076:	06db      	lsls	r3, r3, #27
 8003078:	f140 80b5 	bpl.w	80031e6 <follow_path.lto_priv.34+0x25e>
 800307c:	7d13      	ldrb	r3, [r2, #20]
 800307e:	7d51      	ldrb	r1, [r2, #21]
 8003080:	ea43 2101 	orr.w	r1, r3, r1, lsl #8
 8003084:	7ed3      	ldrb	r3, [r2, #27]
 8003086:	7e92      	ldrb	r2, [r2, #26]
 8003088:	ea42 2303 	orr.w	r3, r2, r3, lsl #8
 800308c:	ea43 4301 	orr.w	r3, r3, r1, lsl #16
 8003090:	60a3      	str	r3, [r4, #8]
 8003092:	782b      	ldrb	r3, [r5, #0]
 8003094:	462a      	mov	r2, r5
 8003096:	2b2f      	cmp	r3, #47	; 0x2f
 8003098:	f105 0501 	add.w	r5, r5, #1
 800309c:	d0f9      	beq.n	8003092 <follow_path.lto_priv.34+0x10a>
 800309e:	2b5c      	cmp	r3, #92	; 0x5c
 80030a0:	d0f7      	beq.n	8003092 <follow_path.lto_priv.34+0x10a>
 80030a2:	f8d4 e01c 	ldr.w	lr, [r4, #28]
 80030a6:	1e57      	subs	r7, r2, #1
 80030a8:	f1ae 0602 	sub.w	r6, lr, #2
 80030ac:	2100      	movs	r1, #0
 80030ae:	f817 0f01 	ldrb.w	r0, [r7, #1]!
 80030b2:	1c4d      	adds	r5, r1, #1
 80030b4:	b283      	uxth	r3, r0
 80030b6:	2b1f      	cmp	r3, #31
 80030b8:	d91d      	bls.n	80030f6 <follow_path.lto_priv.34+0x16e>
 80030ba:	2b2f      	cmp	r3, #47	; 0x2f
 80030bc:	d01b      	beq.n	80030f6 <follow_path.lto_priv.34+0x16e>
 80030be:	2b5c      	cmp	r3, #92	; 0x5c
 80030c0:	d019      	beq.n	80030f6 <follow_path.lto_priv.34+0x16e>
 80030c2:	f5b5 7f80 	cmp.w	r5, #256	; 0x100
 80030c6:	f000 8091 	beq.w	80031ec <follow_path.lto_priv.34+0x264>
 80030ca:	2b7f      	cmp	r3, #127	; 0x7f
 80030cc:	d908      	bls.n	80030e0 <follow_path.lto_priv.34+0x158>
 80030ce:	4b50      	ldr	r3, [pc, #320]	; (8003210 <follow_path.lto_priv.34+0x288>)
 80030d0:	3880      	subs	r0, #128	; 0x80
 80030d2:	f833 3010 	ldrh.w	r3, [r3, r0, lsl #1]
 80030d6:	2b00      	cmp	r3, #0
 80030d8:	f000 8088 	beq.w	80031ec <follow_path.lto_priv.34+0x264>
 80030dc:	2b7f      	cmp	r3, #127	; 0x7f
 80030de:	d806      	bhi.n	80030ee <follow_path.lto_priv.34+0x166>
 80030e0:	484c      	ldr	r0, [pc, #304]	; (8003214 <follow_path.lto_priv.34+0x28c>)
 80030e2:	f810 1f01 	ldrb.w	r1, [r0, #1]!
 80030e6:	b111      	cbz	r1, 80030ee <follow_path.lto_priv.34+0x166>
 80030e8:	4299      	cmp	r1, r3
 80030ea:	d1fa      	bne.n	80030e2 <follow_path.lto_priv.34+0x15a>
 80030ec:	e07e      	b.n	80031ec <follow_path.lto_priv.34+0x264>
 80030ee:	f826 3f02 	strh.w	r3, [r6, #2]!
 80030f2:	4629      	mov	r1, r5
 80030f4:	e7db      	b.n	80030ae <follow_path.lto_priv.34+0x126>
 80030f6:	2b20      	cmp	r3, #32
 80030f8:	4415      	add	r5, r2
 80030fa:	bf34      	ite	cc
 80030fc:	2304      	movcc	r3, #4
 80030fe:	2300      	movcs	r3, #0
 8003100:	eb0e 0241 	add.w	r2, lr, r1, lsl #1
 8003104:	2900      	cmp	r1, #0
 8003106:	d071      	beq.n	80031ec <follow_path.lto_priv.34+0x264>
 8003108:	f832 0d02 	ldrh.w	r0, [r2, #-2]!
 800310c:	2820      	cmp	r0, #32
 800310e:	d001      	beq.n	8003114 <follow_path.lto_priv.34+0x18c>
 8003110:	282e      	cmp	r0, #46	; 0x2e
 8003112:	d101      	bne.n	8003118 <follow_path.lto_priv.34+0x190>
 8003114:	3901      	subs	r1, #1
 8003116:	e7f5      	b.n	8003104 <follow_path.lto_priv.34+0x17c>
 8003118:	2200      	movs	r2, #0
 800311a:	f82e 2011 	strh.w	r2, [lr, r1, lsl #1]
 800311e:	69a2      	ldr	r2, [r4, #24]
 8003120:	eb0e 0041 	add.w	r0, lr, r1, lsl #1
 8003124:	f102 060b 	add.w	r6, r2, #11
 8003128:	42b2      	cmp	r2, r6
 800312a:	f43f af43 	beq.w	8002fb4 <follow_path.lto_priv.34+0x2c>
 800312e:	2720      	movs	r7, #32
 8003130:	f802 7b01 	strb.w	r7, [r2], #1
 8003134:	e7f8      	b.n	8003128 <follow_path.lto_priv.34+0x1a0>
 8003136:	3201      	adds	r2, #1
 8003138:	e73d      	b.n	8002fb6 <follow_path.lto_priv.34+0x2e>
 800313a:	4588      	cmp	r8, r1
 800313c:	d059      	beq.n	80031f2 <follow_path.lto_priv.34+0x26a>
 800313e:	f043 0303 	orr.w	r3, r3, #3
 8003142:	4642      	mov	r2, r8
 8003144:	e74c      	b.n	8002fe0 <follow_path.lto_priv.34+0x58>
 8003146:	4588      	cmp	r8, r1
 8003148:	d10c      	bne.n	8003164 <follow_path.lto_priv.34+0x1dc>
 800314a:	e052      	b.n	80031f2 <follow_path.lto_priv.34+0x26a>
 800314c:	4588      	cmp	r8, r1
 800314e:	d002      	beq.n	8003156 <follow_path.lto_priv.34+0x1ce>
 8003150:	f043 0303 	orr.w	r3, r3, #3
 8003154:	d839      	bhi.n	80031ca <follow_path.lto_priv.34+0x242>
 8003156:	0082      	lsls	r2, r0, #2
 8003158:	b2d0      	uxtb	r0, r2
 800315a:	4688      	mov	r8, r1
 800315c:	260b      	movs	r6, #11
 800315e:	f04f 0c08 	mov.w	ip, #8
 8003162:	e7ee      	b.n	8003142 <follow_path.lto_priv.34+0x1ba>
 8003164:	2a7f      	cmp	r2, #127	; 0x7f
 8003166:	d919      	bls.n	800319c <follow_path.lto_priv.34+0x214>
 8003168:	2700      	movs	r7, #0
 800316a:	f8df a0a4 	ldr.w	sl, [pc, #164]	; 8003210 <follow_path.lto_priv.34+0x288>
 800316e:	fa1f f987 	uxth.w	r9, r7
 8003172:	f83a a017 	ldrh.w	sl, [sl, r7, lsl #1]
 8003176:	4592      	cmp	sl, r2
 8003178:	d003      	beq.n	8003182 <follow_path.lto_priv.34+0x1fa>
 800317a:	3701      	adds	r7, #1
 800317c:	2f80      	cmp	r7, #128	; 0x80
 800317e:	d1f4      	bne.n	800316a <follow_path.lto_priv.34+0x1e2>
 8003180:	46b9      	mov	r9, r7
 8003182:	f109 0280 	add.w	r2, r9, #128	; 0x80
 8003186:	f012 02ff 	ands.w	r2, r2, #255	; 0xff
 800318a:	bf18      	it	ne
 800318c:	4f22      	ldrne	r7, [pc, #136]	; (8003218 <follow_path.lto_priv.34+0x290>)
 800318e:	f043 0302 	orr.w	r3, r3, #2
 8003192:	bf1c      	itt	ne
 8003194:	19d2      	addne	r2, r2, r7
 8003196:	f812 2c80 	ldrbne.w	r2, [r2, #-128]
 800319a:	b132      	cbz	r2, 80031aa <follow_path.lto_priv.34+0x222>
 800319c:	f8df 907c 	ldr.w	r9, [pc, #124]	; 800321c <follow_path.lto_priv.34+0x294>
 80031a0:	f819 7f01 	ldrb.w	r7, [r9, #1]!
 80031a4:	b12f      	cbz	r7, 80031b2 <follow_path.lto_priv.34+0x22a>
 80031a6:	4297      	cmp	r7, r2
 80031a8:	d1fa      	bne.n	80031a0 <follow_path.lto_priv.34+0x218>
 80031aa:	f043 0303 	orr.w	r3, r3, #3
 80031ae:	225f      	movs	r2, #95	; 0x5f
 80031b0:	e005      	b.n	80031be <follow_path.lto_priv.34+0x236>
 80031b2:	f1a2 0741 	sub.w	r7, r2, #65	; 0x41
 80031b6:	2f19      	cmp	r7, #25
 80031b8:	d81e      	bhi.n	80031f8 <follow_path.lto_priv.34+0x270>
 80031ba:	f040 0002 	orr.w	r0, r0, #2
 80031be:	69a7      	ldr	r7, [r4, #24]
 80031c0:	f807 200c 	strb.w	r2, [r7, ip]
 80031c4:	f10c 0c01 	add.w	ip, ip, #1
 80031c8:	e7bb      	b.n	8003142 <follow_path.lto_priv.34+0x1ba>
 80031ca:	4602      	mov	r2, r0
 80031cc:	e71f      	b.n	800300e <follow_path.lto_priv.34+0x86>
 80031ce:	f043 0302 	orr.w	r3, r3, #2
 80031d2:	e730      	b.n	8003036 <follow_path.lto_priv.34+0xae>
 80031d4:	2804      	cmp	r0, #4
 80031d6:	d118      	bne.n	800320a <follow_path.lto_priv.34+0x282>
 80031d8:	f013 0f04 	tst.w	r3, #4
 80031dc:	bf14      	ite	ne
 80031de:	2004      	movne	r0, #4
 80031e0:	2005      	moveq	r0, #5
 80031e2:	e8bd 87f0 	ldmia.w	sp!, {r4, r5, r6, r7, r8, r9, sl, pc}
 80031e6:	2005      	movs	r0, #5
 80031e8:	e8bd 87f0 	ldmia.w	sp!, {r4, r5, r6, r7, r8, r9, sl, pc}
 80031ec:	2006      	movs	r0, #6
 80031ee:	e8bd 87f0 	ldmia.w	sp!, {r4, r5, r6, r7, r8, r9, sl, pc}
 80031f2:	2e0b      	cmp	r6, #11
 80031f4:	d1af      	bne.n	8003156 <follow_path.lto_priv.34+0x1ce>
 80031f6:	e706      	b.n	8003006 <follow_path.lto_priv.34+0x7e>
 80031f8:	f1a2 0761 	sub.w	r7, r2, #97	; 0x61
 80031fc:	2f19      	cmp	r7, #25
 80031fe:	bf9e      	ittt	ls
 8003200:	3a20      	subls	r2, #32
 8003202:	f040 0001 	orrls.w	r0, r0, #1
 8003206:	b292      	uxthls	r2, r2
 8003208:	e7d9      	b.n	80031be <follow_path.lto_priv.34+0x236>
 800320a:	e8bd 87f0 	ldmia.w	sp!, {r4, r5, r6, r7, r8, r9, sl, pc}
 800320e:	bf00      	nop
 8003210:	0800a64e 	stmdaeq	r0, {r1, r2, r3, r6, r9, sl, sp, pc}
 8003214:	0800ac1d 	stmdaeq	r0, {r0, r2, r3, r4, sl, fp, sp, pc}
 8003218:	0800a1dc 	stmdaeq	r0, {r2, r3, r4, r6, r7, r8, sp, pc}
 800321c:	0800ac26 	stmdaeq	r0, {r1, r2, r5, sl, fp, sp, pc}

08003220 <create_chain.lto_priv.48>:
 8003220:	b5f8      	push	{r3, r4, r5, r6, r7, lr}
 8003222:	4605      	mov	r5, r0
 8003224:	460f      	mov	r7, r1
 8003226:	b931      	cbnz	r1, 8003236 <create_chain.lto_priv.48+0x16>
 8003228:	68c6      	ldr	r6, [r0, #12]
 800322a:	b16e      	cbz	r6, 8003248 <create_chain.lto_priv.48+0x28>
 800322c:	6983      	ldr	r3, [r0, #24]
 800322e:	429e      	cmp	r6, r3
 8003230:	bf28      	it	cs
 8003232:	2601      	movcs	r6, #1
 8003234:	e009      	b.n	800324a <create_chain.lto_priv.48+0x2a>
 8003236:	f7ff fe00 	bl	8002e3a <get_fat>
 800323a:	2801      	cmp	r0, #1
 800323c:	d93c      	bls.n	80032b8 <create_chain.lto_priv.48+0x98>
 800323e:	69ab      	ldr	r3, [r5, #24]
 8003240:	4298      	cmp	r0, r3
 8003242:	d33a      	bcc.n	80032ba <create_chain.lto_priv.48+0x9a>
 8003244:	463e      	mov	r6, r7
 8003246:	e000      	b.n	800324a <create_chain.lto_priv.48+0x2a>
 8003248:	2601      	movs	r6, #1
 800324a:	4634      	mov	r4, r6
 800324c:	69ab      	ldr	r3, [r5, #24]
 800324e:	3401      	adds	r4, #1
 8003250:	429c      	cmp	r4, r3
 8003252:	d304      	bcc.n	800325e <create_chain.lto_priv.48+0x3e>
 8003254:	2e01      	cmp	r6, #1
 8003256:	d801      	bhi.n	800325c <create_chain.lto_priv.48+0x3c>
 8003258:	2000      	movs	r0, #0
 800325a:	bdf8      	pop	{r3, r4, r5, r6, r7, pc}
 800325c:	2402      	movs	r4, #2
 800325e:	4628      	mov	r0, r5
 8003260:	4621      	mov	r1, r4
 8003262:	f7ff fdea 	bl	8002e3a <get_fat>
 8003266:	b130      	cbz	r0, 8003276 <create_chain.lto_priv.48+0x56>
 8003268:	1c41      	adds	r1, r0, #1
 800326a:	d026      	beq.n	80032ba <create_chain.lto_priv.48+0x9a>
 800326c:	2801      	cmp	r0, #1
 800326e:	d024      	beq.n	80032ba <create_chain.lto_priv.48+0x9a>
 8003270:	42b4      	cmp	r4, r6
 8003272:	d1eb      	bne.n	800324c <create_chain.lto_priv.48+0x2c>
 8003274:	e7f0      	b.n	8003258 <create_chain.lto_priv.48+0x38>
 8003276:	4628      	mov	r0, r5
 8003278:	4621      	mov	r1, r4
 800327a:	f06f 4270 	mvn.w	r2, #4026531840	; 0xf0000000
 800327e:	f7ff fd63 	bl	8002d48 <put_fat>
 8003282:	b998      	cbnz	r0, 80032ac <create_chain.lto_priv.48+0x8c>
 8003284:	b947      	cbnz	r7, 8003298 <create_chain.lto_priv.48+0x78>
 8003286:	692b      	ldr	r3, [r5, #16]
 8003288:	60ec      	str	r4, [r5, #12]
 800328a:	1c5a      	adds	r2, r3, #1
 800328c:	d00c      	beq.n	80032a8 <create_chain.lto_priv.48+0x88>
 800328e:	3b01      	subs	r3, #1
 8003290:	612b      	str	r3, [r5, #16]
 8003292:	2301      	movs	r3, #1
 8003294:	716b      	strb	r3, [r5, #5]
 8003296:	e007      	b.n	80032a8 <create_chain.lto_priv.48+0x88>
 8003298:	4628      	mov	r0, r5
 800329a:	4639      	mov	r1, r7
 800329c:	4622      	mov	r2, r4
 800329e:	f7ff fd53 	bl	8002d48 <put_fat>
 80032a2:	2800      	cmp	r0, #0
 80032a4:	d0ef      	beq.n	8003286 <create_chain.lto_priv.48+0x66>
 80032a6:	e001      	b.n	80032ac <create_chain.lto_priv.48+0x8c>
 80032a8:	4620      	mov	r0, r4
 80032aa:	bdf8      	pop	{r3, r4, r5, r6, r7, pc}
 80032ac:	2801      	cmp	r0, #1
 80032ae:	bf0c      	ite	eq
 80032b0:	f04f 30ff 	moveq.w	r0, #4294967295
 80032b4:	2001      	movne	r0, #1
 80032b6:	bdf8      	pop	{r3, r4, r5, r6, r7, pc}
 80032b8:	2001      	movs	r0, #1
 80032ba:	bdf8      	pop	{r3, r4, r5, r6, r7, pc}

080032bc <dir_next.lto_priv.44>:
 80032bc:	e92d 43f8 	stmdb	sp!, {r3, r4, r5, r6, r7, r8, r9, lr}
 80032c0:	88c5      	ldrh	r5, [r0, #6]
 80032c2:	4604      	mov	r4, r0
 80032c4:	3501      	adds	r5, #1
 80032c6:	b2ad      	uxth	r5, r5
 80032c8:	4689      	mov	r9, r1
 80032ca:	b915      	cbnz	r5, 80032d2 <dir_next.lto_priv.44+0x16>
 80032cc:	2004      	movs	r0, #4
 80032ce:	e8bd 83f8 	ldmia.w	sp!, {r3, r4, r5, r6, r7, r8, r9, pc}
 80032d2:	6903      	ldr	r3, [r0, #16]
 80032d4:	2b00      	cmp	r3, #0
 80032d6:	d0f9      	beq.n	80032cc <dir_next.lto_priv.44+0x10>
 80032d8:	f015 080f 	ands.w	r8, r5, #15
 80032dc:	d160      	bne.n	80033a0 <dir_next.lto_priv.44+0xe4>
 80032de:	68c1      	ldr	r1, [r0, #12]
 80032e0:	3301      	adds	r3, #1
 80032e2:	6103      	str	r3, [r0, #16]
 80032e4:	6800      	ldr	r0, [r0, #0]
 80032e6:	b919      	cbnz	r1, 80032f0 <dir_next.lto_priv.44+0x34>
 80032e8:	8903      	ldrh	r3, [r0, #8]
 80032ea:	42ab      	cmp	r3, r5
 80032ec:	d9ee      	bls.n	80032cc <dir_next.lto_priv.44+0x10>
 80032ee:	e057      	b.n	80033a0 <dir_next.lto_priv.44+0xe4>
 80032f0:	7887      	ldrb	r7, [r0, #2]
 80032f2:	3f01      	subs	r7, #1
 80032f4:	ea17 1715 	ands.w	r7, r7, r5, lsr #4
 80032f8:	d152      	bne.n	80033a0 <dir_next.lto_priv.44+0xe4>
 80032fa:	f7ff fd9e 	bl	8002e3a <get_fat>
 80032fe:	2801      	cmp	r0, #1
 8003300:	4606      	mov	r6, r0
 8003302:	d802      	bhi.n	800330a <dir_next.lto_priv.44+0x4e>
 8003304:	2002      	movs	r0, #2
 8003306:	e8bd 83f8 	ldmia.w	sp!, {r3, r4, r5, r6, r7, r8, r9, pc}
 800330a:	1c42      	adds	r2, r0, #1
 800330c:	d102      	bne.n	8003314 <dir_next.lto_priv.44+0x58>
 800330e:	2001      	movs	r0, #1
 8003310:	e8bd 83f8 	ldmia.w	sp!, {r3, r4, r5, r6, r7, r8, r9, pc}
 8003314:	6820      	ldr	r0, [r4, #0]
 8003316:	6983      	ldr	r3, [r0, #24]
 8003318:	429e      	cmp	r6, r3
 800331a:	d33b      	bcc.n	8003394 <dir_next.lto_priv.44+0xd8>
 800331c:	f1b9 0f00 	cmp.w	r9, #0
 8003320:	d0d4      	beq.n	80032cc <dir_next.lto_priv.44+0x10>
 8003322:	68e1      	ldr	r1, [r4, #12]
 8003324:	f7ff ff7c 	bl	8003220 <create_chain.lto_priv.48>
 8003328:	4606      	mov	r6, r0
 800332a:	2800      	cmp	r0, #0
 800332c:	d043      	beq.n	80033b6 <dir_next.lto_priv.44+0xfa>
 800332e:	2801      	cmp	r0, #1
 8003330:	d0e8      	beq.n	8003304 <dir_next.lto_priv.44+0x48>
 8003332:	1c43      	adds	r3, r0, #1
 8003334:	d0eb      	beq.n	800330e <dir_next.lto_priv.44+0x52>
 8003336:	6820      	ldr	r0, [r4, #0]
 8003338:	2100      	movs	r1, #0
 800333a:	f7ff fcca 	bl	8002cd2 <move_window.lto_priv.43>
 800333e:	2800      	cmp	r0, #0
 8003340:	d1e5      	bne.n	800330e <dir_next.lto_priv.44+0x52>
 8003342:	6823      	ldr	r3, [r4, #0]
 8003344:	f103 0230 	add.w	r2, r3, #48	; 0x30
 8003348:	f503 730c 	add.w	r3, r3, #560	; 0x230
 800334c:	429a      	cmp	r2, r3
 800334e:	d003      	beq.n	8003358 <dir_next.lto_priv.44+0x9c>
 8003350:	2100      	movs	r1, #0
 8003352:	f802 1b01 	strb.w	r1, [r2], #1
 8003356:	e7f9      	b.n	800334c <dir_next.lto_priv.44+0x90>
 8003358:	f8d4 9000 	ldr.w	r9, [r4]
 800335c:	4631      	mov	r1, r6
 800335e:	4648      	mov	r0, r9
 8003360:	f7ff fcac 	bl	8002cbc <clust2sect>
 8003364:	f8c9 002c 	str.w	r0, [r9, #44]	; 0x2c
 8003368:	6823      	ldr	r3, [r4, #0]
 800336a:	b2f9      	uxtb	r1, r7
 800336c:	789a      	ldrb	r2, [r3, #2]
 800336e:	428a      	cmp	r2, r1
 8003370:	d90d      	bls.n	800338e <dir_next.lto_priv.44+0xd2>
 8003372:	2201      	movs	r2, #1
 8003374:	711a      	strb	r2, [r3, #4]
 8003376:	6820      	ldr	r0, [r4, #0]
 8003378:	2100      	movs	r1, #0
 800337a:	f7ff fcaa 	bl	8002cd2 <move_window.lto_priv.43>
 800337e:	3701      	adds	r7, #1
 8003380:	2800      	cmp	r0, #0
 8003382:	d1c4      	bne.n	800330e <dir_next.lto_priv.44+0x52>
 8003384:	6822      	ldr	r2, [r4, #0]
 8003386:	6ad3      	ldr	r3, [r2, #44]	; 0x2c
 8003388:	3301      	adds	r3, #1
 800338a:	62d3      	str	r3, [r2, #44]	; 0x2c
 800338c:	e7ec      	b.n	8003368 <dir_next.lto_priv.44+0xac>
 800338e:	6ada      	ldr	r2, [r3, #44]	; 0x2c
 8003390:	1a52      	subs	r2, r2, r1
 8003392:	62da      	str	r2, [r3, #44]	; 0x2c
 8003394:	60e6      	str	r6, [r4, #12]
 8003396:	6820      	ldr	r0, [r4, #0]
 8003398:	4631      	mov	r1, r6
 800339a:	f7ff fc8f 	bl	8002cbc <clust2sect>
 800339e:	6120      	str	r0, [r4, #16]
 80033a0:	6823      	ldr	r3, [r4, #0]
 80033a2:	ea4f 1848 	mov.w	r8, r8, lsl #5
 80033a6:	f108 0830 	add.w	r8, r8, #48	; 0x30
 80033aa:	4443      	add	r3, r8
 80033ac:	80e5      	strh	r5, [r4, #6]
 80033ae:	6163      	str	r3, [r4, #20]
 80033b0:	2000      	movs	r0, #0
 80033b2:	e8bd 83f8 	ldmia.w	sp!, {r3, r4, r5, r6, r7, r8, r9, pc}
 80033b6:	2007      	movs	r0, #7
 80033b8:	e8bd 83f8 	ldmia.w	sp!, {r3, r4, r5, r6, r7, r8, r9, pc}

080033bc <remove_chain.lto_priv.47>:
 80033bc:	2901      	cmp	r1, #1
 80033be:	b570      	push	{r4, r5, r6, lr}
 80033c0:	4604      	mov	r4, r0
 80033c2:	460d      	mov	r5, r1
 80033c4:	d801      	bhi.n	80033ca <remove_chain.lto_priv.47+0xe>
 80033c6:	2002      	movs	r0, #2
 80033c8:	bd70      	pop	{r4, r5, r6, pc}
 80033ca:	6983      	ldr	r3, [r0, #24]
 80033cc:	4299      	cmp	r1, r3
 80033ce:	d2fa      	bcs.n	80033c6 <remove_chain.lto_priv.47+0xa>
 80033d0:	69a3      	ldr	r3, [r4, #24]
 80033d2:	429d      	cmp	r5, r3
 80033d4:	d205      	bcs.n	80033e2 <remove_chain.lto_priv.47+0x26>
 80033d6:	4620      	mov	r0, r4
 80033d8:	4629      	mov	r1, r5
 80033da:	f7ff fd2e 	bl	8002e3a <get_fat>
 80033de:	4606      	mov	r6, r0
 80033e0:	b908      	cbnz	r0, 80033e6 <remove_chain.lto_priv.47+0x2a>
 80033e2:	2000      	movs	r0, #0
 80033e4:	bd70      	pop	{r4, r5, r6, pc}
 80033e6:	2801      	cmp	r0, #1
 80033e8:	d0ed      	beq.n	80033c6 <remove_chain.lto_priv.47+0xa>
 80033ea:	1c41      	adds	r1, r0, #1
 80033ec:	d00e      	beq.n	800340c <remove_chain.lto_priv.47+0x50>
 80033ee:	4620      	mov	r0, r4
 80033f0:	4629      	mov	r1, r5
 80033f2:	2200      	movs	r2, #0
 80033f4:	f7ff fca8 	bl	8002d48 <put_fat>
 80033f8:	b948      	cbnz	r0, 800340e <remove_chain.lto_priv.47+0x52>
 80033fa:	6923      	ldr	r3, [r4, #16]
 80033fc:	4635      	mov	r5, r6
 80033fe:	1c5a      	adds	r2, r3, #1
 8003400:	bf1f      	itttt	ne
 8003402:	3301      	addne	r3, #1
 8003404:	6123      	strne	r3, [r4, #16]
 8003406:	2301      	movne	r3, #1
 8003408:	7163      	strbne	r3, [r4, #5]
 800340a:	e7e1      	b.n	80033d0 <remove_chain.lto_priv.47+0x14>
 800340c:	2001      	movs	r0, #1
 800340e:	bd70      	pop	{r4, r5, r6, pc}

08003410 <mem_cpy.lto_priv.32>:
 8003410:	3801      	subs	r0, #1
 8003412:	440a      	add	r2, r1
 8003414:	4291      	cmp	r1, r2
 8003416:	d004      	beq.n	8003422 <mem_cpy.lto_priv.32+0x12>
 8003418:	f811 3b01 	ldrb.w	r3, [r1], #1
 800341c:	f800 3f01 	strb.w	r3, [r0, #1]!
 8003420:	e7f8      	b.n	8003414 <mem_cpy.lto_priv.32+0x4>
 8003422:	4770      	bx	lr

08003424 <get_fattime>:
 8003424:	b51f      	push	{r0, r1, r2, r3, r4, lr}
 8003426:	a801      	add	r0, sp, #4
 8003428:	f001 fd00 	bl	8004e2c <rtc_gettime>
 800342c:	f89d 3006 	ldrb.w	r3, [sp, #6]
 8003430:	f89d 2007 	ldrb.w	r2, [sp, #7]
 8003434:	055b      	lsls	r3, r3, #21
 8003436:	ea43 4302 	orr.w	r3, r3, r2, lsl #16
 800343a:	f89d 200b 	ldrb.w	r2, [sp, #11]
 800343e:	f89d 0009 	ldrb.w	r0, [sp, #9]
 8003442:	ea43 0252 	orr.w	r2, r3, r2, lsr #1
 8003446:	f8bd 3004 	ldrh.w	r3, [sp, #4]
 800344a:	02c0      	lsls	r0, r0, #11
 800344c:	f2a3 73bc 	subw	r3, r3, #1980	; 0x7bc
 8003450:	ea42 6343 	orr.w	r3, r2, r3, lsl #25
 8003454:	b280      	uxth	r0, r0
 8003456:	4303      	orrs	r3, r0
 8003458:	f89d 000a 	ldrb.w	r0, [sp, #10]
 800345c:	ea43 1040 	orr.w	r0, r3, r0, lsl #5
 8003460:	b005      	add	sp, #20
 8003462:	f85d fb04 	ldr.w	pc, [sp], #4

08003466 <Delay>:
 8003466:	b082      	sub	sp, #8
 8003468:	9001      	str	r0, [sp, #4]
 800346a:	9b01      	ldr	r3, [sp, #4]
 800346c:	005b      	lsls	r3, r3, #1
 800346e:	9301      	str	r3, [sp, #4]
 8003470:	9b01      	ldr	r3, [sp, #4]
 8003472:	b113      	cbz	r3, 800347a <Delay+0x14>
 8003474:	9b01      	ldr	r3, [sp, #4]
 8003476:	3b01      	subs	r3, #1
 8003478:	e7f9      	b.n	800346e <Delay+0x8>
 800347a:	b002      	add	sp, #8
 800347c:	4770      	bx	lr
	...

08003480 <Transfer_Data_Request>:
 8003480:	4603      	mov	r3, r0
 8003482:	b510      	push	{r4, lr}
 8003484:	460c      	mov	r4, r1
 8003486:	2081      	movs	r0, #129	; 0x81
 8003488:	4619      	mov	r1, r3
 800348a:	4622      	mov	r2, r4
 800348c:	f006 fdac 	bl	8009fe8 <USB_SIL_Write>
 8003490:	2130      	movs	r1, #48	; 0x30
 8003492:	2001      	movs	r0, #1
 8003494:	f006 fc98 	bl	8009dc8 <SetEPTxStatus>
 8003498:	4b04      	ldr	r3, [pc, #16]	; (80034ac <Transfer_Data_Request+0x2c>)
 800349a:	2203      	movs	r2, #3
 800349c:	701a      	strb	r2, [r3, #0]
 800349e:	4b04      	ldr	r3, [pc, #16]	; (80034b0 <Transfer_Data_Request+0x30>)
 80034a0:	2200      	movs	r2, #0
 80034a2:	6899      	ldr	r1, [r3, #8]
 80034a4:	731a      	strb	r2, [r3, #12]
 80034a6:	1b09      	subs	r1, r1, r4
 80034a8:	6099      	str	r1, [r3, #8]
 80034aa:	bd10      	pop	{r4, pc}
 80034ac:	200017d4 	ldrdcs	r1, [r0], -r4
 80034b0:	2000182c 	andcs	r1, r0, ip, lsr #16

080034b4 <MAL_GetStatus>:
 80034b4:	b530      	push	{r4, r5, lr}
 80034b6:	b085      	sub	sp, #20
 80034b8:	b108      	cbz	r0, 80034be <MAL_GetStatus+0xa>
 80034ba:	2001      	movs	r0, #1
 80034bc:	e051      	b.n	8003562 <MAL_GetStatus+0xae>
 80034be:	4b2a      	ldr	r3, [pc, #168]	; (8003568 <MAL_GetStatus+0xb4>)
 80034c0:	781b      	ldrb	r3, [r3, #0]
 80034c2:	2b00      	cmp	r3, #0
 80034c4:	d1fb      	bne.n	80034be <MAL_GetStatus+0xa>
 80034c6:	4b29      	ldr	r3, [pc, #164]	; (800356c <MAL_GetStatus+0xb8>)
 80034c8:	7819      	ldrb	r1, [r3, #0]
 80034ca:	f011 0101 	ands.w	r1, r1, #1
 80034ce:	d1f4      	bne.n	80034ba <MAL_GetStatus+0x6>
 80034d0:	2049      	movs	r0, #73	; 0x49
 80034d2:	f001 fa3f 	bl	8004954 <send_cmd.lto_priv.56>
 80034d6:	4604      	mov	r4, r0
 80034d8:	b108      	cbz	r0, 80034de <MAL_GetStatus+0x2a>
 80034da:	2401      	movs	r4, #1
 80034dc:	e033      	b.n	8003546 <MAL_GetStatus+0x92>
 80034de:	4668      	mov	r0, sp
 80034e0:	2110      	movs	r1, #16
 80034e2:	f001 f9f1 	bl	80048c8 <rcvr_datablock>
 80034e6:	2800      	cmp	r0, #0
 80034e8:	d0f7      	beq.n	80034da <MAL_GetStatus+0x26>
 80034ea:	f89d 3000 	ldrb.w	r3, [sp]
 80034ee:	4820      	ldr	r0, [pc, #128]	; (8003570 <MAL_GetStatus+0xbc>)
 80034f0:	099b      	lsrs	r3, r3, #6
 80034f2:	2b01      	cmp	r3, #1
 80034f4:	f89d 5009 	ldrb.w	r5, [sp, #9]
 80034f8:	f89d 3008 	ldrb.w	r3, [sp, #8]
 80034fc:	d105      	bne.n	800350a <MAL_GetStatus+0x56>
 80034fe:	3501      	adds	r5, #1
 8003500:	eb05 2303 	add.w	r3, r5, r3, lsl #8
 8003504:	b29b      	uxth	r3, r3
 8003506:	029b      	lsls	r3, r3, #10
 8003508:	e01c      	b.n	8003544 <MAL_GetStatus+0x90>
 800350a:	f89d 1007 	ldrb.w	r1, [sp, #7]
 800350e:	0089      	lsls	r1, r1, #2
 8003510:	eb01 1393 	add.w	r3, r1, r3, lsr #6
 8003514:	1c5a      	adds	r2, r3, #1
 8003516:	f89d 3006 	ldrb.w	r3, [sp, #6]
 800351a:	f89d 1005 	ldrb.w	r1, [sp, #5]
 800351e:	f003 0303 	and.w	r3, r3, #3
 8003522:	eb02 2383 	add.w	r3, r2, r3, lsl #10
 8003526:	f89d 200a 	ldrb.w	r2, [sp, #10]
 800352a:	f001 010f 	and.w	r1, r1, #15
 800352e:	eb01 12d2 	add.w	r2, r1, r2, lsr #7
 8003532:	1c91      	adds	r1, r2, #2
 8003534:	f005 0203 	and.w	r2, r5, #3
 8003538:	eb01 0242 	add.w	r2, r1, r2, lsl #1
 800353c:	b2d2      	uxtb	r2, r2
 800353e:	b29b      	uxth	r3, r3
 8003540:	3a09      	subs	r2, #9
 8003542:	4093      	lsls	r3, r2
 8003544:	6003      	str	r3, [r0, #0]
 8003546:	f001 f9e9 	bl	800491c <release_spi>
 800354a:	2c00      	cmp	r4, #0
 800354c:	d1b5      	bne.n	80034ba <MAL_GetStatus+0x6>
 800354e:	4620      	mov	r0, r4
 8003550:	4b08      	ldr	r3, [pc, #32]	; (8003574 <MAL_GetStatus+0xc0>)
 8003552:	f44f 7200 	mov.w	r2, #512	; 0x200
 8003556:	601a      	str	r2, [r3, #0]
 8003558:	4b05      	ldr	r3, [pc, #20]	; (8003570 <MAL_GetStatus+0xbc>)
 800355a:	4a07      	ldr	r2, [pc, #28]	; (8003578 <MAL_GetStatus+0xc4>)
 800355c:	681b      	ldr	r3, [r3, #0]
 800355e:	025b      	lsls	r3, r3, #9
 8003560:	6013      	str	r3, [r2, #0]
 8003562:	b005      	add	sp, #20
 8003564:	bd30      	pop	{r4, r5, pc}
 8003566:	bf00      	nop
 8003568:	200010e0 	andcs	r1, r0, r0, ror #1
 800356c:	200000f0 	strdcs	r0, [r0], -r0	; <UNPREDICTABLE>
 8003570:	200017a4 	andcs	r1, r0, r4, lsr #15
 8003574:	200017cc 	andcs	r1, r0, ip, asr #15
 8003578:	200010bc 	strhcs	r1, [r0], -ip

0800357c <Bot_Abort.part.2.lto_priv.54>:
 800357c:	b508      	push	{r3, lr}
 800357e:	2001      	movs	r0, #1
 8003580:	2110      	movs	r1, #16
 8003582:	f006 fc21 	bl	8009dc8 <SetEPTxStatus>
 8003586:	e8bd 4008 	ldmia.w	sp!, {r3, lr}
 800358a:	2002      	movs	r0, #2
 800358c:	f44f 5180 	mov.w	r1, #4096	; 0x1000
 8003590:	f006 bc33 	b.w	8009dfa <SetEPRxStatus>

08003594 <Set_CSW>:
 8003594:	b510      	push	{r4, lr}
 8003596:	460c      	mov	r4, r1
 8003598:	490a      	ldr	r1, [pc, #40]	; (80035c4 <Set_CSW+0x30>)
 800359a:	4b0b      	ldr	r3, [pc, #44]	; (80035c8 <Set_CSW+0x34>)
 800359c:	7308      	strb	r0, [r1, #12]
 800359e:	220d      	movs	r2, #13
 80035a0:	2081      	movs	r0, #129	; 0x81
 80035a2:	600b      	str	r3, [r1, #0]
 80035a4:	f006 fd20 	bl	8009fe8 <USB_SIL_Write>
 80035a8:	4b08      	ldr	r3, [pc, #32]	; (80035cc <Set_CSW+0x38>)
 80035aa:	b914      	cbnz	r4, 80035b2 <Set_CSW+0x1e>
 80035ac:	2205      	movs	r2, #5
 80035ae:	701a      	strb	r2, [r3, #0]
 80035b0:	bd10      	pop	{r4, pc}
 80035b2:	2204      	movs	r2, #4
 80035b4:	701a      	strb	r2, [r3, #0]
 80035b6:	2001      	movs	r0, #1
 80035b8:	2130      	movs	r1, #48	; 0x30
 80035ba:	e8bd 4010 	ldmia.w	sp!, {r4, lr}
 80035be:	f006 bc03 	b.w	8009dc8 <SetEPTxStatus>
 80035c2:	bf00      	nop
 80035c4:	2000182c 	andcs	r1, r0, ip, lsr #16
 80035c8:	53425355 	movtpl	r5, #9045	; 0x2355
 80035cc:	200017d4 	ldrdcs	r1, [r0], -r4

080035d0 <EP2_OUT_Callback>:
 80035d0:	b570      	push	{r4, r5, r6, lr}
 80035d2:	4ca9      	ldr	r4, [pc, #676]	; (8003878 <EP2_OUT_Callback+0x2a8>)
 80035d4:	2002      	movs	r0, #2
 80035d6:	49a9      	ldr	r1, [pc, #676]	; (800387c <EP2_OUT_Callback+0x2ac>)
 80035d8:	7be5      	ldrb	r5, [r4, #15]
 80035da:	f006 fd19 	bl	800a010 <USB_SIL_Read>
 80035de:	4ba8      	ldr	r3, [pc, #672]	; (8003880 <EP2_OUT_Callback+0x2b0>)
 80035e0:	b280      	uxth	r0, r0
 80035e2:	8018      	strh	r0, [r3, #0]
 80035e4:	4ba7      	ldr	r3, [pc, #668]	; (8003884 <EP2_OUT_Callback+0x2b4>)
 80035e6:	4622      	mov	r2, r4
 80035e8:	781b      	ldrb	r3, [r3, #0]
 80035ea:	b11b      	cbz	r3, 80035f4 <EP2_OUT_Callback+0x24>
 80035ec:	2b01      	cmp	r3, #1
 80035ee:	f000 8126 	beq.w	800383e <EP2_OUT_Callback+0x26e>
 80035f2:	e134      	b.n	800385e <EP2_OUT_Callback+0x28e>
 80035f4:	4283      	cmp	r3, r0
 80035f6:	d204      	bcs.n	8003602 <EP2_OUT_Callback+0x32>
 80035f8:	49a0      	ldr	r1, [pc, #640]	; (800387c <EP2_OUT_Callback+0x2ac>)
 80035fa:	5c59      	ldrb	r1, [r3, r1]
 80035fc:	54d1      	strb	r1, [r2, r3]
 80035fe:	3301      	adds	r3, #1
 8003600:	e7f8      	b.n	80035f4 <EP2_OUT_Callback+0x24>
 8003602:	4ba1      	ldr	r3, [pc, #644]	; (8003888 <EP2_OUT_Callback+0x2b8>)
 8003604:	6851      	ldr	r1, [r2, #4]
 8003606:	6895      	ldr	r5, [r2, #8]
 8003608:	281f      	cmp	r0, #31
 800360a:	4c9b      	ldr	r4, [pc, #620]	; (8003878 <EP2_OUT_Callback+0x2a8>)
 800360c:	6059      	str	r1, [r3, #4]
 800360e:	609d      	str	r5, [r3, #8]
 8003610:	d00a      	beq.n	8003628 <EP2_OUT_Callback+0x58>
 8003612:	f7ff ffb3 	bl	800357c <Bot_Abort.part.2.lto_priv.54>
 8003616:	4b9d      	ldr	r3, [pc, #628]	; (800388c <EP2_OUT_Callback+0x2bc>)
 8003618:	2205      	movs	r2, #5
 800361a:	2100      	movs	r1, #0
 800361c:	709a      	strb	r2, [r3, #2]
 800361e:	221a      	movs	r2, #26
 8003620:	6021      	str	r1, [r4, #0]
 8003622:	731a      	strb	r2, [r3, #12]
 8003624:	2001      	movs	r0, #1
 8003626:	e123      	b.n	8003870 <EP2_OUT_Callback+0x2a0>
 8003628:	7be3      	ldrb	r3, [r4, #15]
 800362a:	f003 01fd 	and.w	r1, r3, #253	; 0xfd
 800362e:	2928      	cmp	r1, #40	; 0x28
 8003630:	d110      	bne.n	8003654 <EP2_OUT_Callback+0x84>
 8003632:	7ca1      	ldrb	r1, [r4, #18]
 8003634:	7c60      	ldrb	r0, [r4, #17]
 8003636:	0409      	lsls	r1, r1, #16
 8003638:	ea41 6100 	orr.w	r1, r1, r0, lsl #24
 800363c:	7d20      	ldrb	r0, [r4, #20]
 800363e:	4e94      	ldr	r6, [pc, #592]	; (8003890 <EP2_OUT_Callback+0x2c0>)
 8003640:	4301      	orrs	r1, r0
 8003642:	7ce0      	ldrb	r0, [r4, #19]
 8003644:	ea41 2100 	orr.w	r1, r1, r0, lsl #8
 8003648:	60b1      	str	r1, [r6, #8]
 800364a:	7da0      	ldrb	r0, [r4, #22]
 800364c:	7de1      	ldrb	r1, [r4, #23]
 800364e:	ea41 2100 	orr.w	r1, r1, r0, lsl #8
 8003652:	60f1      	str	r1, [r6, #12]
 8003654:	6814      	ldr	r4, [r2, #0]
 8003656:	488f      	ldr	r0, [pc, #572]	; (8003894 <EP2_OUT_Callback+0x2c4>)
 8003658:	4987      	ldr	r1, [pc, #540]	; (8003878 <EP2_OUT_Callback+0x2a8>)
 800365a:	4284      	cmp	r4, r0
 800365c:	f040 80e6 	bne.w	800382c <EP2_OUT_Callback+0x25c>
 8003660:	488d      	ldr	r0, [pc, #564]	; (8003898 <EP2_OUT_Callback+0x2c8>)
 8003662:	7b4c      	ldrb	r4, [r1, #13]
 8003664:	6800      	ldr	r0, [r0, #0]
 8003666:	4284      	cmp	r4, r0
 8003668:	f200 80ce 	bhi.w	8003808 <EP2_OUT_Callback+0x238>
 800366c:	7b88      	ldrb	r0, [r1, #14]
 800366e:	3801      	subs	r0, #1
 8003670:	280f      	cmp	r0, #15
 8003672:	f200 80c9 	bhi.w	8003808 <EP2_OUT_Callback+0x238>
 8003676:	2b25      	cmp	r3, #37	; 0x25
 8003678:	f000 8099 	beq.w	80037ae <EP2_OUT_Callback+0x1de>
 800367c:	d82a      	bhi.n	80036d4 <EP2_OUT_Callback+0x104>
 800367e:	2b12      	cmp	r3, #18
 8003680:	d052      	beq.n	8003728 <EP2_OUT_Callback+0x158>
 8003682:	d813      	bhi.n	80036ac <EP2_OUT_Callback+0xdc>
 8003684:	2b04      	cmp	r3, #4
 8003686:	f000 80c6 	beq.w	8003816 <EP2_OUT_Callback+0x246>
 800368a:	d80a      	bhi.n	80036a2 <EP2_OUT_Callback+0xd2>
 800368c:	2b00      	cmp	r3, #0
 800368e:	d07b      	beq.n	8003788 <EP2_OUT_Callback+0x1b8>
 8003690:	2b03      	cmp	r3, #3
 8003692:	f040 80cb 	bne.w	800382c <EP2_OUT_Callback+0x25c>
 8003696:	7cd1      	ldrb	r1, [r2, #19]
 8003698:	487c      	ldr	r0, [pc, #496]	; (800388c <EP2_OUT_Callback+0x2bc>)
 800369a:	2912      	cmp	r1, #18
 800369c:	bf28      	it	cs
 800369e:	2112      	movcs	r1, #18
 80036a0:	e06e      	b.n	8003780 <EP2_OUT_Callback+0x1b0>
 80036a2:	2b08      	cmp	r3, #8
 80036a4:	f000 80bd 	beq.w	8003822 <EP2_OUT_Callback+0x252>
 80036a8:	2b0a      	cmp	r3, #10
 80036aa:	e03b      	b.n	8003724 <EP2_OUT_Callback+0x154>
 80036ac:	2b1b      	cmp	r3, #27
 80036ae:	f000 80a0 	beq.w	80037f2 <EP2_OUT_Callback+0x222>
 80036b2:	d808      	bhi.n	80036c6 <EP2_OUT_Callback+0xf6>
 80036b4:	2b15      	cmp	r3, #21
 80036b6:	f000 80b4 	beq.w	8003822 <EP2_OUT_Callback+0x252>
 80036ba:	2b1a      	cmp	r3, #26
 80036bc:	f040 80b6 	bne.w	800382c <EP2_OUT_Callback+0x25c>
 80036c0:	4876      	ldr	r0, [pc, #472]	; (800389c <EP2_OUT_Callback+0x2cc>)
 80036c2:	2104      	movs	r1, #4
 80036c4:	e05c      	b.n	8003780 <EP2_OUT_Callback+0x1b0>
 80036c6:	2b1e      	cmp	r3, #30
 80036c8:	f000 8093 	beq.w	80037f2 <EP2_OUT_Callback+0x222>
 80036cc:	2b23      	cmp	r3, #35	; 0x23
 80036ce:	d03e      	beq.n	800374e <EP2_OUT_Callback+0x17e>
 80036d0:	2b1d      	cmp	r3, #29
 80036d2:	e027      	b.n	8003724 <EP2_OUT_Callback+0x154>
 80036d4:	2b88      	cmp	r3, #136	; 0x88
 80036d6:	f000 80a4 	beq.w	8003822 <EP2_OUT_Callback+0x252>
 80036da:	d814      	bhi.n	8003706 <EP2_OUT_Callback+0x136>
 80036dc:	2b2f      	cmp	r3, #47	; 0x2f
 80036de:	f000 8084 	beq.w	80037ea <EP2_OUT_Callback+0x21a>
 80036e2:	d808      	bhi.n	80036f6 <EP2_OUT_Callback+0x126>
 80036e4:	2b28      	cmp	r3, #40	; 0x28
 80036e6:	f000 8087 	beq.w	80037f8 <EP2_OUT_Callback+0x228>
 80036ea:	2b2a      	cmp	r3, #42	; 0x2a
 80036ec:	f040 809e 	bne.w	800382c <EP2_OUT_Callback+0x25c>
 80036f0:	4b67      	ldr	r3, [pc, #412]	; (8003890 <EP2_OUT_Callback+0x2c0>)
 80036f2:	4620      	mov	r0, r4
 80036f4:	e0a7      	b.n	8003846 <EP2_OUT_Callback+0x276>
 80036f6:	2b55      	cmp	r3, #85	; 0x55
 80036f8:	f000 8093 	beq.w	8003822 <EP2_OUT_Callback+0x252>
 80036fc:	2b5a      	cmp	r3, #90	; 0x5a
 80036fe:	f040 8095 	bne.w	800382c <EP2_OUT_Callback+0x25c>
 8003702:	4867      	ldr	r0, [pc, #412]	; (80038a0 <EP2_OUT_Callback+0x2d0>)
 8003704:	e06f      	b.n	80037e6 <EP2_OUT_Callback+0x216>
 8003706:	2b9e      	cmp	r3, #158	; 0x9e
 8003708:	f000 808b 	beq.w	8003822 <EP2_OUT_Callback+0x252>
 800370c:	d804      	bhi.n	8003718 <EP2_OUT_Callback+0x148>
 800370e:	2b8a      	cmp	r3, #138	; 0x8a
 8003710:	f000 8087 	beq.w	8003822 <EP2_OUT_Callback+0x252>
 8003714:	2b8f      	cmp	r3, #143	; 0x8f
 8003716:	e005      	b.n	8003724 <EP2_OUT_Callback+0x154>
 8003718:	2baa      	cmp	r3, #170	; 0xaa
 800371a:	f000 8082 	beq.w	8003822 <EP2_OUT_Callback+0x252>
 800371e:	2baf      	cmp	r3, #175	; 0xaf
 8003720:	d07f      	beq.n	8003822 <EP2_OUT_Callback+0x252>
 8003722:	2ba8      	cmp	r3, #168	; 0xa8
 8003724:	d07d      	beq.n	8003822 <EP2_OUT_Callback+0x252>
 8003726:	e081      	b.n	800382c <EP2_OUT_Callback+0x25c>
 8003728:	7c0b      	ldrb	r3, [r1, #16]
 800372a:	07d9      	lsls	r1, r3, #31
 800372c:	d40a      	bmi.n	8003744 <EP2_OUT_Callback+0x174>
 800372e:	4b5d      	ldr	r3, [pc, #372]	; (80038a4 <EP2_OUT_Callback+0x2d4>)
 8003730:	7cd1      	ldrb	r1, [r2, #19]
 8003732:	f103 0024 	add.w	r0, r3, #36	; 0x24
 8003736:	2c00      	cmp	r4, #0
 8003738:	bf08      	it	eq
 800373a:	4618      	moveq	r0, r3
 800373c:	2924      	cmp	r1, #36	; 0x24
 800373e:	d804      	bhi.n	800374a <EP2_OUT_Callback+0x17a>
 8003740:	b289      	uxth	r1, r1
 8003742:	e01d      	b.n	8003780 <EP2_OUT_Callback+0x1b0>
 8003744:	2105      	movs	r1, #5
 8003746:	4858      	ldr	r0, [pc, #352]	; (80038a8 <EP2_OUT_Callback+0x2d8>)
 8003748:	e01a      	b.n	8003780 <EP2_OUT_Callback+0x1b0>
 800374a:	2124      	movs	r1, #36	; 0x24
 800374c:	e018      	b.n	8003780 <EP2_OUT_Callback+0x1b0>
 800374e:	4620      	mov	r0, r4
 8003750:	f7ff feb0 	bl	80034b4 <MAL_GetStatus>
 8003754:	b9e0      	cbnz	r0, 8003790 <EP2_OUT_Callback+0x1c0>
 8003756:	4b55      	ldr	r3, [pc, #340]	; (80038ac <EP2_OUT_Callback+0x2dc>)
 8003758:	4852      	ldr	r0, [pc, #328]	; (80038a4 <EP2_OUT_Callback+0x2d4>)
 800375a:	f853 3024 	ldr.w	r3, [r3, r4, lsl #2]
 800375e:	3054      	adds	r0, #84	; 0x54
 8003760:	0e1a      	lsrs	r2, r3, #24
 8003762:	7102      	strb	r2, [r0, #4]
 8003764:	0c1a      	lsrs	r2, r3, #16
 8003766:	7142      	strb	r2, [r0, #5]
 8003768:	71c3      	strb	r3, [r0, #7]
 800376a:	0a1a      	lsrs	r2, r3, #8
 800376c:	4b50      	ldr	r3, [pc, #320]	; (80038b0 <EP2_OUT_Callback+0x2e0>)
 800376e:	7182      	strb	r2, [r0, #6]
 8003770:	f853 3024 	ldr.w	r3, [r3, r4, lsl #2]
 8003774:	210c      	movs	r1, #12
 8003776:	0c1a      	lsrs	r2, r3, #16
 8003778:	7242      	strb	r2, [r0, #9]
 800377a:	0a1a      	lsrs	r2, r3, #8
 800377c:	7282      	strb	r2, [r0, #10]
 800377e:	72c3      	strb	r3, [r0, #11]
 8003780:	e8bd 4070 	ldmia.w	sp!, {r4, r5, r6, lr}
 8003784:	f7ff be7c 	b.w	8003480 <Transfer_Data_Request>
 8003788:	4620      	mov	r0, r4
 800378a:	f7ff fe93 	bl	80034b4 <MAL_GetStatus>
 800378e:	b380      	cbz	r0, 80037f2 <EP2_OUT_Callback+0x222>
 8003790:	4b3e      	ldr	r3, [pc, #248]	; (800388c <EP2_OUT_Callback+0x2bc>)
 8003792:	2001      	movs	r0, #1
 8003794:	2202      	movs	r2, #2
 8003796:	4601      	mov	r1, r0
 8003798:	709a      	strb	r2, [r3, #2]
 800379a:	223a      	movs	r2, #58	; 0x3a
 800379c:	731a      	strb	r2, [r3, #12]
 800379e:	f7ff fef9 	bl	8003594 <Set_CSW>
 80037a2:	e8bd 4070 	ldmia.w	sp!, {r4, r5, r6, lr}
 80037a6:	2001      	movs	r0, #1
 80037a8:	2110      	movs	r1, #16
 80037aa:	f006 bb0d 	b.w	8009dc8 <SetEPTxStatus>
 80037ae:	4620      	mov	r0, r4
 80037b0:	f7ff fe80 	bl	80034b4 <MAL_GetStatus>
 80037b4:	2800      	cmp	r0, #0
 80037b6:	d1eb      	bne.n	8003790 <EP2_OUT_Callback+0x1c0>
 80037b8:	4b3c      	ldr	r3, [pc, #240]	; (80038ac <EP2_OUT_Callback+0x2dc>)
 80037ba:	4835      	ldr	r0, [pc, #212]	; (8003890 <EP2_OUT_Callback+0x2c0>)
 80037bc:	f853 3024 	ldr.w	r3, [r3, r4, lsl #2]
 80037c0:	3010      	adds	r0, #16
 80037c2:	3b01      	subs	r3, #1
 80037c4:	0e1a      	lsrs	r2, r3, #24
 80037c6:	7002      	strb	r2, [r0, #0]
 80037c8:	0c1a      	lsrs	r2, r3, #16
 80037ca:	7042      	strb	r2, [r0, #1]
 80037cc:	70c3      	strb	r3, [r0, #3]
 80037ce:	0a1a      	lsrs	r2, r3, #8
 80037d0:	4b37      	ldr	r3, [pc, #220]	; (80038b0 <EP2_OUT_Callback+0x2e0>)
 80037d2:	7082      	strb	r2, [r0, #2]
 80037d4:	f853 3024 	ldr.w	r3, [r3, r4, lsl #2]
 80037d8:	0e1a      	lsrs	r2, r3, #24
 80037da:	7102      	strb	r2, [r0, #4]
 80037dc:	0c1a      	lsrs	r2, r3, #16
 80037de:	7142      	strb	r2, [r0, #5]
 80037e0:	0a1a      	lsrs	r2, r3, #8
 80037e2:	7182      	strb	r2, [r0, #6]
 80037e4:	71c3      	strb	r3, [r0, #7]
 80037e6:	2108      	movs	r1, #8
 80037e8:	e7ca      	b.n	8003780 <EP2_OUT_Callback+0x1b0>
 80037ea:	b96d      	cbnz	r5, 8003808 <EP2_OUT_Callback+0x238>
 80037ec:	7c0b      	ldrb	r3, [r1, #16]
 80037ee:	075b      	lsls	r3, r3, #29
 80037f0:	d40a      	bmi.n	8003808 <EP2_OUT_Callback+0x238>
 80037f2:	2000      	movs	r0, #0
 80037f4:	2101      	movs	r1, #1
 80037f6:	e03b      	b.n	8003870 <EP2_OUT_Callback+0x2a0>
 80037f8:	4b25      	ldr	r3, [pc, #148]	; (8003890 <EP2_OUT_Callback+0x2c0>)
 80037fa:	4620      	mov	r0, r4
 80037fc:	e8bd 4070 	ldmia.w	sp!, {r4, r5, r6, lr}
 8003800:	6899      	ldr	r1, [r3, #8]
 8003802:	68da      	ldr	r2, [r3, #12]
 8003804:	f003 bf08 	b.w	8007618 <SCSI_Read10_Cmd>
 8003808:	f7ff feb8 	bl	800357c <Bot_Abort.part.2.lto_priv.54>
 800380c:	4b1f      	ldr	r3, [pc, #124]	; (800388c <EP2_OUT_Callback+0x2bc>)
 800380e:	2205      	movs	r2, #5
 8003810:	709a      	strb	r2, [r3, #2]
 8003812:	2224      	movs	r2, #36	; 0x24
 8003814:	e010      	b.n	8003838 <EP2_OUT_Callback+0x268>
 8003816:	4620      	mov	r0, r4
 8003818:	f7ff fe4c 	bl	80034b4 <MAL_GetStatus>
 800381c:	2800      	cmp	r0, #0
 800381e:	d1e8      	bne.n	80037f2 <EP2_OUT_Callback+0x222>
 8003820:	bd70      	pop	{r4, r5, r6, pc}
 8003822:	4620      	mov	r0, r4
 8003824:	e8bd 4070 	ldmia.w	sp!, {r4, r5, r6, lr}
 8003828:	f003 be36 	b.w	8007498 <SCSI_Invalid_Cmd>
 800382c:	f7ff fea6 	bl	800357c <Bot_Abort.part.2.lto_priv.54>
 8003830:	4b16      	ldr	r3, [pc, #88]	; (800388c <EP2_OUT_Callback+0x2bc>)
 8003832:	2205      	movs	r2, #5
 8003834:	709a      	strb	r2, [r3, #2]
 8003836:	2220      	movs	r2, #32
 8003838:	731a      	strb	r2, [r3, #12]
 800383a:	2001      	movs	r0, #1
 800383c:	e017      	b.n	800386e <EP2_OUT_Callback+0x29e>
 800383e:	2d2a      	cmp	r5, #42	; 0x2a
 8003840:	d107      	bne.n	8003852 <EP2_OUT_Callback+0x282>
 8003842:	4b13      	ldr	r3, [pc, #76]	; (8003890 <EP2_OUT_Callback+0x2c0>)
 8003844:	7b60      	ldrb	r0, [r4, #13]
 8003846:	6899      	ldr	r1, [r3, #8]
 8003848:	68da      	ldr	r2, [r3, #12]
 800384a:	e8bd 4070 	ldmia.w	sp!, {r4, r5, r6, lr}
 800384e:	f003 be41 	b.w	80074d4 <SCSI_Write10_Cmd>
 8003852:	2002      	movs	r0, #2
 8003854:	f44f 5180 	mov.w	r1, #4096	; 0x1000
 8003858:	f006 facf 	bl	8009dfa <SetEPRxStatus>
 800385c:	e001      	b.n	8003862 <EP2_OUT_Callback+0x292>
 800385e:	f7ff fe8d 	bl	800357c <Bot_Abort.part.2.lto_priv.54>
 8003862:	4b0a      	ldr	r3, [pc, #40]	; (800388c <EP2_OUT_Callback+0x2bc>)
 8003864:	2205      	movs	r2, #5
 8003866:	709a      	strb	r2, [r3, #2]
 8003868:	2224      	movs	r2, #36	; 0x24
 800386a:	731a      	strb	r2, [r3, #12]
 800386c:	2002      	movs	r0, #2
 800386e:	2100      	movs	r1, #0
 8003870:	e8bd 4070 	ldmia.w	sp!, {r4, r5, r6, lr}
 8003874:	f7ff be8e 	b.w	8003594 <Set_CSW>
 8003878:	200017ac 	andcs	r1, r0, ip, lsr #15
 800387c:	200017ec 	andcs	r1, r0, ip, ror #15
 8003880:	200017dc 	ldrdcs	r1, [r0], -ip
 8003884:	200017d4 	ldrdcs	r1, [r0], -r4
 8003888:	2000182c 	andcs	r1, r0, ip, lsr #16
 800388c:	200000f8 	strdcs	r0, [r0], -r8
 8003890:	200010bc 	strhcs	r1, [r0], -ip
 8003894:	43425355 	movtmi	r5, #9045	; 0x2355
 8003898:	20001860 	andcs	r1, r0, r0, ror #16
 800389c:	20000048 	andcs	r0, r0, r8, asr #32
 80038a0:	2000004c 	andcs	r0, r0, ip, asr #32
 80038a4:	20000000 	andcs	r0, r0, r0
 80038a8:	20001858 	andcs	r1, r0, r8, asr r8
 80038ac:	200017a4 	andcs	r1, r0, r4, lsr #15
 80038b0:	200017cc 	andcs	r1, r0, ip, asr #15

080038b4 <EP1_IN_Callback>:
 80038b4:	b508      	push	{r3, lr}
 80038b6:	4b12      	ldr	r3, [pc, #72]	; (8003900 <EP1_IN_Callback+0x4c>)
 80038b8:	781a      	ldrb	r2, [r3, #0]
 80038ba:	3a02      	subs	r2, #2
 80038bc:	2a03      	cmp	r2, #3
 80038be:	d81d      	bhi.n	80038fc <EP1_IN_Callback+0x48>
 80038c0:	e8df f002 	tbb	[pc, r2]
 80038c4:	02021105 	andeq	r1, r2, #1073741825	; 0x40000001
 80038c8:	2200      	movs	r2, #0
 80038ca:	701a      	strb	r2, [r3, #0]
 80038cc:	e00f      	b.n	80038ee <EP1_IN_Callback+0x3a>
 80038ce:	4a0d      	ldr	r2, [pc, #52]	; (8003904 <EP1_IN_Callback+0x50>)
 80038d0:	7bd3      	ldrb	r3, [r2, #15]
 80038d2:	2b28      	cmp	r3, #40	; 0x28
 80038d4:	d112      	bne.n	80038fc <EP1_IN_Callback+0x48>
 80038d6:	4b0c      	ldr	r3, [pc, #48]	; (8003908 <EP1_IN_Callback+0x54>)
 80038d8:	7b50      	ldrb	r0, [r2, #13]
 80038da:	6899      	ldr	r1, [r3, #8]
 80038dc:	68da      	ldr	r2, [r3, #12]
 80038de:	e8bd 4008 	ldmia.w	sp!, {r3, lr}
 80038e2:	f003 be99 	b.w	8007618 <SCSI_Read10_Cmd>
 80038e6:	2000      	movs	r0, #0
 80038e8:	2101      	movs	r1, #1
 80038ea:	f7ff fe53 	bl	8003594 <Set_CSW>
 80038ee:	e8bd 4008 	ldmia.w	sp!, {r3, lr}
 80038f2:	2002      	movs	r0, #2
 80038f4:	f44f 5140 	mov.w	r1, #12288	; 0x3000
 80038f8:	f006 ba7f 	b.w	8009dfa <SetEPRxStatus>
 80038fc:	bd08      	pop	{r3, pc}
 80038fe:	bf00      	nop
 8003900:	200017d4 	ldrdcs	r1, [r0], -r4
 8003904:	200017ac 	andcs	r1, r0, ip, lsr #15
 8003908:	200010bc 	strhcs	r1, [r0], -ip

0800390c <Read_Memory>:
 800390c:	e92d 43f8 	stmdb	sp!, {r3, r4, r5, r6, r7, r8, r9, lr}
 8003910:	4d42      	ldr	r5, [pc, #264]	; (8003a1c <Read_Memory+0x110>)
 8003912:	4607      	mov	r7, r0
 8003914:	782b      	ldrb	r3, [r5, #0]
 8003916:	468e      	mov	lr, r1
 8003918:	4616      	mov	r6, r2
 800391a:	4c41      	ldr	r4, [pc, #260]	; (8003a20 <Read_Memory+0x114>)
 800391c:	b9fb      	cbnz	r3, 800395e <Read_Memory+0x52>
 800391e:	4b41      	ldr	r3, [pc, #260]	; (8003a24 <Read_Memory+0x118>)
 8003920:	f8df c120 	ldr.w	ip, [pc, #288]	; 8003a44 <Read_Memory+0x138>
 8003924:	f853 2020 	ldr.w	r2, [r3, r0, lsl #2]
 8003928:	2101      	movs	r1, #1
 800392a:	fb06 f302 	mul.w	r3, r6, r2
 800392e:	7029      	strb	r1, [r5, #0]
 8003930:	f88c 1000 	strb.w	r1, [ip]
 8003934:	493c      	ldr	r1, [pc, #240]	; (8003a28 <Read_Memory+0x11c>)
 8003936:	61a3      	str	r3, [r4, #24]
 8003938:	6809      	ldr	r1, [r1, #0]
 800393a:	b948      	cbnz	r0, 8003950 <Read_Memory+0x44>
 800393c:	fb0e f202 	mul.w	r2, lr, r2
 8003940:	f3c3 2347 	ubfx	r3, r3, #9, #8
 8003944:	0a52      	lsrs	r2, r2, #9
 8003946:	f001 f8ad 	bl	8004aa4 <disk_read>
 800394a:	4b38      	ldr	r3, [pc, #224]	; (8003a2c <Read_Memory+0x120>)
 800394c:	6018      	str	r0, [r3, #0]
 800394e:	681b      	ldr	r3, [r3, #0]
 8003950:	2e01      	cmp	r6, #1
 8003952:	bf94      	ite	ls
 8003954:	2600      	movls	r6, #0
 8003956:	2601      	movhi	r6, #1
 8003958:	2300      	movs	r3, #0
 800395a:	7726      	strb	r6, [r4, #28]
 800395c:	6223      	str	r3, [r4, #32]
 800395e:	782b      	ldrb	r3, [r5, #0]
 8003960:	2b01      	cmp	r3, #1
 8003962:	d147      	bne.n	80039f4 <Read_Memory+0xe8>
 8003964:	4832      	ldr	r0, [pc, #200]	; (8003a30 <Read_Memory+0x124>)
 8003966:	f004 ffa2 	bl	80088ae <DMA_GetCurrDataCounter>
 800396a:	f8df 80b8 	ldr.w	r8, [pc, #184]	; 8003a24 <Read_Memory+0x118>
 800396e:	6a23      	ldr	r3, [r4, #32]
 8003970:	f06f 0240 	mvn.w	r2, #64	; 0x40
 8003974:	1ad2      	subs	r2, r2, r3
 8003976:	f858 3027 	ldr.w	r3, [r8, r7, lsl #2]
 800397a:	4e29      	ldr	r6, [pc, #164]	; (8003a20 <Read_Memory+0x114>)
 800397c:	4413      	add	r3, r2
 800397e:	4298      	cmp	r0, r3
 8003980:	d8f0      	bhi.n	8003964 <Read_Memory+0x58>
 8003982:	f8df 90a4 	ldr.w	r9, [pc, #164]	; 8003a28 <Read_Memory+0x11c>
 8003986:	6a33      	ldr	r3, [r6, #32]
 8003988:	f8d9 1000 	ldr.w	r1, [r9]
 800398c:	2240      	movs	r2, #64	; 0x40
 800398e:	4419      	add	r1, r3
 8003990:	2081      	movs	r0, #129	; 0x81
 8003992:	f006 fb29 	bl	8009fe8 <USB_SIL_Write>
 8003996:	6a33      	ldr	r3, [r6, #32]
 8003998:	f858 2027 	ldr.w	r2, [r8, r7, lsl #2]
 800399c:	3340      	adds	r3, #64	; 0x40
 800399e:	6233      	str	r3, [r6, #32]
 80039a0:	6a33      	ldr	r3, [r6, #32]
 80039a2:	429a      	cmp	r2, r3
 80039a4:	d117      	bne.n	80039d6 <Read_Memory+0xca>
 80039a6:	4822      	ldr	r0, [pc, #136]	; (8003a30 <Read_Memory+0x124>)
 80039a8:	2100      	movs	r1, #0
 80039aa:	f004 ff6f 	bl	800888c <DMA_Cmd>
 80039ae:	4821      	ldr	r0, [pc, #132]	; (8003a34 <Read_Memory+0x128>)
 80039b0:	2100      	movs	r1, #0
 80039b2:	f004 ff6b 	bl	800888c <DMA_Cmd>
 80039b6:	4820      	ldr	r0, [pc, #128]	; (8003a38 <Read_Memory+0x12c>)
 80039b8:	2103      	movs	r1, #3
 80039ba:	2200      	movs	r2, #0
 80039bc:	f005 fb03 	bl	8008fc6 <SPI_I2S_DMACmd>
 80039c0:	69b3      	ldr	r3, [r6, #24]
 80039c2:	2b40      	cmp	r3, #64	; 0x40
 80039c4:	d905      	bls.n	80039d2 <Read_Memory+0xc6>
 80039c6:	f8d9 0000 	ldr.w	r0, [r9]
 80039ca:	f44f 7100 	mov.w	r1, #512	; 0x200
 80039ce:	f000 ff7b 	bl	80048c8 <rcvr_datablock>
 80039d2:	2300      	movs	r3, #0
 80039d4:	6223      	str	r3, [r4, #32]
 80039d6:	2001      	movs	r0, #1
 80039d8:	2140      	movs	r1, #64	; 0x40
 80039da:	f006 fab1 	bl	8009f40 <SetEPTxCount>
 80039de:	2001      	movs	r0, #1
 80039e0:	2130      	movs	r1, #48	; 0x30
 80039e2:	f006 f9f1 	bl	8009dc8 <SetEPTxStatus>
 80039e6:	69a3      	ldr	r3, [r4, #24]
 80039e8:	4a14      	ldr	r2, [pc, #80]	; (8003a3c <Read_Memory+0x130>)
 80039ea:	3b40      	subs	r3, #64	; 0x40
 80039ec:	61a3      	str	r3, [r4, #24]
 80039ee:	6893      	ldr	r3, [r2, #8]
 80039f0:	3b40      	subs	r3, #64	; 0x40
 80039f2:	6093      	str	r3, [r2, #8]
 80039f4:	69a1      	ldr	r1, [r4, #24]
 80039f6:	4b0a      	ldr	r3, [pc, #40]	; (8003a20 <Read_Memory+0x114>)
 80039f8:	b971      	cbnz	r1, 8003a18 <Read_Memory+0x10c>
 80039fa:	6219      	str	r1, [r3, #32]
 80039fc:	4a10      	ldr	r2, [pc, #64]	; (8003a40 <Read_Memory+0x134>)
 80039fe:	7f1b      	ldrb	r3, [r3, #28]
 8003a00:	2003      	movs	r0, #3
 8003a02:	7010      	strb	r0, [r2, #0]
 8003a04:	7029      	strb	r1, [r5, #0]
 8003a06:	b113      	cbz	r3, 8003a0e <Read_Memory+0x102>
 8003a08:	204c      	movs	r0, #76	; 0x4c
 8003a0a:	f000 ffa3 	bl	8004954 <send_cmd.lto_priv.56>
 8003a0e:	f000 ff85 	bl	800491c <release_spi>
 8003a12:	4b0c      	ldr	r3, [pc, #48]	; (8003a44 <Read_Memory+0x138>)
 8003a14:	2200      	movs	r2, #0
 8003a16:	701a      	strb	r2, [r3, #0]
 8003a18:	e8bd 83f8 	ldmia.w	sp!, {r3, r4, r5, r6, r7, r8, r9, pc}
 8003a1c:	200017de 	ldrdcs	r1, [r0], -lr
 8003a20:	200010bc 	strhcs	r1, [r0], -ip
 8003a24:	200017cc 	andcs	r1, r0, ip, asr #15
 8003a28:	20000e08 	andcs	r0, r0, r8, lsl #28
 8003a2c:	20001854 	andcs	r1, r0, r4, asr r8
 8003a30:	40020044 	andmi	r0, r2, r4, asr #32
 8003a34:	40020058 	andmi	r0, r2, r8, asr r0
 8003a38:	40003800 	andmi	r3, r0, r0, lsl #16
 8003a3c:	2000182c 	andcs	r1, r0, ip, lsr #16
 8003a40:	200017d4 	ldrdcs	r1, [r0], -r4
 8003a44:	200010e0 	andcs	r1, r0, r0, ror #1

08003a48 <IntToUnicode.lto_priv.55>:
 8003a48:	b530      	push	{r4, r5, lr}
 8003a4a:	2400      	movs	r4, #0
 8003a4c:	b2e3      	uxtb	r3, r4
 8003a4e:	4293      	cmp	r3, r2
 8003a50:	d20d      	bcs.n	8003a6e <IntToUnicode.lto_priv.55+0x26>
 8003a52:	0f03      	lsrs	r3, r0, #28
 8003a54:	2b09      	cmp	r3, #9
 8003a56:	bf94      	ite	ls
 8003a58:	3330      	addls	r3, #48	; 0x30
 8003a5a:	3337      	addhi	r3, #55	; 0x37
 8003a5c:	f801 3014 	strb.w	r3, [r1, r4, lsl #1]
 8003a60:	2500      	movs	r5, #0
 8003a62:	eb01 0344 	add.w	r3, r1, r4, lsl #1
 8003a66:	0100      	lsls	r0, r0, #4
 8003a68:	705d      	strb	r5, [r3, #1]
 8003a6a:	3401      	adds	r4, #1
 8003a6c:	e7ee      	b.n	8003a4c <IntToUnicode.lto_priv.55+0x4>
 8003a6e:	bd30      	pop	{r4, r5, pc}

08003a70 <EXTI15_10_IRQHandler>:
 8003a70:	b507      	push	{r0, r1, r2, lr}
 8003a72:	f44f 6000 	mov.w	r0, #2048	; 0x800
 8003a76:	f004 ffa7 	bl	80089c8 <EXTI_GetITStatus>
 8003a7a:	b170      	cbz	r0, 8003a9a <EXTI15_10_IRQHandler+0x2a>
 8003a7c:	f44f 6000 	mov.w	r0, #2048	; 0x800
 8003a80:	f004 ffb0 	bl	80089e4 <EXTI_ClearITPendingBit>
 8003a84:	4b06      	ldr	r3, [pc, #24]	; (8003aa0 <EXTI15_10_IRQHandler+0x30>)
 8003a86:	781b      	ldrb	r3, [r3, #0]
 8003a88:	2b01      	cmp	r3, #1
 8003a8a:	d106      	bne.n	8003a9a <EXTI15_10_IRQHandler+0x2a>
 8003a8c:	2000      	movs	r0, #0
 8003a8e:	9000      	str	r0, [sp, #0]
 8003a90:	4601      	mov	r1, r0
 8003a92:	4602      	mov	r2, r0
 8003a94:	4603      	mov	r3, r0
 8003a96:	f002 febf 	bl	8006818 <si446x_spi_state_machine.constprop.28>
 8003a9a:	b003      	add	sp, #12
 8003a9c:	f85d fb04 	ldr.w	pc, [sp], #4
 8003aa0:	200012c8 	andcs	r1, r0, r8, asr #5

08003aa4 <DMA1_Channel2_IRQHandler>:
 8003aa4:	b507      	push	{r0, r1, r2, lr}
 8003aa6:	2020      	movs	r0, #32
 8003aa8:	f004 ff1c 	bl	80088e4 <DMA_GetITStatus>
 8003aac:	b148      	cbz	r0, 8003ac2 <DMA1_Channel2_IRQHandler+0x1e>
 8003aae:	2060      	movs	r0, #96	; 0x60
 8003ab0:	f004 ff0e 	bl	80088d0 <DMA_ClearFlag>
 8003ab4:	2000      	movs	r0, #0
 8003ab6:	9000      	str	r0, [sp, #0]
 8003ab8:	4601      	mov	r1, r0
 8003aba:	4602      	mov	r2, r0
 8003abc:	4603      	mov	r3, r0
 8003abe:	f002 feab 	bl	8006818 <si446x_spi_state_machine.constprop.28>
 8003ac2:	2010      	movs	r0, #16
 8003ac4:	b003      	add	sp, #12
 8003ac6:	f85d eb04 	ldr.w	lr, [sp], #4
 8003aca:	f004 bf19 	b.w	8008900 <DMA_ClearITPendingBit>

08003ace <DMA1_Channel3_IRQHandler>:
 8003ace:	b507      	push	{r0, r1, r2, lr}
 8003ad0:	f44f 7000 	mov.w	r0, #512	; 0x200
 8003ad4:	f004 ff06 	bl	80088e4 <DMA_GetITStatus>
 8003ad8:	b150      	cbz	r0, 8003af0 <DMA1_Channel3_IRQHandler+0x22>
 8003ada:	f44f 60c0 	mov.w	r0, #1536	; 0x600
 8003ade:	f004 fef7 	bl	80088d0 <DMA_ClearFlag>
 8003ae2:	2000      	movs	r0, #0
 8003ae4:	9000      	str	r0, [sp, #0]
 8003ae6:	4601      	mov	r1, r0
 8003ae8:	4602      	mov	r2, r0
 8003aea:	4603      	mov	r3, r0
 8003aec:	f002 fe94 	bl	8006818 <si446x_spi_state_machine.constprop.28>
 8003af0:	f44f 7080 	mov.w	r0, #256	; 0x100
 8003af4:	b003      	add	sp, #12
 8003af6:	f85d eb04 	ldr.w	lr, [sp], #4
 8003afa:	f004 bf01 	b.w	8008900 <DMA_ClearITPendingBit>

08003afe <f_truncate>:
 8003afe:	b570      	push	{r4, r5, r6, lr}
 8003b00:	4604      	mov	r4, r0
 8003b02:	6800      	ldr	r0, [r0, #0]
 8003b04:	88a1      	ldrh	r1, [r4, #4]
 8003b06:	f7fe ff45 	bl	8002994 <validate.lto_priv.31>
 8003b0a:	4605      	mov	r5, r0
 8003b0c:	2800      	cmp	r0, #0
 8003b0e:	d13a      	bne.n	8003b86 <f_truncate+0x88>
 8003b10:	79a3      	ldrb	r3, [r4, #6]
 8003b12:	0619      	lsls	r1, r3, #24
 8003b14:	d431      	bmi.n	8003b7a <f_truncate+0x7c>
 8003b16:	079a      	lsls	r2, r3, #30
 8003b18:	d531      	bpl.n	8003b7e <f_truncate+0x80>
 8003b1a:	68a6      	ldr	r6, [r4, #8]
 8003b1c:	68e2      	ldr	r2, [r4, #12]
 8003b1e:	42b2      	cmp	r2, r6
 8003b20:	d931      	bls.n	8003b86 <f_truncate+0x88>
 8003b22:	f043 0320 	orr.w	r3, r3, #32
 8003b26:	60e6      	str	r6, [r4, #12]
 8003b28:	71a3      	strb	r3, [r4, #6]
 8003b2a:	6820      	ldr	r0, [r4, #0]
 8003b2c:	b92e      	cbnz	r6, 8003b3a <f_truncate+0x3c>
 8003b2e:	6921      	ldr	r1, [r4, #16]
 8003b30:	f7ff fc44 	bl	80033bc <remove_chain.lto_priv.47>
 8003b34:	6126      	str	r6, [r4, #16]
 8003b36:	4605      	mov	r5, r0
 8003b38:	e019      	b.n	8003b6e <f_truncate+0x70>
 8003b3a:	6961      	ldr	r1, [r4, #20]
 8003b3c:	f7ff f97d 	bl	8002e3a <get_fat>
 8003b40:	1c43      	adds	r3, r0, #1
 8003b42:	4606      	mov	r6, r0
 8003b44:	d01d      	beq.n	8003b82 <f_truncate+0x84>
 8003b46:	2801      	cmp	r0, #1
 8003b48:	d101      	bne.n	8003b4e <f_truncate+0x50>
 8003b4a:	2502      	movs	r5, #2
 8003b4c:	e010      	b.n	8003b70 <f_truncate+0x72>
 8003b4e:	6820      	ldr	r0, [r4, #0]
 8003b50:	6983      	ldr	r3, [r0, #24]
 8003b52:	429e      	cmp	r6, r3
 8003b54:	d217      	bcs.n	8003b86 <f_truncate+0x88>
 8003b56:	6961      	ldr	r1, [r4, #20]
 8003b58:	f06f 4270 	mvn.w	r2, #4026531840	; 0xf0000000
 8003b5c:	f7ff f8f4 	bl	8002d48 <put_fat>
 8003b60:	4605      	mov	r5, r0
 8003b62:	b928      	cbnz	r0, 8003b70 <f_truncate+0x72>
 8003b64:	6820      	ldr	r0, [r4, #0]
 8003b66:	4631      	mov	r1, r6
 8003b68:	f7ff fc28 	bl	80033bc <remove_chain.lto_priv.47>
 8003b6c:	4605      	mov	r5, r0
 8003b6e:	b155      	cbz	r5, 8003b86 <f_truncate+0x88>
 8003b70:	79a3      	ldrb	r3, [r4, #6]
 8003b72:	f063 037f 	orn	r3, r3, #127	; 0x7f
 8003b76:	71a3      	strb	r3, [r4, #6]
 8003b78:	e005      	b.n	8003b86 <f_truncate+0x88>
 8003b7a:	2502      	movs	r5, #2
 8003b7c:	e003      	b.n	8003b86 <f_truncate+0x88>
 8003b7e:	2507      	movs	r5, #7
 8003b80:	e001      	b.n	8003b86 <f_truncate+0x88>
 8003b82:	2501      	movs	r5, #1
 8003b84:	e7f4      	b.n	8003b70 <f_truncate+0x72>
 8003b86:	4628      	mov	r0, r5
 8003b88:	bd70      	pop	{r4, r5, r6, pc}

08003b8a <f_lseek>:
 8003b8a:	b570      	push	{r4, r5, r6, lr}
 8003b8c:	4604      	mov	r4, r0
 8003b8e:	460d      	mov	r5, r1
 8003b90:	6800      	ldr	r0, [r0, #0]
 8003b92:	88a1      	ldrh	r1, [r4, #4]
 8003b94:	f7fe fefe 	bl	8002994 <validate.lto_priv.31>
 8003b98:	2800      	cmp	r0, #0
 8003b9a:	f040 8093 	bne.w	8003cc4 <f_lseek+0x13a>
 8003b9e:	79a2      	ldrb	r2, [r4, #6]
 8003ba0:	0616      	lsls	r6, r2, #24
 8003ba2:	f100 808c 	bmi.w	8003cbe <f_lseek+0x134>
 8003ba6:	68e3      	ldr	r3, [r4, #12]
 8003ba8:	429d      	cmp	r5, r3
 8003baa:	d903      	bls.n	8003bb4 <f_lseek+0x2a>
 8003bac:	f012 0f02 	tst.w	r2, #2
 8003bb0:	bf08      	it	eq
 8003bb2:	461d      	moveq	r5, r3
 8003bb4:	2200      	movs	r2, #0
 8003bb6:	68a3      	ldr	r3, [r4, #8]
 8003bb8:	60a2      	str	r2, [r4, #8]
 8003bba:	b90d      	cbnz	r5, 8003bc0 <f_lseek+0x36>
 8003bbc:	2500      	movs	r5, #0
 8003bbe:	e04d      	b.n	8003c5c <f_lseek+0xd2>
 8003bc0:	6820      	ldr	r0, [r4, #0]
 8003bc2:	7886      	ldrb	r6, [r0, #2]
 8003bc4:	0276      	lsls	r6, r6, #9
 8003bc6:	b16b      	cbz	r3, 8003be4 <f_lseek+0x5a>
 8003bc8:	3b01      	subs	r3, #1
 8003bca:	1e6a      	subs	r2, r5, #1
 8003bcc:	fbb2 f2f6 	udiv	r2, r2, r6
 8003bd0:	fbb3 f1f6 	udiv	r1, r3, r6
 8003bd4:	428a      	cmp	r2, r1
 8003bd6:	d305      	bcc.n	8003be4 <f_lseek+0x5a>
 8003bd8:	4272      	negs	r2, r6
 8003bda:	4013      	ands	r3, r2
 8003bdc:	60a3      	str	r3, [r4, #8]
 8003bde:	1aed      	subs	r5, r5, r3
 8003be0:	6961      	ldr	r1, [r4, #20]
 8003be2:	e00a      	b.n	8003bfa <f_lseek+0x70>
 8003be4:	6921      	ldr	r1, [r4, #16]
 8003be6:	b939      	cbnz	r1, 8003bf8 <f_lseek+0x6e>
 8003be8:	f7ff fb1a 	bl	8003220 <create_chain.lto_priv.48>
 8003bec:	2801      	cmp	r0, #1
 8003bee:	4601      	mov	r1, r0
 8003bf0:	d02d      	beq.n	8003c4e <f_lseek+0xc4>
 8003bf2:	3001      	adds	r0, #1
 8003bf4:	d052      	beq.n	8003c9c <f_lseek+0x112>
 8003bf6:	6121      	str	r1, [r4, #16]
 8003bf8:	6161      	str	r1, [r4, #20]
 8003bfa:	2900      	cmp	r1, #0
 8003bfc:	d0de      	beq.n	8003bbc <f_lseek+0x32>
 8003bfe:	42b5      	cmp	r5, r6
 8003c00:	d91a      	bls.n	8003c38 <f_lseek+0xae>
 8003c02:	79a3      	ldrb	r3, [r4, #6]
 8003c04:	6820      	ldr	r0, [r4, #0]
 8003c06:	079a      	lsls	r2, r3, #30
 8003c08:	d504      	bpl.n	8003c14 <f_lseek+0x8a>
 8003c0a:	f7ff fb09 	bl	8003220 <create_chain.lto_priv.48>
 8003c0e:	4601      	mov	r1, r0
 8003c10:	b918      	cbnz	r0, 8003c1a <f_lseek+0x90>
 8003c12:	e010      	b.n	8003c36 <f_lseek+0xac>
 8003c14:	f7ff f911 	bl	8002e3a <get_fat>
 8003c18:	4601      	mov	r1, r0
 8003c1a:	1c4b      	adds	r3, r1, #1
 8003c1c:	d03e      	beq.n	8003c9c <f_lseek+0x112>
 8003c1e:	2901      	cmp	r1, #1
 8003c20:	d915      	bls.n	8003c4e <f_lseek+0xc4>
 8003c22:	6823      	ldr	r3, [r4, #0]
 8003c24:	699b      	ldr	r3, [r3, #24]
 8003c26:	4299      	cmp	r1, r3
 8003c28:	d211      	bcs.n	8003c4e <f_lseek+0xc4>
 8003c2a:	68a3      	ldr	r3, [r4, #8]
 8003c2c:	6161      	str	r1, [r4, #20]
 8003c2e:	4433      	add	r3, r6
 8003c30:	60a3      	str	r3, [r4, #8]
 8003c32:	1bad      	subs	r5, r5, r6
 8003c34:	e7e3      	b.n	8003bfe <f_lseek+0x74>
 8003c36:	4635      	mov	r5, r6
 8003c38:	68a3      	ldr	r3, [r4, #8]
 8003c3a:	442b      	add	r3, r5
 8003c3c:	60a3      	str	r3, [r4, #8]
 8003c3e:	f3c5 0308 	ubfx	r3, r5, #0, #9
 8003c42:	2b00      	cmp	r3, #0
 8003c44:	d0ba      	beq.n	8003bbc <f_lseek+0x32>
 8003c46:	6820      	ldr	r0, [r4, #0]
 8003c48:	f7ff f838 	bl	8002cbc <clust2sect>
 8003c4c:	b920      	cbnz	r0, 8003c58 <f_lseek+0xce>
 8003c4e:	79a3      	ldrb	r3, [r4, #6]
 8003c50:	f063 037f 	orn	r3, r3, #127	; 0x7f
 8003c54:	71a3      	strb	r3, [r4, #6]
 8003c56:	e032      	b.n	8003cbe <f_lseek+0x134>
 8003c58:	eb00 2555 	add.w	r5, r0, r5, lsr #9
 8003c5c:	68a3      	ldr	r3, [r4, #8]
 8003c5e:	f3c3 0308 	ubfx	r3, r3, #0, #9
 8003c62:	b313      	cbz	r3, 8003caa <f_lseek+0x120>
 8003c64:	69a2      	ldr	r2, [r4, #24]
 8003c66:	4295      	cmp	r5, r2
 8003c68:	d01f      	beq.n	8003caa <f_lseek+0x120>
 8003c6a:	79a3      	ldrb	r3, [r4, #6]
 8003c6c:	f104 0624 	add.w	r6, r4, #36	; 0x24
 8003c70:	f013 0f40 	tst.w	r3, #64	; 0x40
 8003c74:	d00a      	beq.n	8003c8c <f_lseek+0x102>
 8003c76:	6823      	ldr	r3, [r4, #0]
 8003c78:	4631      	mov	r1, r6
 8003c7a:	7858      	ldrb	r0, [r3, #1]
 8003c7c:	2301      	movs	r3, #1
 8003c7e:	f000 feb1 	bl	80049e4 <disk_write>
 8003c82:	79a3      	ldrb	r3, [r4, #6]
 8003c84:	b958      	cbnz	r0, 8003c9e <f_lseek+0x114>
 8003c86:	f023 0340 	bic.w	r3, r3, #64	; 0x40
 8003c8a:	71a3      	strb	r3, [r4, #6]
 8003c8c:	6823      	ldr	r3, [r4, #0]
 8003c8e:	4631      	mov	r1, r6
 8003c90:	7858      	ldrb	r0, [r3, #1]
 8003c92:	462a      	mov	r2, r5
 8003c94:	2301      	movs	r3, #1
 8003c96:	f000 ff05 	bl	8004aa4 <disk_read>
 8003c9a:	b128      	cbz	r0, 8003ca8 <f_lseek+0x11e>
 8003c9c:	79a3      	ldrb	r3, [r4, #6]
 8003c9e:	f063 037f 	orn	r3, r3, #127	; 0x7f
 8003ca2:	71a3      	strb	r3, [r4, #6]
 8003ca4:	2001      	movs	r0, #1
 8003ca6:	bd70      	pop	{r4, r5, r6, pc}
 8003ca8:	61a5      	str	r5, [r4, #24]
 8003caa:	68a3      	ldr	r3, [r4, #8]
 8003cac:	68e2      	ldr	r2, [r4, #12]
 8003cae:	4293      	cmp	r3, r2
 8003cb0:	d907      	bls.n	8003cc2 <f_lseek+0x138>
 8003cb2:	60e3      	str	r3, [r4, #12]
 8003cb4:	79a3      	ldrb	r3, [r4, #6]
 8003cb6:	f043 0320 	orr.w	r3, r3, #32
 8003cba:	71a3      	strb	r3, [r4, #6]
 8003cbc:	e001      	b.n	8003cc2 <f_lseek+0x138>
 8003cbe:	2002      	movs	r0, #2
 8003cc0:	bd70      	pop	{r4, r5, r6, pc}
 8003cc2:	2000      	movs	r0, #0
 8003cc4:	bd70      	pop	{r4, r5, r6, pc}
	...

08003cc8 <f_sync>:
 8003cc8:	b570      	push	{r4, r5, r6, lr}
 8003cca:	4604      	mov	r4, r0
 8003ccc:	6800      	ldr	r0, [r0, #0]
 8003cce:	88a1      	ldrh	r1, [r4, #4]
 8003cd0:	f7fe fe60 	bl	8002994 <validate.lto_priv.31>
 8003cd4:	2800      	cmp	r0, #0
 8003cd6:	f040 80b6 	bne.w	8003e46 <f_sync+0x17e>
 8003cda:	79a3      	ldrb	r3, [r4, #6]
 8003cdc:	f003 0220 	and.w	r2, r3, #32
 8003ce0:	f002 00ff 	and.w	r0, r2, #255	; 0xff
 8003ce4:	2a00      	cmp	r2, #0
 8003ce6:	f000 80ae 	beq.w	8003e46 <f_sync+0x17e>
 8003cea:	065a      	lsls	r2, r3, #25
 8003cec:	d50e      	bpl.n	8003d0c <f_sync+0x44>
 8003cee:	4621      	mov	r1, r4
 8003cf0:	f851 3b24 	ldr.w	r3, [r1], #36
 8003cf4:	69a2      	ldr	r2, [r4, #24]
 8003cf6:	7858      	ldrb	r0, [r3, #1]
 8003cf8:	2301      	movs	r3, #1
 8003cfa:	f000 fe73 	bl	80049e4 <disk_write>
 8003cfe:	b108      	cbz	r0, 8003d04 <f_sync+0x3c>
 8003d00:	2001      	movs	r0, #1
 8003d02:	bd70      	pop	{r4, r5, r6, pc}
 8003d04:	79a3      	ldrb	r3, [r4, #6]
 8003d06:	f023 0340 	bic.w	r3, r3, #64	; 0x40
 8003d0a:	71a3      	strb	r3, [r4, #6]
 8003d0c:	6820      	ldr	r0, [r4, #0]
 8003d0e:	69e1      	ldr	r1, [r4, #28]
 8003d10:	f7fe ffdf 	bl	8002cd2 <move_window.lto_priv.43>
 8003d14:	4605      	mov	r5, r0
 8003d16:	2800      	cmp	r0, #0
 8003d18:	f040 8095 	bne.w	8003e46 <f_sync+0x17e>
 8003d1c:	6a26      	ldr	r6, [r4, #32]
 8003d1e:	7af3      	ldrb	r3, [r6, #11]
 8003d20:	f043 0320 	orr.w	r3, r3, #32
 8003d24:	72f3      	strb	r3, [r6, #11]
 8003d26:	68e3      	ldr	r3, [r4, #12]
 8003d28:	7733      	strb	r3, [r6, #28]
 8003d2a:	89a3      	ldrh	r3, [r4, #12]
 8003d2c:	0a1b      	lsrs	r3, r3, #8
 8003d2e:	7773      	strb	r3, [r6, #29]
 8003d30:	89e3      	ldrh	r3, [r4, #14]
 8003d32:	77b3      	strb	r3, [r6, #30]
 8003d34:	7be3      	ldrb	r3, [r4, #15]
 8003d36:	77f3      	strb	r3, [r6, #31]
 8003d38:	6923      	ldr	r3, [r4, #16]
 8003d3a:	76b3      	strb	r3, [r6, #26]
 8003d3c:	8a23      	ldrh	r3, [r4, #16]
 8003d3e:	0a1b      	lsrs	r3, r3, #8
 8003d40:	76f3      	strb	r3, [r6, #27]
 8003d42:	8a63      	ldrh	r3, [r4, #18]
 8003d44:	7533      	strb	r3, [r6, #20]
 8003d46:	8a63      	ldrh	r3, [r4, #18]
 8003d48:	0a1b      	lsrs	r3, r3, #8
 8003d4a:	7573      	strb	r3, [r6, #21]
 8003d4c:	f7ff fb6a 	bl	8003424 <get_fattime>
 8003d50:	f3c0 2307 	ubfx	r3, r0, #8, #8
 8003d54:	75b0      	strb	r0, [r6, #22]
 8003d56:	75f3      	strb	r3, [r6, #23]
 8003d58:	0c03      	lsrs	r3, r0, #16
 8003d5a:	0e00      	lsrs	r0, r0, #24
 8003d5c:	7670      	strb	r0, [r6, #25]
 8003d5e:	7633      	strb	r3, [r6, #24]
 8003d60:	79a3      	ldrb	r3, [r4, #6]
 8003d62:	2201      	movs	r2, #1
 8003d64:	f023 0320 	bic.w	r3, r3, #32
 8003d68:	71a3      	strb	r3, [r4, #6]
 8003d6a:	6823      	ldr	r3, [r4, #0]
 8003d6c:	4629      	mov	r1, r5
 8003d6e:	711a      	strb	r2, [r3, #4]
 8003d70:	6824      	ldr	r4, [r4, #0]
 8003d72:	4620      	mov	r0, r4
 8003d74:	f7fe ffad 	bl	8002cd2 <move_window.lto_priv.43>
 8003d78:	2800      	cmp	r0, #0
 8003d7a:	d164      	bne.n	8003e46 <f_sync+0x17e>
 8003d7c:	7823      	ldrb	r3, [r4, #0]
 8003d7e:	2b03      	cmp	r3, #3
 8003d80:	d149      	bne.n	8003e16 <f_sync+0x14e>
 8003d82:	7963      	ldrb	r3, [r4, #5]
 8003d84:	2b00      	cmp	r3, #0
 8003d86:	d046      	beq.n	8003e16 <f_sync+0x14e>
 8003d88:	f104 0130 	add.w	r1, r4, #48	; 0x30
 8003d8c:	460b      	mov	r3, r1
 8003d8e:	62e0      	str	r0, [r4, #44]	; 0x2c
 8003d90:	f504 720c 	add.w	r2, r4, #560	; 0x230
 8003d94:	4293      	cmp	r3, r2
 8003d96:	d003      	beq.n	8003da0 <f_sync+0xd8>
 8003d98:	2000      	movs	r0, #0
 8003d9a:	f803 0b01 	strb.w	r0, [r3], #1
 8003d9e:	e7f9      	b.n	8003d94 <f_sync+0xcc>
 8003da0:	2355      	movs	r3, #85	; 0x55
 8003da2:	f884 322e 	strb.w	r3, [r4, #558]	; 0x22e
 8003da6:	23aa      	movs	r3, #170	; 0xaa
 8003da8:	f884 322f 	strb.w	r3, [r4, #559]	; 0x22f
 8003dac:	2352      	movs	r3, #82	; 0x52
 8003dae:	f884 3030 	strb.w	r3, [r4, #48]	; 0x30
 8003db2:	f884 3031 	strb.w	r3, [r4, #49]	; 0x31
 8003db6:	2361      	movs	r3, #97	; 0x61
 8003db8:	f884 3032 	strb.w	r3, [r4, #50]	; 0x32
 8003dbc:	f884 3217 	strb.w	r3, [r4, #535]	; 0x217
 8003dc0:	6923      	ldr	r3, [r4, #16]
 8003dc2:	2241      	movs	r2, #65	; 0x41
 8003dc4:	f884 2033 	strb.w	r2, [r4, #51]	; 0x33
 8003dc8:	f884 2216 	strb.w	r2, [r4, #534]	; 0x216
 8003dcc:	f3c3 2207 	ubfx	r2, r3, #8, #8
 8003dd0:	f884 3218 	strb.w	r3, [r4, #536]	; 0x218
 8003dd4:	f884 2219 	strb.w	r2, [r4, #537]	; 0x219
 8003dd8:	0c1a      	lsrs	r2, r3, #16
 8003dda:	0e1b      	lsrs	r3, r3, #24
 8003ddc:	f884 321b 	strb.w	r3, [r4, #539]	; 0x21b
 8003de0:	68e3      	ldr	r3, [r4, #12]
 8003de2:	f884 221a 	strb.w	r2, [r4, #538]	; 0x21a
 8003de6:	f3c3 2207 	ubfx	r2, r3, #8, #8
 8003dea:	2072      	movs	r0, #114	; 0x72
 8003dec:	f884 321c 	strb.w	r3, [r4, #540]	; 0x21c
 8003df0:	f884 221d 	strb.w	r2, [r4, #541]	; 0x21d
 8003df4:	0c1a      	lsrs	r2, r3, #16
 8003df6:	0e1b      	lsrs	r3, r3, #24
 8003df8:	f884 0214 	strb.w	r0, [r4, #532]	; 0x214
 8003dfc:	f884 0215 	strb.w	r0, [r4, #533]	; 0x215
 8003e00:	f884 221e 	strb.w	r2, [r4, #542]	; 0x21e
 8003e04:	f884 321f 	strb.w	r3, [r4, #543]	; 0x21f
 8003e08:	7860      	ldrb	r0, [r4, #1]
 8003e0a:	2301      	movs	r3, #1
 8003e0c:	6962      	ldr	r2, [r4, #20]
 8003e0e:	f000 fde9 	bl	80049e4 <disk_write>
 8003e12:	2300      	movs	r3, #0
 8003e14:	7163      	strb	r3, [r4, #5]
 8003e16:	7863      	ldrb	r3, [r4, #1]
 8003e18:	2b00      	cmp	r3, #0
 8003e1a:	f47f af71 	bne.w	8003d00 <f_sync+0x38>
 8003e1e:	4b0a      	ldr	r3, [pc, #40]	; (8003e48 <f_sync+0x180>)
 8003e20:	781b      	ldrb	r3, [r3, #0]
 8003e22:	07db      	lsls	r3, r3, #31
 8003e24:	f53f af6c 	bmi.w	8003d00 <f_sync+0x38>
 8003e28:	f44f 7180 	mov.w	r1, #256	; 0x100
 8003e2c:	4807      	ldr	r0, [pc, #28]	; (8003e4c <f_sync+0x184>)
 8003e2e:	f004 fe2f 	bl	8008a90 <GPIO_ResetBits>
 8003e32:	f000 fd7f 	bl	8004934 <wait_ready.lto_priv.49>
 8003e36:	4604      	mov	r4, r0
 8003e38:	f000 fd70 	bl	800491c <release_spi>
 8003e3c:	f1b4 00ff 	subs.w	r0, r4, #255	; 0xff
 8003e40:	bf18      	it	ne
 8003e42:	2001      	movne	r0, #1
 8003e44:	bd70      	pop	{r4, r5, r6, pc}
 8003e46:	bd70      	pop	{r4, r5, r6, pc}
 8003e48:	200000f0 	strdcs	r0, [r0], -r0	; <UNPREDICTABLE>
 8003e4c:	40010c00 	andmi	r0, r1, r0, lsl #24

08003e50 <f_close>:
 8003e50:	b510      	push	{r4, lr}
 8003e52:	4604      	mov	r4, r0
 8003e54:	f7ff ff38 	bl	8003cc8 <f_sync>
 8003e58:	b900      	cbnz	r0, 8003e5c <f_close+0xc>
 8003e5a:	6020      	str	r0, [r4, #0]
 8003e5c:	bd10      	pop	{r4, pc}

08003e5e <f_write>:
 8003e5e:	e92d 4ff8 	stmdb	sp!, {r3, r4, r5, r6, r7, r8, r9, sl, fp, lr}
 8003e62:	4604      	mov	r4, r0
 8003e64:	4698      	mov	r8, r3
 8003e66:	2300      	movs	r3, #0
 8003e68:	460f      	mov	r7, r1
 8003e6a:	f8c8 3000 	str.w	r3, [r8]
 8003e6e:	6800      	ldr	r0, [r0, #0]
 8003e70:	88a1      	ldrh	r1, [r4, #4]
 8003e72:	4616      	mov	r6, r2
 8003e74:	f7fe fd8e 	bl	8002994 <validate.lto_priv.31>
 8003e78:	2800      	cmp	r0, #0
 8003e7a:	f040 80b9 	bne.w	8003ff0 <f_write+0x192>
 8003e7e:	79a3      	ldrb	r3, [r4, #6]
 8003e80:	0618      	lsls	r0, r3, #24
 8003e82:	d456      	bmi.n	8003f32 <f_write+0xd4>
 8003e84:	0799      	lsls	r1, r3, #30
 8003e86:	f140 80b2 	bpl.w	8003fee <f_write+0x190>
 8003e8a:	68e3      	ldr	r3, [r4, #12]
 8003e8c:	42de      	cmn	r6, r3
 8003e8e:	bf28      	it	cs
 8003e90:	2600      	movcs	r6, #0
 8003e92:	e030      	b.n	8003ef6 <f_write+0x98>
 8003e94:	0a75      	lsrs	r5, r6, #9
 8003e96:	eb00 0a09 	add.w	sl, r0, r9
 8003e9a:	d075      	beq.n	8003f88 <f_write+0x12a>
 8003e9c:	f89b 3002 	ldrb.w	r3, [fp, #2]
 8003ea0:	eb05 0209 	add.w	r2, r5, r9
 8003ea4:	429a      	cmp	r2, r3
 8003ea6:	bf88      	it	hi
 8003ea8:	ebc9 0503 	rsbhi	r5, r9, r3
 8003eac:	f89b 0001 	ldrb.w	r0, [fp, #1]
 8003eb0:	4639      	mov	r1, r7
 8003eb2:	4652      	mov	r2, sl
 8003eb4:	b2eb      	uxtb	r3, r5
 8003eb6:	f000 fd95 	bl	80049e4 <disk_write>
 8003eba:	2800      	cmp	r0, #0
 8003ebc:	d174      	bne.n	8003fa8 <f_write+0x14a>
 8003ebe:	69a1      	ldr	r1, [r4, #24]
 8003ec0:	ebca 0101 	rsb	r1, sl, r1
 8003ec4:	42a9      	cmp	r1, r5
 8003ec6:	d20b      	bcs.n	8003ee0 <f_write+0x82>
 8003ec8:	f104 0024 	add.w	r0, r4, #36	; 0x24
 8003ecc:	eb07 2141 	add.w	r1, r7, r1, lsl #9
 8003ed0:	f44f 7200 	mov.w	r2, #512	; 0x200
 8003ed4:	f7ff fa9c 	bl	8003410 <mem_cpy.lto_priv.32>
 8003ed8:	79a3      	ldrb	r3, [r4, #6]
 8003eda:	f023 0340 	bic.w	r3, r3, #64	; 0x40
 8003ede:	71a3      	strb	r3, [r4, #6]
 8003ee0:	026d      	lsls	r5, r5, #9
 8003ee2:	68a3      	ldr	r3, [r4, #8]
 8003ee4:	442f      	add	r7, r5
 8003ee6:	442b      	add	r3, r5
 8003ee8:	60a3      	str	r3, [r4, #8]
 8003eea:	f8d8 3000 	ldr.w	r3, [r8]
 8003eee:	1b76      	subs	r6, r6, r5
 8003ef0:	442b      	add	r3, r5
 8003ef2:	f8c8 3000 	str.w	r3, [r8]
 8003ef6:	b326      	cbz	r6, 8003f42 <f_write+0xe4>
 8003ef8:	68a3      	ldr	r3, [r4, #8]
 8003efa:	f3c3 0208 	ubfx	r2, r3, #0, #9
 8003efe:	2a00      	cmp	r2, #0
 8003f00:	d15b      	bne.n	8003fba <f_write+0x15c>
 8003f02:	6820      	ldr	r0, [r4, #0]
 8003f04:	f890 9002 	ldrb.w	r9, [r0, #2]
 8003f08:	f109 39ff 	add.w	r9, r9, #4294967295
 8003f0c:	ea09 2953 	and.w	r9, r9, r3, lsr #9
 8003f10:	f019 09ff 	ands.w	r9, r9, #255	; 0xff
 8003f14:	d11e      	bne.n	8003f54 <f_write+0xf6>
 8003f16:	b97b      	cbnz	r3, 8003f38 <f_write+0xda>
 8003f18:	6921      	ldr	r1, [r4, #16]
 8003f1a:	b921      	cbnz	r1, 8003f26 <f_write+0xc8>
 8003f1c:	f7ff f980 	bl	8003220 <create_chain.lto_priv.48>
 8003f20:	4601      	mov	r1, r0
 8003f22:	6120      	str	r0, [r4, #16]
 8003f24:	b169      	cbz	r1, 8003f42 <f_write+0xe4>
 8003f26:	2901      	cmp	r1, #1
 8003f28:	79a3      	ldrb	r3, [r4, #6]
 8003f2a:	d110      	bne.n	8003f4e <f_write+0xf0>
 8003f2c:	f063 037f 	orn	r3, r3, #127	; 0x7f
 8003f30:	71a3      	strb	r3, [r4, #6]
 8003f32:	2002      	movs	r0, #2
 8003f34:	e8bd 8ff8 	ldmia.w	sp!, {r3, r4, r5, r6, r7, r8, r9, sl, fp, pc}
 8003f38:	6961      	ldr	r1, [r4, #20]
 8003f3a:	f7ff f971 	bl	8003220 <create_chain.lto_priv.48>
 8003f3e:	4601      	mov	r1, r0
 8003f40:	e7f0      	b.n	8003f24 <f_write+0xc6>
 8003f42:	68a3      	ldr	r3, [r4, #8]
 8003f44:	68e2      	ldr	r2, [r4, #12]
 8003f46:	4293      	cmp	r3, r2
 8003f48:	d94a      	bls.n	8003fe0 <f_write+0x182>
 8003f4a:	60e3      	str	r3, [r4, #12]
 8003f4c:	e048      	b.n	8003fe0 <f_write+0x182>
 8003f4e:	1c4a      	adds	r2, r1, #1
 8003f50:	d02b      	beq.n	8003faa <f_write+0x14c>
 8003f52:	6161      	str	r1, [r4, #20]
 8003f54:	79a3      	ldrb	r3, [r4, #6]
 8003f56:	065b      	lsls	r3, r3, #25
 8003f58:	d50c      	bpl.n	8003f74 <f_write+0x116>
 8003f5a:	4621      	mov	r1, r4
 8003f5c:	f851 3b24 	ldr.w	r3, [r1], #36
 8003f60:	69a2      	ldr	r2, [r4, #24]
 8003f62:	7858      	ldrb	r0, [r3, #1]
 8003f64:	2301      	movs	r3, #1
 8003f66:	f000 fd3d 	bl	80049e4 <disk_write>
 8003f6a:	79a3      	ldrb	r3, [r4, #6]
 8003f6c:	b9e8      	cbnz	r0, 8003faa <f_write+0x14c>
 8003f6e:	f023 0340 	bic.w	r3, r3, #64	; 0x40
 8003f72:	71a3      	strb	r3, [r4, #6]
 8003f74:	f8d4 b000 	ldr.w	fp, [r4]
 8003f78:	6961      	ldr	r1, [r4, #20]
 8003f7a:	4658      	mov	r0, fp
 8003f7c:	f7fe fe9e 	bl	8002cbc <clust2sect>
 8003f80:	2800      	cmp	r0, #0
 8003f82:	d187      	bne.n	8003e94 <f_write+0x36>
 8003f84:	79a3      	ldrb	r3, [r4, #6]
 8003f86:	e7d1      	b.n	8003f2c <f_write+0xce>
 8003f88:	69a3      	ldr	r3, [r4, #24]
 8003f8a:	4553      	cmp	r3, sl
 8003f8c:	d013      	beq.n	8003fb6 <f_write+0x158>
 8003f8e:	68a2      	ldr	r2, [r4, #8]
 8003f90:	68e3      	ldr	r3, [r4, #12]
 8003f92:	429a      	cmp	r2, r3
 8003f94:	d20f      	bcs.n	8003fb6 <f_write+0x158>
 8003f96:	f89b 0001 	ldrb.w	r0, [fp, #1]
 8003f9a:	f104 0124 	add.w	r1, r4, #36	; 0x24
 8003f9e:	4652      	mov	r2, sl
 8003fa0:	2301      	movs	r3, #1
 8003fa2:	f000 fd7f 	bl	8004aa4 <disk_read>
 8003fa6:	b130      	cbz	r0, 8003fb6 <f_write+0x158>
 8003fa8:	79a3      	ldrb	r3, [r4, #6]
 8003faa:	f063 037f 	orn	r3, r3, #127	; 0x7f
 8003fae:	71a3      	strb	r3, [r4, #6]
 8003fb0:	2001      	movs	r0, #1
 8003fb2:	e8bd 8ff8 	ldmia.w	sp!, {r3, r4, r5, r6, r7, r8, r9, sl, fp, pc}
 8003fb6:	f8c4 a018 	str.w	sl, [r4, #24]
 8003fba:	68a0      	ldr	r0, [r4, #8]
 8003fbc:	4639      	mov	r1, r7
 8003fbe:	f3c0 0008 	ubfx	r0, r0, #0, #9
 8003fc2:	f5c0 7500 	rsb	r5, r0, #512	; 0x200
 8003fc6:	42b5      	cmp	r5, r6
 8003fc8:	bf28      	it	cs
 8003fca:	4635      	movcs	r5, r6
 8003fcc:	4420      	add	r0, r4
 8003fce:	3024      	adds	r0, #36	; 0x24
 8003fd0:	462a      	mov	r2, r5
 8003fd2:	f7ff fa1d 	bl	8003410 <mem_cpy.lto_priv.32>
 8003fd6:	79a3      	ldrb	r3, [r4, #6]
 8003fd8:	f043 0340 	orr.w	r3, r3, #64	; 0x40
 8003fdc:	71a3      	strb	r3, [r4, #6]
 8003fde:	e780      	b.n	8003ee2 <f_write+0x84>
 8003fe0:	79a3      	ldrb	r3, [r4, #6]
 8003fe2:	2000      	movs	r0, #0
 8003fe4:	f043 0320 	orr.w	r3, r3, #32
 8003fe8:	71a3      	strb	r3, [r4, #6]
 8003fea:	e8bd 8ff8 	ldmia.w	sp!, {r3, r4, r5, r6, r7, r8, r9, sl, fp, pc}
 8003fee:	2007      	movs	r0, #7
 8003ff0:	e8bd 8ff8 	ldmia.w	sp!, {r3, r4, r5, r6, r7, r8, r9, sl, fp, pc}

08003ff4 <f_open>:
 8003ff4:	e92d 43f0 	stmdb	sp!, {r4, r5, r6, r7, r8, r9, lr}
 8003ff8:	2300      	movs	r3, #0
 8003ffa:	f5ad 7d15 	sub.w	sp, sp, #596	; 0x254
 8003ffe:	6003      	str	r3, [r0, #0]
 8004000:	9101      	str	r1, [sp, #4]
 8004002:	4606      	mov	r6, r0
 8004004:	4690      	mov	r8, r2
 8004006:	f002 071f 	and.w	r7, r2, #31
 800400a:	a801      	add	r0, sp, #4
 800400c:	a90b      	add	r1, sp, #44	; 0x2c
 800400e:	f002 021e 	and.w	r2, r2, #30
 8004012:	f7fe fcd7 	bl	80029c4 <chk_mounted.lto_priv.33>
 8004016:	ab05      	add	r3, sp, #20
 8004018:	9311      	str	r3, [sp, #68]	; 0x44
 800401a:	ab14      	add	r3, sp, #80	; 0x50
 800401c:	9312      	str	r3, [sp, #72]	; 0x48
 800401e:	4604      	mov	r4, r0
 8004020:	b920      	cbnz	r0, 800402c <f_open+0x38>
 8004022:	a80b      	add	r0, sp, #44	; 0x2c
 8004024:	9901      	ldr	r1, [sp, #4]
 8004026:	f7fe ffaf 	bl	8002f88 <follow_path.lto_priv.34>
 800402a:	4604      	mov	r4, r0
 800402c:	9d10      	ldr	r5, [sp, #64]	; 0x40
 800402e:	b914      	cbnz	r4, 8004036 <f_open+0x42>
 8004030:	2d00      	cmp	r5, #0
 8004032:	bf08      	it	eq
 8004034:	2406      	moveq	r4, #6
 8004036:	f018 0f1c 	tst.w	r8, #28
 800403a:	f000 8151 	beq.w	80042e0 <f_open+0x2ec>
 800403e:	2c00      	cmp	r4, #0
 8004040:	f000 810c 	beq.w	800425c <f_open+0x268>
 8004044:	2c04      	cmp	r4, #4
 8004046:	f040 8104 	bne.w	8004252 <f_open+0x25e>
 800404a:	f8dd 9044 	ldr.w	r9, [sp, #68]	; 0x44
 800404e:	a808      	add	r0, sp, #32
 8004050:	4649      	mov	r1, r9
 8004052:	220c      	movs	r2, #12
 8004054:	f8dd 8048 	ldr.w	r8, [sp, #72]	; 0x48
 8004058:	f7ff f9da 	bl	8003410 <mem_cpy.lto_priv.32>
 800405c:	f89d 302b 	ldrb.w	r3, [sp, #43]	; 0x2b
 8004060:	07dd      	lsls	r5, r3, #31
 8004062:	d55a      	bpl.n	800411a <f_open+0x126>
 8004064:	2300      	movs	r3, #0
 8004066:	f889 300b 	strb.w	r3, [r9, #11]
 800406a:	2501      	movs	r5, #1
 800406c:	9312      	str	r3, [sp, #72]	; 0x48
 800406e:	4648      	mov	r0, r9
 8004070:	a908      	add	r1, sp, #32
 8004072:	220b      	movs	r2, #11
 8004074:	f7ff f9cc 	bl	8003410 <mem_cpy.lto_priv.32>
 8004078:	2d05      	cmp	r5, #5
 800407a:	462b      	mov	r3, r5
 800407c:	d90a      	bls.n	8004094 <f_open+0xa0>
 800407e:	4642      	mov	r2, r8
 8004080:	03d9      	lsls	r1, r3, #15
 8004082:	ea41 0353 	orr.w	r3, r1, r3, lsr #1
 8004086:	f832 1b02 	ldrh.w	r1, [r2], #2
 800408a:	440b      	add	r3, r1
 800408c:	8811      	ldrh	r1, [r2, #0]
 800408e:	b29b      	uxth	r3, r3
 8004090:	2900      	cmp	r1, #0
 8004092:	d1f5      	bne.n	8004080 <f_open+0x8c>
 8004094:	2107      	movs	r1, #7
 8004096:	f003 000f 	and.w	r0, r3, #15
 800409a:	f100 0230 	add.w	r2, r0, #48	; 0x30
 800409e:	2a39      	cmp	r2, #57	; 0x39
 80040a0:	bf88      	it	hi
 80040a2:	f100 0237 	addhi.w	r2, r0, #55	; 0x37
 80040a6:	3901      	subs	r1, #1
 80040a8:	a803      	add	r0, sp, #12
 80040aa:	1844      	adds	r4, r0, r1
 80040ac:	f3c3 130f 	ubfx	r3, r3, #4, #16
 80040b0:	7062      	strb	r2, [r4, #1]
 80040b2:	2b00      	cmp	r3, #0
 80040b4:	d1ef      	bne.n	8004096 <f_open+0xa2>
 80040b6:	227e      	movs	r2, #126	; 0x7e
 80040b8:	5442      	strb	r2, [r0, r1]
 80040ba:	428b      	cmp	r3, r1
 80040bc:	d101      	bne.n	80040c2 <f_open+0xce>
 80040be:	444b      	add	r3, r9
 80040c0:	e005      	b.n	80040ce <f_open+0xda>
 80040c2:	f819 2003 	ldrb.w	r2, [r9, r3]
 80040c6:	2a20      	cmp	r2, #32
 80040c8:	d0f9      	beq.n	80040be <f_open+0xca>
 80040ca:	3301      	adds	r3, #1
 80040cc:	e7f5      	b.n	80040ba <f_open+0xc6>
 80040ce:	2907      	cmp	r1, #7
 80040d0:	bf94      	ite	ls
 80040d2:	5c42      	ldrbls	r2, [r0, r1]
 80040d4:	2220      	movhi	r2, #32
 80040d6:	f803 2b01 	strb.w	r2, [r3], #1
 80040da:	ebc9 0203 	rsb	r2, r9, r3
 80040de:	bf98      	it	ls
 80040e0:	3101      	addls	r1, #1
 80040e2:	2a07      	cmp	r2, #7
 80040e4:	d9f3      	bls.n	80040ce <f_open+0xda>
 80040e6:	a80b      	add	r0, sp, #44	; 0x2c
 80040e8:	2100      	movs	r1, #0
 80040ea:	f7fe ff0b 	bl	8002f04 <dir_sdi.lto_priv.50>
 80040ee:	4604      	mov	r4, r0
 80040f0:	b950      	cbnz	r0, 8004108 <f_open+0x114>
 80040f2:	a80b      	add	r0, sp, #44	; 0x2c
 80040f4:	f000 fed8 	bl	8004ea8 <dir_find.part.4.lto_priv.51>
 80040f8:	4604      	mov	r4, r0
 80040fa:	b928      	cbnz	r0, 8004108 <f_open+0x114>
 80040fc:	3501      	adds	r5, #1
 80040fe:	b2ad      	uxth	r5, r5
 8004100:	2d64      	cmp	r5, #100	; 0x64
 8004102:	d1b4      	bne.n	800406e <f_open+0x7a>
 8004104:	2407      	movs	r4, #7
 8004106:	e0a4      	b.n	8004252 <f_open+0x25e>
 8004108:	2c04      	cmp	r4, #4
 800410a:	f040 80a2 	bne.w	8004252 <f_open+0x25e>
 800410e:	f89d 302b 	ldrb.w	r3, [sp, #43]	; 0x2b
 8004112:	f889 300b 	strb.w	r3, [r9, #11]
 8004116:	f8cd 8048 	str.w	r8, [sp, #72]	; 0x48
 800411a:	f89d 302b 	ldrb.w	r3, [sp, #43]	; 0x2b
 800411e:	079c      	lsls	r4, r3, #30
 8004120:	d50c      	bpl.n	800413c <f_open+0x148>
 8004122:	2300      	movs	r3, #0
 8004124:	b29d      	uxth	r5, r3
 8004126:	f838 2015 	ldrh.w	r2, [r8, r5, lsl #1]
 800412a:	3301      	adds	r3, #1
 800412c:	2a00      	cmp	r2, #0
 800412e:	d1f9      	bne.n	8004124 <f_open+0x130>
 8004130:	3519      	adds	r5, #25
 8004132:	230d      	movs	r3, #13
 8004134:	fb95 f5f3 	sdiv	r5, r5, r3
 8004138:	b2ad      	uxth	r5, r5
 800413a:	e000      	b.n	800413e <f_open+0x14a>
 800413c:	2501      	movs	r5, #1
 800413e:	a80b      	add	r0, sp, #44	; 0x2c
 8004140:	2100      	movs	r1, #0
 8004142:	f7fe fedf 	bl	8002f04 <dir_sdi.lto_priv.50>
 8004146:	4604      	mov	r4, r0
 8004148:	2800      	cmp	r0, #0
 800414a:	f040 8082 	bne.w	8004252 <f_open+0x25e>
 800414e:	4681      	mov	r9, r0
 8004150:	4680      	mov	r8, r0
 8004152:	980b      	ldr	r0, [sp, #44]	; 0x2c
 8004154:	990f      	ldr	r1, [sp, #60]	; 0x3c
 8004156:	f7fe fdbc 	bl	8002cd2 <move_window.lto_priv.43>
 800415a:	4604      	mov	r4, r0
 800415c:	2800      	cmp	r0, #0
 800415e:	d178      	bne.n	8004252 <f_open+0x25e>
 8004160:	9b10      	ldr	r3, [sp, #64]	; 0x40
 8004162:	781b      	ldrb	r3, [r3, #0]
 8004164:	2be5      	cmp	r3, #229	; 0xe5
 8004166:	d000      	beq.n	800416a <f_open+0x176>
 8004168:	b95b      	cbnz	r3, 8004182 <f_open+0x18e>
 800416a:	f1b8 0f00 	cmp.w	r8, #0
 800416e:	d101      	bne.n	8004174 <f_open+0x180>
 8004170:	f8bd 9032 	ldrh.w	r9, [sp, #50]	; 0x32
 8004174:	f108 0801 	add.w	r8, r8, #1
 8004178:	fa1f f888 	uxth.w	r8, r8
 800417c:	45a8      	cmp	r8, r5
 800417e:	d101      	bne.n	8004184 <f_open+0x190>
 8004180:	e008      	b.n	8004194 <f_open+0x1a0>
 8004182:	4680      	mov	r8, r0
 8004184:	a80b      	add	r0, sp, #44	; 0x2c
 8004186:	2101      	movs	r1, #1
 8004188:	f7ff f898 	bl	80032bc <dir_next.lto_priv.44>
 800418c:	4604      	mov	r4, r0
 800418e:	2800      	cmp	r0, #0
 8004190:	d0df      	beq.n	8004152 <f_open+0x15e>
 8004192:	e05e      	b.n	8004252 <f_open+0x25e>
 8004194:	2d01      	cmp	r5, #1
 8004196:	f000 80db 	beq.w	8004350 <f_open+0x35c>
 800419a:	a80b      	add	r0, sp, #44	; 0x2c
 800419c:	4649      	mov	r1, r9
 800419e:	f7fe feb1 	bl	8002f04 <dir_sdi.lto_priv.50>
 80041a2:	4604      	mov	r4, r0
 80041a4:	2800      	cmp	r0, #0
 80041a6:	d154      	bne.n	8004252 <f_open+0x25e>
 80041a8:	46a0      	mov	r8, r4
 80041aa:	9b11      	ldr	r3, [sp, #68]	; 0x44
 80041ac:	f103 000b 	add.w	r0, r3, #11
 80041b0:	ea4f 11c8 	mov.w	r1, r8, lsl #7
 80041b4:	ea41 0258 	orr.w	r2, r1, r8, lsr #1
 80041b8:	f813 1b01 	ldrb.w	r1, [r3], #1
 80041bc:	440a      	add	r2, r1
 80041be:	4283      	cmp	r3, r0
 80041c0:	f002 08ff 	and.w	r8, r2, #255	; 0xff
 80041c4:	d1f4      	bne.n	80041b0 <f_open+0x1bc>
 80041c6:	3d01      	subs	r5, #1
 80041c8:	b2ad      	uxth	r5, r5
 80041ca:	980b      	ldr	r0, [sp, #44]	; 0x2c
 80041cc:	990f      	ldr	r1, [sp, #60]	; 0x3c
 80041ce:	f7fe fd80 	bl	8002cd2 <move_window.lto_priv.43>
 80041d2:	4604      	mov	r4, r0
 80041d4:	2800      	cmp	r0, #0
 80041d6:	d13c      	bne.n	8004252 <f_open+0x25e>
 80041d8:	4686      	mov	lr, r0
 80041da:	9a10      	ldr	r2, [sp, #64]	; 0x40
 80041dc:	230f      	movs	r3, #15
 80041de:	b2ec      	uxtb	r4, r5
 80041e0:	f8dd c048 	ldr.w	ip, [sp, #72]	; 0x48
 80041e4:	210d      	movs	r1, #13
 80041e6:	72d3      	strb	r3, [r2, #11]
 80041e8:	1e63      	subs	r3, r4, #1
 80041ea:	4359      	muls	r1, r3
 80041ec:	f882 800d 	strb.w	r8, [r2, #13]
 80041f0:	7310      	strb	r0, [r2, #12]
 80041f2:	7690      	strb	r0, [r2, #26]
 80041f4:	76d0      	strb	r0, [r2, #27]
 80041f6:	f64f 73ff 	movw	r3, #65535	; 0xffff
 80041fa:	4298      	cmp	r0, r3
 80041fc:	4b69      	ldr	r3, [pc, #420]	; (80043a4 <f_open+0x3b0>)
 80041fe:	bf18      	it	ne
 8004200:	f83c 0011 	ldrhne.w	r0, [ip, r1, lsl #1]
 8004204:	f81e 3003 	ldrb.w	r3, [lr, r3]
 8004208:	ea4f 2910 	mov.w	r9, r0, lsr #8
 800420c:	54d0      	strb	r0, [r2, r3]
 800420e:	4413      	add	r3, r2
 8004210:	f883 9001 	strb.w	r9, [r3, #1]
 8004214:	f64f 73ff 	movw	r3, #65535	; 0xffff
 8004218:	f10e 0e01 	add.w	lr, lr, #1
 800421c:	bf18      	it	ne
 800421e:	3101      	addne	r1, #1
 8004220:	2800      	cmp	r0, #0
 8004222:	bf08      	it	eq
 8004224:	4618      	moveq	r0, r3
 8004226:	f1be 0f0d 	cmp.w	lr, #13
 800422a:	d1e4      	bne.n	80041f6 <f_open+0x202>
 800422c:	4298      	cmp	r0, r3
 800422e:	f000 8087 	beq.w	8004340 <f_open+0x34c>
 8004232:	f83c 3011 	ldrh.w	r3, [ip, r1, lsl #1]
 8004236:	2b00      	cmp	r3, #0
 8004238:	f000 8082 	beq.w	8004340 <f_open+0x34c>
 800423c:	7014      	strb	r4, [r2, #0]
 800423e:	9b0b      	ldr	r3, [sp, #44]	; 0x2c
 8004240:	2201      	movs	r2, #1
 8004242:	711a      	strb	r2, [r3, #4]
 8004244:	a80b      	add	r0, sp, #44	; 0x2c
 8004246:	2100      	movs	r1, #0
 8004248:	f7ff f838 	bl	80032bc <dir_next.lto_priv.44>
 800424c:	4604      	mov	r4, r0
 800424e:	2800      	cmp	r0, #0
 8004250:	d079      	beq.n	8004346 <f_open+0x352>
 8004252:	f047 0708 	orr.w	r7, r7, #8
 8004256:	9d10      	ldr	r5, [sp, #64]	; 0x40
 8004258:	b14c      	cbz	r4, 800426e <f_open+0x27a>
 800425a:	e09e      	b.n	800439a <f_open+0x3a6>
 800425c:	7aeb      	ldrb	r3, [r5, #11]
 800425e:	f013 0f11 	tst.w	r3, #17
 8004262:	f040 8099 	bne.w	8004398 <f_open+0x3a4>
 8004266:	f018 0f04 	tst.w	r8, #4
 800426a:	f040 8091 	bne.w	8004390 <f_open+0x39c>
 800426e:	0738      	lsls	r0, r7, #28
 8004270:	d540      	bpl.n	80042f4 <f_open+0x300>
 8004272:	f7ff f8d7 	bl	8003424 <get_fattime>
 8004276:	f3c0 2307 	ubfx	r3, r0, #8, #8
 800427a:	73eb      	strb	r3, [r5, #15]
 800427c:	0c03      	lsrs	r3, r0, #16
 800427e:	f895 8015 	ldrb.w	r8, [r5, #21]
 8004282:	742b      	strb	r3, [r5, #16]
 8004284:	7d2b      	ldrb	r3, [r5, #20]
 8004286:	73a8      	strb	r0, [r5, #14]
 8004288:	ea43 2108 	orr.w	r1, r3, r8, lsl #8
 800428c:	f895 801b 	ldrb.w	r8, [r5, #27]
 8004290:	7eab      	ldrb	r3, [r5, #26]
 8004292:	0e00      	lsrs	r0, r0, #24
 8004294:	2200      	movs	r2, #0
 8004296:	7468      	strb	r0, [r5, #17]
 8004298:	ea43 2308 	orr.w	r3, r3, r8, lsl #8
 800429c:	980b      	ldr	r0, [sp, #44]	; 0x2c
 800429e:	72ea      	strb	r2, [r5, #11]
 80042a0:	772a      	strb	r2, [r5, #28]
 80042a2:	776a      	strb	r2, [r5, #29]
 80042a4:	77aa      	strb	r2, [r5, #30]
 80042a6:	77ea      	strb	r2, [r5, #31]
 80042a8:	76aa      	strb	r2, [r5, #26]
 80042aa:	76ea      	strb	r2, [r5, #27]
 80042ac:	752a      	strb	r2, [r5, #20]
 80042ae:	756a      	strb	r2, [r5, #21]
 80042b0:	ea53 4801 	orrs.w	r8, r3, r1, lsl #16
 80042b4:	f04f 0201 	mov.w	r2, #1
 80042b8:	7102      	strb	r2, [r0, #4]
 80042ba:	d01b      	beq.n	80042f4 <f_open+0x300>
 80042bc:	4641      	mov	r1, r8
 80042be:	f8d0 902c 	ldr.w	r9, [r0, #44]	; 0x2c
 80042c2:	f7ff f87b 	bl	80033bc <remove_chain.lto_priv.47>
 80042c6:	4604      	mov	r4, r0
 80042c8:	2800      	cmp	r0, #0
 80042ca:	d166      	bne.n	800439a <f_open+0x3a6>
 80042cc:	980b      	ldr	r0, [sp, #44]	; 0x2c
 80042ce:	f108 33ff 	add.w	r3, r8, #4294967295
 80042d2:	60c3      	str	r3, [r0, #12]
 80042d4:	4649      	mov	r1, r9
 80042d6:	f7fe fcfc 	bl	8002cd2 <move_window.lto_priv.43>
 80042da:	4604      	mov	r4, r0
 80042dc:	b150      	cbz	r0, 80042f4 <f_open+0x300>
 80042de:	e05c      	b.n	800439a <f_open+0x3a6>
 80042e0:	2c00      	cmp	r4, #0
 80042e2:	d15a      	bne.n	800439a <f_open+0x3a6>
 80042e4:	7aeb      	ldrb	r3, [r5, #11]
 80042e6:	06d9      	lsls	r1, r3, #27
 80042e8:	d454      	bmi.n	8004394 <f_open+0x3a0>
 80042ea:	f018 0f02 	tst.w	r8, #2
 80042ee:	d001      	beq.n	80042f4 <f_open+0x300>
 80042f0:	07da      	lsls	r2, r3, #31
 80042f2:	d451      	bmi.n	8004398 <f_open+0x3a4>
 80042f4:	990b      	ldr	r1, [sp, #44]	; 0x2c
 80042f6:	073b      	lsls	r3, r7, #28
 80042f8:	6acb      	ldr	r3, [r1, #44]	; 0x2c
 80042fa:	bf48      	it	mi
 80042fc:	f047 0720 	orrmi.w	r7, r7, #32
 8004300:	71b7      	strb	r7, [r6, #6]
 8004302:	61f3      	str	r3, [r6, #28]
 8004304:	6235      	str	r5, [r6, #32]
 8004306:	7d2b      	ldrb	r3, [r5, #20]
 8004308:	7d68      	ldrb	r0, [r5, #21]
 800430a:	7eaa      	ldrb	r2, [r5, #26]
 800430c:	ea43 2000 	orr.w	r0, r3, r0, lsl #8
 8004310:	7eeb      	ldrb	r3, [r5, #27]
 8004312:	2400      	movs	r4, #0
 8004314:	ea42 2303 	orr.w	r3, r2, r3, lsl #8
 8004318:	ea43 4300 	orr.w	r3, r3, r0, lsl #16
 800431c:	6133      	str	r3, [r6, #16]
 800431e:	7fab      	ldrb	r3, [r5, #30]
 8004320:	7fea      	ldrb	r2, [r5, #31]
 8004322:	041b      	lsls	r3, r3, #16
 8004324:	ea43 6302 	orr.w	r3, r3, r2, lsl #24
 8004328:	7f2a      	ldrb	r2, [r5, #28]
 800432a:	4313      	orrs	r3, r2
 800432c:	7f6a      	ldrb	r2, [r5, #29]
 800432e:	60b4      	str	r4, [r6, #8]
 8004330:	ea43 2302 	orr.w	r3, r3, r2, lsl #8
 8004334:	60f3      	str	r3, [r6, #12]
 8004336:	88cb      	ldrh	r3, [r1, #6]
 8004338:	61b4      	str	r4, [r6, #24]
 800433a:	6031      	str	r1, [r6, #0]
 800433c:	80b3      	strh	r3, [r6, #4]
 800433e:	e02c      	b.n	800439a <f_open+0x3a6>
 8004340:	f044 0440 	orr.w	r4, r4, #64	; 0x40
 8004344:	e77a      	b.n	800423c <f_open+0x248>
 8004346:	3d01      	subs	r5, #1
 8004348:	b2ad      	uxth	r5, r5
 800434a:	2d00      	cmp	r5, #0
 800434c:	f47f af3d 	bne.w	80041ca <f_open+0x1d6>
 8004350:	980b      	ldr	r0, [sp, #44]	; 0x2c
 8004352:	990f      	ldr	r1, [sp, #60]	; 0x3c
 8004354:	f7fe fcbd 	bl	8002cd2 <move_window.lto_priv.43>
 8004358:	4604      	mov	r4, r0
 800435a:	2800      	cmp	r0, #0
 800435c:	f47f af79 	bne.w	8004252 <f_open+0x25e>
 8004360:	9d10      	ldr	r5, [sp, #64]	; 0x40
 8004362:	462b      	mov	r3, r5
 8004364:	f105 0220 	add.w	r2, r5, #32
 8004368:	4293      	cmp	r3, r2
 800436a:	d003      	beq.n	8004374 <f_open+0x380>
 800436c:	2100      	movs	r1, #0
 800436e:	f803 1b01 	strb.w	r1, [r3], #1
 8004372:	e7f9      	b.n	8004368 <f_open+0x374>
 8004374:	220b      	movs	r2, #11
 8004376:	4628      	mov	r0, r5
 8004378:	9911      	ldr	r1, [sp, #68]	; 0x44
 800437a:	f7ff f849 	bl	8003410 <mem_cpy.lto_priv.32>
 800437e:	9b11      	ldr	r3, [sp, #68]	; 0x44
 8004380:	2201      	movs	r2, #1
 8004382:	7adb      	ldrb	r3, [r3, #11]
 8004384:	f003 0318 	and.w	r3, r3, #24
 8004388:	732b      	strb	r3, [r5, #12]
 800438a:	9b0b      	ldr	r3, [sp, #44]	; 0x2c
 800438c:	711a      	strb	r2, [r3, #4]
 800438e:	e760      	b.n	8004252 <f_open+0x25e>
 8004390:	2408      	movs	r4, #8
 8004392:	e002      	b.n	800439a <f_open+0x3a6>
 8004394:	2404      	movs	r4, #4
 8004396:	e000      	b.n	800439a <f_open+0x3a6>
 8004398:	2407      	movs	r4, #7
 800439a:	4620      	mov	r0, r4
 800439c:	f50d 7d15 	add.w	sp, sp, #596	; 0x254
 80043a0:	e8bd 83f0 	ldmia.w	sp!, {r4, r5, r6, r7, r8, r9, pc}
 80043a4:	0800a25c 	stmdaeq	r0, {r2, r3, r4, r6, r9, sp, pc}

080043a8 <stm32_dma_transfer>:
 80043a8:	b5f0      	push	{r4, r5, r6, r7, lr}
 80043aa:	4605      	mov	r5, r0
 80043ac:	4b2a      	ldr	r3, [pc, #168]	; (8004458 <stm32_dma_transfer+0xb0>)
 80043ae:	b08d      	sub	sp, #52	; 0x34
 80043b0:	2400      	movs	r4, #0
 80043b2:	482a      	ldr	r0, [pc, #168]	; (800445c <stm32_dma_transfer+0xb4>)
 80043b4:	460e      	mov	r6, r1
 80043b6:	9301      	str	r3, [sp, #4]
 80043b8:	9204      	str	r2, [sp, #16]
 80043ba:	9407      	str	r4, [sp, #28]
 80043bc:	9408      	str	r4, [sp, #32]
 80043be:	9405      	str	r4, [sp, #20]
 80043c0:	9409      	str	r4, [sp, #36]	; 0x24
 80043c2:	940a      	str	r4, [sp, #40]	; 0x28
 80043c4:	940b      	str	r4, [sp, #44]	; 0x2c
 80043c6:	f004 f9cb 	bl	8008760 <DMA_DeInit>
 80043ca:	4825      	ldr	r0, [pc, #148]	; (8004460 <stm32_dma_transfer+0xb8>)
 80043cc:	f004 f9c8 	bl	8008760 <DMA_DeInit>
 80043d0:	4f24      	ldr	r7, [pc, #144]	; (8004464 <stm32_dma_transfer+0xbc>)
 80043d2:	b165      	cbz	r5, 80043ee <stm32_dma_transfer+0x46>
 80043d4:	2380      	movs	r3, #128	; 0x80
 80043d6:	4821      	ldr	r0, [pc, #132]	; (800445c <stm32_dma_transfer+0xb4>)
 80043d8:	a901      	add	r1, sp, #4
 80043da:	9306      	str	r3, [sp, #24]
 80043dc:	9602      	str	r6, [sp, #8]
 80043de:	9403      	str	r4, [sp, #12]
 80043e0:	f004 fa36 	bl	8008850 <DMA_Init>
 80043e4:	2310      	movs	r3, #16
 80043e6:	9702      	str	r7, [sp, #8]
 80043e8:	9303      	str	r3, [sp, #12]
 80043ea:	9406      	str	r4, [sp, #24]
 80043ec:	e00b      	b.n	8004406 <stm32_dma_transfer+0x5e>
 80043ee:	481b      	ldr	r0, [pc, #108]	; (800445c <stm32_dma_transfer+0xb4>)
 80043f0:	a901      	add	r1, sp, #4
 80043f2:	9702      	str	r7, [sp, #8]
 80043f4:	9503      	str	r5, [sp, #12]
 80043f6:	9506      	str	r5, [sp, #24]
 80043f8:	f004 fa2a 	bl	8008850 <DMA_Init>
 80043fc:	2310      	movs	r3, #16
 80043fe:	9303      	str	r3, [sp, #12]
 8004400:	2380      	movs	r3, #128	; 0x80
 8004402:	9602      	str	r6, [sp, #8]
 8004404:	9306      	str	r3, [sp, #24]
 8004406:	4816      	ldr	r0, [pc, #88]	; (8004460 <stm32_dma_transfer+0xb8>)
 8004408:	a901      	add	r1, sp, #4
 800440a:	f004 fa21 	bl	8008850 <DMA_Init>
 800440e:	4813      	ldr	r0, [pc, #76]	; (800445c <stm32_dma_transfer+0xb4>)
 8004410:	2101      	movs	r1, #1
 8004412:	f004 fa3b 	bl	800888c <DMA_Cmd>
 8004416:	4812      	ldr	r0, [pc, #72]	; (8004460 <stm32_dma_transfer+0xb8>)
 8004418:	2101      	movs	r1, #1
 800441a:	f004 fa37 	bl	800888c <DMA_Cmd>
 800441e:	4812      	ldr	r0, [pc, #72]	; (8004468 <stm32_dma_transfer+0xc0>)
 8004420:	2103      	movs	r1, #3
 8004422:	2201      	movs	r2, #1
 8004424:	f004 fdcf 	bl	8008fc6 <SPI_I2S_DMACmd>
 8004428:	4b10      	ldr	r3, [pc, #64]	; (800446c <stm32_dma_transfer+0xc4>)
 800442a:	781b      	ldrb	r3, [r3, #0]
 800442c:	b993      	cbnz	r3, 8004454 <stm32_dma_transfer+0xac>
 800442e:	f44f 5000 	mov.w	r0, #8192	; 0x2000
 8004432:	f004 fa3f 	bl	80088b4 <DMA_GetFlagStatus>
 8004436:	2800      	cmp	r0, #0
 8004438:	d0f9      	beq.n	800442e <stm32_dma_transfer+0x86>
 800443a:	4808      	ldr	r0, [pc, #32]	; (800445c <stm32_dma_transfer+0xb4>)
 800443c:	2100      	movs	r1, #0
 800443e:	f004 fa25 	bl	800888c <DMA_Cmd>
 8004442:	4807      	ldr	r0, [pc, #28]	; (8004460 <stm32_dma_transfer+0xb8>)
 8004444:	2100      	movs	r1, #0
 8004446:	f004 fa21 	bl	800888c <DMA_Cmd>
 800444a:	4807      	ldr	r0, [pc, #28]	; (8004468 <stm32_dma_transfer+0xc0>)
 800444c:	2103      	movs	r1, #3
 800444e:	2200      	movs	r2, #0
 8004450:	f004 fdb9 	bl	8008fc6 <SPI_I2S_DMACmd>
 8004454:	b00d      	add	sp, #52	; 0x34
 8004456:	bdf0      	pop	{r4, r5, r6, r7, pc}
 8004458:	4000380c 	andmi	r3, r0, ip, lsl #16
 800445c:	40020044 	andmi	r0, r2, r4, asr #32
 8004460:	40020058 	andmi	r0, r2, r8, asr r0
 8004464:	20000098 	mulcs	r0, r8, r0
 8004468:	40003800 	andmi	r3, r0, r0, lsl #16
 800446c:	200010e0 	andcs	r1, r0, r0, ror #1

08004470 <stm32_spi_rw>:
 8004470:	4601      	mov	r1, r0
 8004472:	b508      	push	{r3, lr}
 8004474:	4806      	ldr	r0, [pc, #24]	; (8004490 <stm32_spi_rw+0x20>)
 8004476:	f004 fdaf 	bl	8008fd8 <SPI_I2S_SendData>
 800447a:	4805      	ldr	r0, [pc, #20]	; (8004490 <stm32_spi_rw+0x20>)
 800447c:	2101      	movs	r1, #1
 800447e:	f004 fdbc 	bl	8008ffa <SPI_I2S_GetFlagStatus>
 8004482:	2800      	cmp	r0, #0
 8004484:	d0f9      	beq.n	800447a <stm32_spi_rw+0xa>
 8004486:	4802      	ldr	r0, [pc, #8]	; (8004490 <stm32_spi_rw+0x20>)
 8004488:	f004 fda8 	bl	8008fdc <SPI_I2S_ReceiveData>
 800448c:	b2c0      	uxtb	r0, r0
 800448e:	bd08      	pop	{r3, pc}
 8004490:	40003800 	andmi	r3, r0, r0, lsl #16

08004494 <rcvr_spi>:
 8004494:	20ff      	movs	r0, #255	; 0xff
 8004496:	f7ff bfeb 	b.w	8004470 <stm32_spi_rw>

0800449a <xmit_datablock.part.1>:
 800449a:	b508      	push	{r3, lr}
 800449c:	4601      	mov	r1, r0
 800449e:	f44f 7200 	mov.w	r2, #512	; 0x200
 80044a2:	2000      	movs	r0, #0
 80044a4:	f7ff ff80 	bl	80043a8 <stm32_dma_transfer>
 80044a8:	20ff      	movs	r0, #255	; 0xff
 80044aa:	f7ff ffe1 	bl	8004470 <stm32_spi_rw>
 80044ae:	20ff      	movs	r0, #255	; 0xff
 80044b0:	f7ff ffde 	bl	8004470 <stm32_spi_rw>
 80044b4:	f7ff ffee 	bl	8004494 <rcvr_spi>
 80044b8:	f000 001f 	and.w	r0, r0, #31
 80044bc:	1f43      	subs	r3, r0, #5
 80044be:	4258      	negs	r0, r3
 80044c0:	4158      	adcs	r0, r3
 80044c2:	bd08      	pop	{r3, pc}

080044c4 <rprintfChar>:
 80044c4:	280a      	cmp	r0, #10
 80044c6:	b570      	push	{r4, r5, r6, lr}
 80044c8:	4604      	mov	r4, r0
 80044ca:	4d05      	ldr	r5, [pc, #20]	; (80044e0 <rprintfChar+0x1c>)
 80044cc:	d102      	bne.n	80044d4 <rprintfChar+0x10>
 80044ce:	682b      	ldr	r3, [r5, #0]
 80044d0:	200d      	movs	r0, #13
 80044d2:	4798      	blx	r3
 80044d4:	682b      	ldr	r3, [r5, #0]
 80044d6:	4620      	mov	r0, r4
 80044d8:	e8bd 4070 	ldmia.w	sp!, {r4, r5, r6, lr}
 80044dc:	4718      	bx	r3
 80044de:	bf00      	nop
 80044e0:	20000e04 	andcs	r0, r0, r4, lsl #28

080044e4 <rprintf2RamRom>:
 80044e4:	b40f      	push	{r0, r1, r2, r3}
 80044e6:	e92d 4ff7 	stmdb	sp!, {r0, r1, r2, r4, r5, r6, r7, r8, r9, sl, fp, lr}
 80044ea:	ab0c      	add	r3, sp, #48	; 0x30
 80044ec:	f853 6b04 	ldr.w	r6, [r3], #4
 80044f0:	2500      	movs	r5, #0
 80044f2:	9301      	str	r3, [sp, #4]
 80044f4:	5d70      	ldrb	r0, [r6, r5]
 80044f6:	2800      	cmp	r0, #0
 80044f8:	f000 81e0 	beq.w	80048bc <rprintf2RamRom+0x3d8>
 80044fc:	2825      	cmp	r0, #37	; 0x25
 80044fe:	d003      	beq.n	8004508 <rprintf2RamRom+0x24>
 8004500:	f7ff ffe0 	bl	80044c4 <rprintfChar>
 8004504:	462c      	mov	r4, r5
 8004506:	e1b9      	b.n	800487c <rprintf2RamRom+0x398>
 8004508:	1c6c      	adds	r4, r5, #1
 800450a:	b2e4      	uxtb	r4, r4
 800450c:	5d33      	ldrb	r3, [r6, r4]
 800450e:	2b2d      	cmp	r3, #45	; 0x2d
 8004510:	bf04      	itt	eq
 8004512:	1cac      	addeq	r4, r5, #2
 8004514:	b2e4      	uxtbeq	r4, r4
 8004516:	5d33      	ldrb	r3, [r6, r4]
 8004518:	bf0c      	ite	eq
 800451a:	f04f 0801 	moveq.w	r8, #1
 800451e:	f04f 0800 	movne.w	r8, #0
 8004522:	2b30      	cmp	r3, #48	; 0x30
 8004524:	d001      	beq.n	800452a <rprintf2RamRom+0x46>
 8004526:	2b2e      	cmp	r3, #46	; 0x2e
 8004528:	d104      	bne.n	8004534 <rprintf2RamRom+0x50>
 800452a:	3401      	adds	r4, #1
 800452c:	b2e4      	uxtb	r4, r4
 800452e:	f04f 0930 	mov.w	r9, #48	; 0x30
 8004532:	e001      	b.n	8004538 <rprintf2RamRom+0x54>
 8004534:	f04f 0920 	mov.w	r9, #32
 8004538:	5d33      	ldrb	r3, [r6, r4]
 800453a:	1930      	adds	r0, r6, r4
 800453c:	2b2a      	cmp	r3, #42	; 0x2a
 800453e:	d106      	bne.n	800454e <rprintf2RamRom+0x6a>
 8004540:	9b01      	ldr	r3, [sp, #4]
 8004542:	3401      	adds	r4, #1
 8004544:	1d1a      	adds	r2, r3, #4
 8004546:	9201      	str	r2, [sp, #4]
 8004548:	681f      	ldr	r7, [r3, #0]
 800454a:	b2e4      	uxtb	r4, r4
 800454c:	e004      	b.n	8004558 <rprintf2RamRom+0x74>
 800454e:	3b30      	subs	r3, #48	; 0x30
 8004550:	2b09      	cmp	r3, #9
 8004552:	f240 8196 	bls.w	8004882 <rprintf2RamRom+0x39e>
 8004556:	2700      	movs	r7, #0
 8004558:	5d33      	ldrb	r3, [r6, r4]
 800455a:	2b2e      	cmp	r3, #46	; 0x2e
 800455c:	d112      	bne.n	8004584 <rprintf2RamRom+0xa0>
 800455e:	1c65      	adds	r5, r4, #1
 8004560:	b2ed      	uxtb	r5, r5
 8004562:	5d73      	ldrb	r3, [r6, r5]
 8004564:	1970      	adds	r0, r6, r5
 8004566:	2b2a      	cmp	r3, #42	; 0x2a
 8004568:	d107      	bne.n	800457a <rprintf2RamRom+0x96>
 800456a:	9b01      	ldr	r3, [sp, #4]
 800456c:	3402      	adds	r4, #2
 800456e:	1d1a      	adds	r2, r3, #4
 8004570:	9201      	str	r2, [sp, #4]
 8004572:	f8d3 b000 	ldr.w	fp, [r3]
 8004576:	b2e4      	uxtb	r4, r4
 8004578:	e006      	b.n	8004588 <rprintf2RamRom+0xa4>
 800457a:	3b30      	subs	r3, #48	; 0x30
 800457c:	2b09      	cmp	r3, #9
 800457e:	f240 818b 	bls.w	8004898 <rprintf2RamRom+0x3b4>
 8004582:	462c      	mov	r4, r5
 8004584:	f647 7bfe 	movw	fp, #32766	; 0x7ffe
 8004588:	5d33      	ldrb	r3, [r6, r4]
 800458a:	2b23      	cmp	r3, #35	; 0x23
 800458c:	bf04      	itt	eq
 800458e:	3401      	addeq	r4, #1
 8004590:	b2e4      	uxtbeq	r4, r4
 8004592:	5d33      	ldrb	r3, [r6, r4]
 8004594:	bf0c      	ite	eq
 8004596:	2101      	moveq	r1, #1
 8004598:	2100      	movne	r1, #0
 800459a:	2b6c      	cmp	r3, #108	; 0x6c
 800459c:	bf04      	itt	eq
 800459e:	3401      	addeq	r4, #1
 80045a0:	b2e4      	uxtbeq	r4, r4
 80045a2:	5d30      	ldrb	r0, [r6, r4]
 80045a4:	2866      	cmp	r0, #102	; 0x66
 80045a6:	f000 80c0 	beq.w	800472a <rprintf2RamRom+0x246>
 80045aa:	d808      	bhi.n	80045be <rprintf2RamRom+0xda>
 80045ac:	2863      	cmp	r0, #99	; 0x63
 80045ae:	f000 8126 	beq.w	80047fe <rprintf2RamRom+0x31a>
 80045b2:	2864      	cmp	r0, #100	; 0x64
 80045b4:	d00e      	beq.n	80045d4 <rprintf2RamRom+0xf0>
 80045b6:	2825      	cmp	r0, #37	; 0x25
 80045b8:	f040 8160 	bne.w	800487c <rprintf2RamRom+0x398>
 80045bc:	e15c      	b.n	8004878 <rprintf2RamRom+0x394>
 80045be:	2873      	cmp	r0, #115	; 0x73
 80045c0:	f000 8122 	beq.w	8004808 <rprintf2RamRom+0x324>
 80045c4:	d801      	bhi.n	80045ca <rprintf2RamRom+0xe6>
 80045c6:	286f      	cmp	r0, #111	; 0x6f
 80045c8:	e002      	b.n	80045d0 <rprintf2RamRom+0xec>
 80045ca:	2875      	cmp	r0, #117	; 0x75
 80045cc:	d047      	beq.n	800465e <rprintf2RamRom+0x17a>
 80045ce:	2878      	cmp	r0, #120	; 0x78
 80045d0:	d045      	beq.n	800465e <rprintf2RamRom+0x17a>
 80045d2:	e153      	b.n	800487c <rprintf2RamRom+0x398>
 80045d4:	49b6      	ldr	r1, [pc, #728]	; (80048b0 <rprintf2RamRom+0x3cc>)
 80045d6:	9b01      	ldr	r3, [sp, #4]
 80045d8:	468a      	mov	sl, r1
 80045da:	1d1a      	adds	r2, r3, #4
 80045dc:	681b      	ldr	r3, [r3, #0]
 80045de:	9201      	str	r2, [sp, #4]
 80045e0:	2b00      	cmp	r3, #0
 80045e2:	bfba      	itte	lt
 80045e4:	425b      	neglt	r3, r3
 80045e6:	2001      	movlt	r0, #1
 80045e8:	2000      	movge	r0, #0
 80045ea:	220a      	movs	r2, #10
 80045ec:	fb93 f5f2 	sdiv	r5, r3, r2
 80045f0:	468b      	mov	fp, r1
 80045f2:	fb02 3315 	mls	r3, r2, r5, r3
 80045f6:	3330      	adds	r3, #48	; 0x30
 80045f8:	f80b 3b01 	strb.w	r3, [fp], #1
 80045fc:	462b      	mov	r3, r5
 80045fe:	b10d      	cbz	r5, 8004604 <rprintf2RamRom+0x120>
 8004600:	4659      	mov	r1, fp
 8004602:	e7f2      	b.n	80045ea <rprintf2RamRom+0x106>
 8004604:	b118      	cbz	r0, 800460e <rprintf2RamRom+0x12a>
 8004606:	232d      	movs	r3, #45	; 0x2d
 8004608:	f101 0b02 	add.w	fp, r1, #2
 800460c:	704b      	strb	r3, [r1, #1]
 800460e:	ebcb 050a 	rsb	r5, fp, sl
 8004612:	443d      	add	r5, r7
 8004614:	f1b8 0f00 	cmp.w	r8, #0
 8004618:	d10c      	bne.n	8004634 <rprintf2RamRom+0x150>
 800461a:	462f      	mov	r7, r5
 800461c:	2f00      	cmp	r7, #0
 800461e:	dd04      	ble.n	800462a <rprintf2RamRom+0x146>
 8004620:	4648      	mov	r0, r9
 8004622:	f7ff ff4f 	bl	80044c4 <rprintfChar>
 8004626:	3f01      	subs	r7, #1
 8004628:	e7f8      	b.n	800461c <rprintf2RamRom+0x138>
 800462a:	1e6b      	subs	r3, r5, #1
 800462c:	2d00      	cmp	r5, #0
 800462e:	bfb4      	ite	lt
 8004630:	461d      	movlt	r5, r3
 8004632:	1b5d      	subge	r5, r3, r5
 8004634:	f10b 3bff 	add.w	fp, fp, #4294967295
 8004638:	45d3      	cmp	fp, sl
 800463a:	d304      	bcc.n	8004646 <rprintf2RamRom+0x162>
 800463c:	f81b 0901 	ldrb.w	r0, [fp], #-1
 8004640:	f7ff ff40 	bl	80044c4 <rprintfChar>
 8004644:	e7f8      	b.n	8004638 <rprintf2RamRom+0x154>
 8004646:	f1b8 0f00 	cmp.w	r8, #0
 800464a:	f000 8117 	beq.w	800487c <rprintf2RamRom+0x398>
 800464e:	2d00      	cmp	r5, #0
 8004650:	f340 8114 	ble.w	800487c <rprintf2RamRom+0x398>
 8004654:	2020      	movs	r0, #32
 8004656:	f7ff ff35 	bl	80044c4 <rprintfChar>
 800465a:	3d01      	subs	r5, #1
 800465c:	e7f7      	b.n	800464e <rprintf2RamRom+0x16a>
 800465e:	9b01      	ldr	r3, [sp, #4]
 8004660:	2875      	cmp	r0, #117	; 0x75
 8004662:	f103 0204 	add.w	r2, r3, #4
 8004666:	9201      	str	r2, [sp, #4]
 8004668:	681b      	ldr	r3, [r3, #0]
 800466a:	f8df a244 	ldr.w	sl, [pc, #580]	; 80048b0 <rprintf2RamRom+0x3cc>
 800466e:	d10c      	bne.n	800468a <rprintf2RamRom+0x1a6>
 8004670:	4655      	mov	r5, sl
 8004672:	220a      	movs	r2, #10
 8004674:	fbb3 f1f2 	udiv	r1, r3, r2
 8004678:	fb02 3311 	mls	r3, r2, r1, r3
 800467c:	3330      	adds	r3, #48	; 0x30
 800467e:	f805 3b01 	strb.w	r3, [r5], #1
 8004682:	460b      	mov	r3, r1
 8004684:	2900      	cmp	r1, #0
 8004686:	d1f4      	bne.n	8004672 <rprintf2RamRom+0x18e>
 8004688:	e026      	b.n	80046d8 <rprintf2RamRom+0x1f4>
 800468a:	286f      	cmp	r0, #111	; 0x6f
 800468c:	d10f      	bne.n	80046ae <rprintf2RamRom+0x1ca>
 800468e:	4652      	mov	r2, sl
 8004690:	4615      	mov	r5, r2
 8004692:	f003 0007 	and.w	r0, r3, #7
 8004696:	3030      	adds	r0, #48	; 0x30
 8004698:	08db      	lsrs	r3, r3, #3
 800469a:	f805 0b01 	strb.w	r0, [r5], #1
 800469e:	d001      	beq.n	80046a4 <rprintf2RamRom+0x1c0>
 80046a0:	462a      	mov	r2, r5
 80046a2:	e7f5      	b.n	8004690 <rprintf2RamRom+0x1ac>
 80046a4:	b1c1      	cbz	r1, 80046d8 <rprintf2RamRom+0x1f4>
 80046a6:	2330      	movs	r3, #48	; 0x30
 80046a8:	1c95      	adds	r5, r2, #2
 80046aa:	7053      	strb	r3, [r2, #1]
 80046ac:	e014      	b.n	80046d8 <rprintf2RamRom+0x1f4>
 80046ae:	2878      	cmp	r0, #120	; 0x78
 80046b0:	4655      	mov	r5, sl
 80046b2:	d111      	bne.n	80046d8 <rprintf2RamRom+0x1f4>
 80046b4:	f003 020f 	and.w	r2, r3, #15
 80046b8:	2a09      	cmp	r2, #9
 80046ba:	bfd4      	ite	le
 80046bc:	3230      	addle	r2, #48	; 0x30
 80046be:	3257      	addgt	r2, #87	; 0x57
 80046c0:	1c68      	adds	r0, r5, #1
 80046c2:	091b      	lsrs	r3, r3, #4
 80046c4:	702a      	strb	r2, [r5, #0]
 80046c6:	4605      	mov	r5, r0
 80046c8:	d1f4      	bne.n	80046b4 <rprintf2RamRom+0x1d0>
 80046ca:	b129      	cbz	r1, 80046d8 <rprintf2RamRom+0x1f4>
 80046cc:	4605      	mov	r5, r0
 80046ce:	2378      	movs	r3, #120	; 0x78
 80046d0:	f805 3b02 	strb.w	r3, [r5], #2
 80046d4:	2330      	movs	r3, #48	; 0x30
 80046d6:	7043      	strb	r3, [r0, #1]
 80046d8:	ebc5 030a 	rsb	r3, r5, sl
 80046dc:	441f      	add	r7, r3
 80046de:	f1b8 0f00 	cmp.w	r8, #0
 80046e2:	d10e      	bne.n	8004702 <rprintf2RamRom+0x21e>
 80046e4:	46bb      	mov	fp, r7
 80046e6:	f1bb 0f00 	cmp.w	fp, #0
 80046ea:	dd05      	ble.n	80046f8 <rprintf2RamRom+0x214>
 80046ec:	4648      	mov	r0, r9
 80046ee:	f7ff fee9 	bl	80044c4 <rprintfChar>
 80046f2:	f10b 3bff 	add.w	fp, fp, #4294967295
 80046f6:	e7f6      	b.n	80046e6 <rprintf2RamRom+0x202>
 80046f8:	1e7b      	subs	r3, r7, #1
 80046fa:	2f00      	cmp	r7, #0
 80046fc:	bfb4      	ite	lt
 80046fe:	461f      	movlt	r7, r3
 8004700:	1bdf      	subge	r7, r3, r7
 8004702:	3d01      	subs	r5, #1
 8004704:	4555      	cmp	r5, sl
 8004706:	d304      	bcc.n	8004712 <rprintf2RamRom+0x22e>
 8004708:	f815 0901 	ldrb.w	r0, [r5], #-1
 800470c:	f7ff feda 	bl	80044c4 <rprintfChar>
 8004710:	e7f8      	b.n	8004704 <rprintf2RamRom+0x220>
 8004712:	f1b8 0f00 	cmp.w	r8, #0
 8004716:	f000 80b1 	beq.w	800487c <rprintf2RamRom+0x398>
 800471a:	2f00      	cmp	r7, #0
 800471c:	f340 80ae 	ble.w	800487c <rprintf2RamRom+0x398>
 8004720:	2020      	movs	r0, #32
 8004722:	f7ff fecf 	bl	80044c4 <rprintfChar>
 8004726:	3f01      	subs	r7, #1
 8004728:	e7f7      	b.n	800471a <rprintf2RamRom+0x236>
 800472a:	9b01      	ldr	r3, [sp, #4]
 800472c:	3307      	adds	r3, #7
 800472e:	f023 0307 	bic.w	r3, r3, #7
 8004732:	f103 0208 	add.w	r2, r3, #8
 8004736:	e9d3 0100 	ldrd	r0, r1, [r3]
 800473a:	9201      	str	r2, [sp, #4]
 800473c:	f7fc f95a 	bl	80009f4 <__aeabi_d2f>
 8004740:	2f00      	cmp	r7, #0
 8004742:	bf08      	it	eq
 8004744:	2709      	moveq	r7, #9
 8004746:	2100      	movs	r1, #0
 8004748:	4680      	mov	r8, r0
 800474a:	b2fd      	uxtb	r5, r7
 800474c:	f7fc fc4e 	bl	8000fec <__aeabi_fcmplt>
 8004750:	b110      	cbz	r0, 8004758 <rprintf2RamRom+0x274>
 8004752:	202d      	movs	r0, #45	; 0x2d
 8004754:	f7ff feb6 	bl	80044c4 <rprintfChar>
 8004758:	4640      	mov	r0, r8
 800475a:	2100      	movs	r1, #0
 800475c:	f7fc fc64 	bl	8001028 <__aeabi_fcmpgt>
 8004760:	b908      	cbnz	r0, 8004766 <rprintf2RamRom+0x282>
 8004762:	f108 4800 	add.w	r8, r8, #2147483648	; 0x80000000
 8004766:	f04f 0a0f 	mov.w	sl, #15
 800476a:	f04f 597e 	mov.w	r9, #1065353216	; 0x3f800000
 800476e:	4649      	mov	r1, r9
 8004770:	4640      	mov	r0, r8
 8004772:	f7fc fb51 	bl	8000e18 <__aeabi_fdiv>
 8004776:	494f      	ldr	r1, [pc, #316]	; (80048b4 <rprintf2RamRom+0x3d0>)
 8004778:	f7fc fc38 	bl	8000fec <__aeabi_fcmplt>
 800477c:	b948      	cbnz	r0, 8004792 <rprintf2RamRom+0x2ae>
 800477e:	4648      	mov	r0, r9
 8004780:	494c      	ldr	r1, [pc, #304]	; (80048b4 <rprintf2RamRom+0x3d0>)
 8004782:	f7fc fa95 	bl	8000cb0 <__aeabi_fmul>
 8004786:	f10a 3aff 	add.w	sl, sl, #4294967295
 800478a:	f01a 0aff 	ands.w	sl, sl, #255	; 0xff
 800478e:	4681      	mov	r9, r0
 8004790:	d1ed      	bne.n	800476e <rprintf2RamRom+0x28a>
 8004792:	2701      	movs	r7, #1
 8004794:	f04f 0a00 	mov.w	sl, #0
 8004798:	4649      	mov	r1, r9
 800479a:	4640      	mov	r0, r8
 800479c:	f7fc fb3c 	bl	8000e18 <__aeabi_fdiv>
 80047a0:	f7fc fc4c 	bl	800103c <__aeabi_f2uiz>
 80047a4:	fa5f fb80 	uxtb.w	fp, r0
 80047a8:	f10b 0030 	add.w	r0, fp, #48	; 0x30
 80047ac:	b2c0      	uxtb	r0, r0
 80047ae:	f7ff fe89 	bl	80044c4 <rprintfChar>
 80047b2:	4648      	mov	r0, r9
 80047b4:	f04f 517e 	mov.w	r1, #1065353216	; 0x3f800000
 80047b8:	f7fc fc0e 	bl	8000fd8 <__aeabi_fcmpeq>
 80047bc:	b120      	cbz	r0, 80047c8 <rprintf2RamRom+0x2e4>
 80047be:	b125      	cbz	r5, 80047ca <rprintf2RamRom+0x2e6>
 80047c0:	202e      	movs	r0, #46	; 0x2e
 80047c2:	f7ff fe7f 	bl	80044c4 <rprintfChar>
 80047c6:	e000      	b.n	80047ca <rprintf2RamRom+0x2e6>
 80047c8:	b92f      	cbnz	r7, 80047d6 <rprintf2RamRom+0x2f2>
 80047ca:	f10a 0a01 	add.w	sl, sl, #1
 80047ce:	fa5f fa8a 	uxtb.w	sl, sl
 80047d2:	2700      	movs	r7, #0
 80047d4:	e000      	b.n	80047d8 <rprintf2RamRom+0x2f4>
 80047d6:	2701      	movs	r7, #1
 80047d8:	4658      	mov	r0, fp
 80047da:	f7fc fa15 	bl	8000c08 <__aeabi_i2f>
 80047de:	4649      	mov	r1, r9
 80047e0:	f7fc fa66 	bl	8000cb0 <__aeabi_fmul>
 80047e4:	4601      	mov	r1, r0
 80047e6:	4640      	mov	r0, r8
 80047e8:	f7fc f958 	bl	8000a9c <__aeabi_fsub>
 80047ec:	4931      	ldr	r1, [pc, #196]	; (80048b4 <rprintf2RamRom+0x3d0>)
 80047ee:	4680      	mov	r8, r0
 80047f0:	4648      	mov	r0, r9
 80047f2:	f7fc fb11 	bl	8000e18 <__aeabi_fdiv>
 80047f6:	45aa      	cmp	sl, r5
 80047f8:	4681      	mov	r9, r0
 80047fa:	d9cd      	bls.n	8004798 <rprintf2RamRom+0x2b4>
 80047fc:	e03e      	b.n	800487c <rprintf2RamRom+0x398>
 80047fe:	9b01      	ldr	r3, [sp, #4]
 8004800:	1d1a      	adds	r2, r3, #4
 8004802:	9201      	str	r2, [sp, #4]
 8004804:	7818      	ldrb	r0, [r3, #0]
 8004806:	e037      	b.n	8004878 <rprintf2RamRom+0x394>
 8004808:	9b01      	ldr	r3, [sp, #4]
 800480a:	1d1a      	adds	r2, r3, #4
 800480c:	f8d3 a000 	ldr.w	sl, [r3]
 8004810:	4b29      	ldr	r3, [pc, #164]	; (80048b8 <rprintf2RamRom+0x3d4>)
 8004812:	9201      	str	r2, [sp, #4]
 8004814:	f1ba 0f00 	cmp.w	sl, #0
 8004818:	bf08      	it	eq
 800481a:	469a      	moveq	sl, r3
 800481c:	2300      	movs	r3, #0
 800481e:	f81a 2003 	ldrb.w	r2, [sl, r3]
 8004822:	1c59      	adds	r1, r3, #1
 8004824:	b2cb      	uxtb	r3, r1
 8004826:	2a00      	cmp	r2, #0
 8004828:	d1f9      	bne.n	800481e <rprintf2RamRom+0x33a>
 800482a:	1afd      	subs	r5, r7, r3
 800482c:	f1b8 0f00 	cmp.w	r8, #0
 8004830:	d10c      	bne.n	800484c <rprintf2RamRom+0x368>
 8004832:	462f      	mov	r7, r5
 8004834:	2f00      	cmp	r7, #0
 8004836:	dd04      	ble.n	8004842 <rprintf2RamRom+0x35e>
 8004838:	4648      	mov	r0, r9
 800483a:	f7ff fe43 	bl	80044c4 <rprintfChar>
 800483e:	3f01      	subs	r7, #1
 8004840:	e7f8      	b.n	8004834 <rprintf2RamRom+0x350>
 8004842:	1e6b      	subs	r3, r5, #1
 8004844:	2d00      	cmp	r5, #0
 8004846:	bfb4      	ite	lt
 8004848:	461d      	movlt	r5, r3
 800484a:	1b5d      	subge	r5, r3, r5
 800484c:	f10a 37ff 	add.w	r7, sl, #4294967295
 8004850:	f817 0f01 	ldrb.w	r0, [r7, #1]!
 8004854:	b130      	cbz	r0, 8004864 <rprintf2RamRom+0x380>
 8004856:	ebca 0307 	rsb	r3, sl, r7
 800485a:	455b      	cmp	r3, fp
 800485c:	da02      	bge.n	8004864 <rprintf2RamRom+0x380>
 800485e:	f7ff fe31 	bl	80044c4 <rprintfChar>
 8004862:	e7f5      	b.n	8004850 <rprintf2RamRom+0x36c>
 8004864:	f1b8 0f00 	cmp.w	r8, #0
 8004868:	d008      	beq.n	800487c <rprintf2RamRom+0x398>
 800486a:	2d00      	cmp	r5, #0
 800486c:	dd06      	ble.n	800487c <rprintf2RamRom+0x398>
 800486e:	2020      	movs	r0, #32
 8004870:	f7ff fe28 	bl	80044c4 <rprintfChar>
 8004874:	3d01      	subs	r5, #1
 8004876:	e7f8      	b.n	800486a <rprintf2RamRom+0x386>
 8004878:	f7ff fe24 	bl	80044c4 <rprintfChar>
 800487c:	3401      	adds	r4, #1
 800487e:	b2e5      	uxtb	r5, r4
 8004880:	e638      	b.n	80044f4 <rprintf2RamRom+0x10>
 8004882:	f001 fadf 	bl	8005e44 <atoiRamRom>
 8004886:	4607      	mov	r7, r0
 8004888:	5d33      	ldrb	r3, [r6, r4]
 800488a:	3b30      	subs	r3, #48	; 0x30
 800488c:	2b09      	cmp	r3, #9
 800488e:	f63f ae63 	bhi.w	8004558 <rprintf2RamRom+0x74>
 8004892:	3401      	adds	r4, #1
 8004894:	b2e4      	uxtb	r4, r4
 8004896:	e7f7      	b.n	8004888 <rprintf2RamRom+0x3a4>
 8004898:	f001 fad4 	bl	8005e44 <atoiRamRom>
 800489c:	462c      	mov	r4, r5
 800489e:	4683      	mov	fp, r0
 80048a0:	5d33      	ldrb	r3, [r6, r4]
 80048a2:	3b30      	subs	r3, #48	; 0x30
 80048a4:	2b09      	cmp	r3, #9
 80048a6:	f63f ae6f 	bhi.w	8004588 <rprintf2RamRom+0xa4>
 80048aa:	3401      	adds	r4, #1
 80048ac:	b2e4      	uxtb	r4, r4
 80048ae:	e7f7      	b.n	80048a0 <rprintf2RamRom+0x3bc>
 80048b0:	200010e1 	andcs	r1, r0, r1, ror #1
 80048b4:	41200000 	teqmi	r0, r0
 80048b8:	0800ac2e 	stmdaeq	r0, {r1, r2, r3, r5, sl, fp, sp, pc}
 80048bc:	b003      	add	sp, #12
 80048be:	e8bd 4ff0 	ldmia.w	sp!, {r4, r5, r6, r7, r8, r9, sl, fp, lr}
 80048c2:	b004      	add	sp, #16
 80048c4:	4770      	bx	lr
 80048c6:	bf00      	nop

080048c8 <rcvr_datablock>:
 80048c8:	4b12      	ldr	r3, [pc, #72]	; (8004914 <rcvr_datablock+0x4c>)
 80048ca:	b570      	push	{r4, r5, r6, lr}
 80048cc:	4606      	mov	r6, r0
 80048ce:	460d      	mov	r5, r1
 80048d0:	461c      	mov	r4, r3
 80048d2:	220a      	movs	r2, #10
 80048d4:	601a      	str	r2, [r3, #0]
 80048d6:	f7ff fddd 	bl	8004494 <rcvr_spi>
 80048da:	28ff      	cmp	r0, #255	; 0xff
 80048dc:	d103      	bne.n	80048e6 <rcvr_datablock+0x1e>
 80048de:	6820      	ldr	r0, [r4, #0]
 80048e0:	2800      	cmp	r0, #0
 80048e2:	d1f8      	bne.n	80048d6 <rcvr_datablock+0xe>
 80048e4:	bd70      	pop	{r4, r5, r6, pc}
 80048e6:	28fe      	cmp	r0, #254	; 0xfe
 80048e8:	d110      	bne.n	800490c <rcvr_datablock+0x44>
 80048ea:	4b0b      	ldr	r3, [pc, #44]	; (8004918 <rcvr_datablock+0x50>)
 80048ec:	781a      	ldrb	r2, [r3, #0]
 80048ee:	461c      	mov	r4, r3
 80048f0:	b102      	cbz	r2, 80048f4 <rcvr_datablock+0x2c>
 80048f2:	3502      	adds	r5, #2
 80048f4:	2001      	movs	r0, #1
 80048f6:	4631      	mov	r1, r6
 80048f8:	462a      	mov	r2, r5
 80048fa:	f7ff fd55 	bl	80043a8 <stm32_dma_transfer>
 80048fe:	7823      	ldrb	r3, [r4, #0]
 8004900:	b933      	cbnz	r3, 8004910 <rcvr_datablock+0x48>
 8004902:	f7ff fdc7 	bl	8004494 <rcvr_spi>
 8004906:	f7ff fdc5 	bl	8004494 <rcvr_spi>
 800490a:	e001      	b.n	8004910 <rcvr_datablock+0x48>
 800490c:	2000      	movs	r0, #0
 800490e:	bd70      	pop	{r4, r5, r6, pc}
 8004910:	2001      	movs	r0, #1
 8004912:	bd70      	pop	{r4, r5, r6, pc}
 8004914:	20001170 	andcs	r1, r0, r0, ror r1
 8004918:	200010e0 	andcs	r1, r0, r0, ror #1

0800491c <release_spi>:
 800491c:	b508      	push	{r3, lr}
 800491e:	4804      	ldr	r0, [pc, #16]	; (8004930 <release_spi+0x14>)
 8004920:	f44f 7180 	mov.w	r1, #256	; 0x100
 8004924:	f004 f8b2 	bl	8008a8c <GPIO_SetBits>
 8004928:	e8bd 4008 	ldmia.w	sp!, {r3, lr}
 800492c:	f7ff bdb2 	b.w	8004494 <rcvr_spi>
 8004930:	40010c00 	andmi	r0, r1, r0, lsl #24

08004934 <wait_ready.lto_priv.49>:
 8004934:	b510      	push	{r4, lr}
 8004936:	4c06      	ldr	r4, [pc, #24]	; (8004950 <wait_ready.lto_priv.49+0x1c>)
 8004938:	2332      	movs	r3, #50	; 0x32
 800493a:	6023      	str	r3, [r4, #0]
 800493c:	f7ff fdaa 	bl	8004494 <rcvr_spi>
 8004940:	f7ff fda8 	bl	8004494 <rcvr_spi>
 8004944:	28ff      	cmp	r0, #255	; 0xff
 8004946:	d002      	beq.n	800494e <wait_ready.lto_priv.49+0x1a>
 8004948:	6823      	ldr	r3, [r4, #0]
 800494a:	2b00      	cmp	r3, #0
 800494c:	d1f8      	bne.n	8004940 <wait_ready.lto_priv.49+0xc>
 800494e:	bd10      	pop	{r4, pc}
 8004950:	20001174 	andcs	r1, r0, r4, ror r1

08004954 <send_cmd.lto_priv.56>:
 8004954:	0602      	lsls	r2, r0, #24
 8004956:	b538      	push	{r3, r4, r5, lr}
 8004958:	4604      	mov	r4, r0
 800495a:	460d      	mov	r5, r1
 800495c:	d507      	bpl.n	800496e <send_cmd.lto_priv.56+0x1a>
 800495e:	2077      	movs	r0, #119	; 0x77
 8004960:	2100      	movs	r1, #0
 8004962:	f7ff fff7 	bl	8004954 <send_cmd.lto_priv.56>
 8004966:	2801      	cmp	r0, #1
 8004968:	d839      	bhi.n	80049de <send_cmd.lto_priv.56+0x8a>
 800496a:	f004 047f 	and.w	r4, r4, #127	; 0x7f
 800496e:	481c      	ldr	r0, [pc, #112]	; (80049e0 <send_cmd.lto_priv.56+0x8c>)
 8004970:	f44f 7180 	mov.w	r1, #256	; 0x100
 8004974:	f004 f88a 	bl	8008a8c <GPIO_SetBits>
 8004978:	4819      	ldr	r0, [pc, #100]	; (80049e0 <send_cmd.lto_priv.56+0x8c>)
 800497a:	f44f 7180 	mov.w	r1, #256	; 0x100
 800497e:	f004 f887 	bl	8008a90 <GPIO_ResetBits>
 8004982:	f7ff ffd7 	bl	8004934 <wait_ready.lto_priv.49>
 8004986:	28ff      	cmp	r0, #255	; 0xff
 8004988:	d128      	bne.n	80049dc <send_cmd.lto_priv.56+0x88>
 800498a:	4620      	mov	r0, r4
 800498c:	f7ff fd70 	bl	8004470 <stm32_spi_rw>
 8004990:	0e28      	lsrs	r0, r5, #24
 8004992:	f7ff fd6d 	bl	8004470 <stm32_spi_rw>
 8004996:	f3c5 4007 	ubfx	r0, r5, #16, #8
 800499a:	f7ff fd69 	bl	8004470 <stm32_spi_rw>
 800499e:	f3c5 2007 	ubfx	r0, r5, #8, #8
 80049a2:	f7ff fd65 	bl	8004470 <stm32_spi_rw>
 80049a6:	b2e8      	uxtb	r0, r5
 80049a8:	f7ff fd62 	bl	8004470 <stm32_spi_rw>
 80049ac:	2c40      	cmp	r4, #64	; 0x40
 80049ae:	d004      	beq.n	80049ba <send_cmd.lto_priv.56+0x66>
 80049b0:	2c48      	cmp	r4, #72	; 0x48
 80049b2:	bf0c      	ite	eq
 80049b4:	2087      	moveq	r0, #135	; 0x87
 80049b6:	2001      	movne	r0, #1
 80049b8:	e000      	b.n	80049bc <send_cmd.lto_priv.56+0x68>
 80049ba:	2095      	movs	r0, #149	; 0x95
 80049bc:	f7ff fd58 	bl	8004470 <stm32_spi_rw>
 80049c0:	2c4c      	cmp	r4, #76	; 0x4c
 80049c2:	d101      	bne.n	80049c8 <send_cmd.lto_priv.56+0x74>
 80049c4:	f7ff fd66 	bl	8004494 <rcvr_spi>
 80049c8:	240a      	movs	r4, #10
 80049ca:	f7ff fd63 	bl	8004494 <rcvr_spi>
 80049ce:	0603      	lsls	r3, r0, #24
 80049d0:	d505      	bpl.n	80049de <send_cmd.lto_priv.56+0x8a>
 80049d2:	3c01      	subs	r4, #1
 80049d4:	f014 04ff 	ands.w	r4, r4, #255	; 0xff
 80049d8:	d1f7      	bne.n	80049ca <send_cmd.lto_priv.56+0x76>
 80049da:	bd38      	pop	{r3, r4, r5, pc}
 80049dc:	20ff      	movs	r0, #255	; 0xff
 80049de:	bd38      	pop	{r3, r4, r5, pc}
 80049e0:	40010c00 	andmi	r0, r1, r0, lsl #24

080049e4 <disk_write>:
 80049e4:	b570      	push	{r4, r5, r6, lr}
 80049e6:	460d      	mov	r5, r1
 80049e8:	4616      	mov	r6, r2
 80049ea:	461c      	mov	r4, r3
 80049ec:	2800      	cmp	r0, #0
 80049ee:	d14f      	bne.n	8004a90 <disk_write+0xac>
 80049f0:	2b00      	cmp	r3, #0
 80049f2:	d04d      	beq.n	8004a90 <disk_write+0xac>
 80049f4:	4b29      	ldr	r3, [pc, #164]	; (8004a9c <disk_write+0xb8>)
 80049f6:	781a      	ldrb	r2, [r3, #0]
 80049f8:	07d0      	lsls	r0, r2, #31
 80049fa:	d44b      	bmi.n	8004a94 <disk_write+0xb0>
 80049fc:	781b      	ldrb	r3, [r3, #0]
 80049fe:	0759      	lsls	r1, r3, #29
 8004a00:	d44a      	bmi.n	8004a98 <disk_write+0xb4>
 8004a02:	4b27      	ldr	r3, [pc, #156]	; (8004aa0 <disk_write+0xbc>)
 8004a04:	f893 3081 	ldrb.w	r3, [r3, #129]	; 0x81
 8004a08:	071a      	lsls	r2, r3, #28
 8004a0a:	bf58      	it	pl
 8004a0c:	0276      	lslpl	r6, r6, #9
 8004a0e:	2c01      	cmp	r4, #1
 8004a10:	d114      	bne.n	8004a3c <disk_write+0x58>
 8004a12:	2058      	movs	r0, #88	; 0x58
 8004a14:	4631      	mov	r1, r6
 8004a16:	f7ff ff9d 	bl	8004954 <send_cmd.lto_priv.56>
 8004a1a:	b108      	cbz	r0, 8004a20 <disk_write+0x3c>
 8004a1c:	2401      	movs	r4, #1
 8004a1e:	e031      	b.n	8004a84 <disk_write+0xa0>
 8004a20:	f7ff ff88 	bl	8004934 <wait_ready.lto_priv.49>
 8004a24:	28ff      	cmp	r0, #255	; 0xff
 8004a26:	d1f9      	bne.n	8004a1c <disk_write+0x38>
 8004a28:	20fe      	movs	r0, #254	; 0xfe
 8004a2a:	f7ff fd21 	bl	8004470 <stm32_spi_rw>
 8004a2e:	4628      	mov	r0, r5
 8004a30:	f7ff fd33 	bl	800449a <xmit_datablock.part.1>
 8004a34:	fab0 f480 	clz	r4, r0
 8004a38:	0964      	lsrs	r4, r4, #5
 8004a3a:	e023      	b.n	8004a84 <disk_write+0xa0>
 8004a3c:	f013 0f06 	tst.w	r3, #6
 8004a40:	d003      	beq.n	8004a4a <disk_write+0x66>
 8004a42:	20d7      	movs	r0, #215	; 0xd7
 8004a44:	4621      	mov	r1, r4
 8004a46:	f7ff ff85 	bl	8004954 <send_cmd.lto_priv.56>
 8004a4a:	2059      	movs	r0, #89	; 0x59
 8004a4c:	4631      	mov	r1, r6
 8004a4e:	f7ff ff81 	bl	8004954 <send_cmd.lto_priv.56>
 8004a52:	b9b8      	cbnz	r0, 8004a84 <disk_write+0xa0>
 8004a54:	f7ff ff6e 	bl	8004934 <wait_ready.lto_priv.49>
 8004a58:	28ff      	cmp	r0, #255	; 0xff
 8004a5a:	d10c      	bne.n	8004a76 <disk_write+0x92>
 8004a5c:	20fc      	movs	r0, #252	; 0xfc
 8004a5e:	f7ff fd07 	bl	8004470 <stm32_spi_rw>
 8004a62:	4628      	mov	r0, r5
 8004a64:	f7ff fd19 	bl	800449a <xmit_datablock.part.1>
 8004a68:	b128      	cbz	r0, 8004a76 <disk_write+0x92>
 8004a6a:	3c01      	subs	r4, #1
 8004a6c:	f014 04ff 	ands.w	r4, r4, #255	; 0xff
 8004a70:	f505 7500 	add.w	r5, r5, #512	; 0x200
 8004a74:	d1ee      	bne.n	8004a54 <disk_write+0x70>
 8004a76:	f7ff ff5d 	bl	8004934 <wait_ready.lto_priv.49>
 8004a7a:	28ff      	cmp	r0, #255	; 0xff
 8004a7c:	d1ce      	bne.n	8004a1c <disk_write+0x38>
 8004a7e:	20fd      	movs	r0, #253	; 0xfd
 8004a80:	f7ff fcf6 	bl	8004470 <stm32_spi_rw>
 8004a84:	f7ff ff4a 	bl	800491c <release_spi>
 8004a88:	1c20      	adds	r0, r4, #0
 8004a8a:	bf18      	it	ne
 8004a8c:	2001      	movne	r0, #1
 8004a8e:	bd70      	pop	{r4, r5, r6, pc}
 8004a90:	2004      	movs	r0, #4
 8004a92:	bd70      	pop	{r4, r5, r6, pc}
 8004a94:	2003      	movs	r0, #3
 8004a96:	bd70      	pop	{r4, r5, r6, pc}
 8004a98:	2002      	movs	r0, #2
 8004a9a:	bd70      	pop	{r4, r5, r6, pc}
 8004a9c:	200000f0 	strdcs	r0, [r0], -r0	; <UNPREDICTABLE>
 8004aa0:	200010e0 	andcs	r1, r0, r0, ror #1

08004aa4 <disk_read>:
 8004aa4:	b570      	push	{r4, r5, r6, lr}
 8004aa6:	460e      	mov	r6, r1
 8004aa8:	461c      	mov	r4, r3
 8004aaa:	4611      	mov	r1, r2
 8004aac:	2800      	cmp	r0, #0
 8004aae:	d138      	bne.n	8004b22 <disk_read+0x7e>
 8004ab0:	2b00      	cmp	r3, #0
 8004ab2:	d036      	beq.n	8004b22 <disk_read+0x7e>
 8004ab4:	4b1e      	ldr	r3, [pc, #120]	; (8004b30 <disk_read+0x8c>)
 8004ab6:	781b      	ldrb	r3, [r3, #0]
 8004ab8:	07da      	lsls	r2, r3, #31
 8004aba:	d434      	bmi.n	8004b26 <disk_read+0x82>
 8004abc:	4d1d      	ldr	r5, [pc, #116]	; (8004b34 <disk_read+0x90>)
 8004abe:	f895 3081 	ldrb.w	r3, [r5, #129]	; 0x81
 8004ac2:	071b      	lsls	r3, r3, #28
 8004ac4:	bf58      	it	pl
 8004ac6:	0249      	lslpl	r1, r1, #9
 8004ac8:	2c01      	cmp	r4, #1
 8004aca:	d10c      	bne.n	8004ae6 <disk_read+0x42>
 8004acc:	2051      	movs	r0, #81	; 0x51
 8004ace:	f7ff ff41 	bl	8004954 <send_cmd.lto_priv.56>
 8004ad2:	b9f0      	cbnz	r0, 8004b12 <disk_read+0x6e>
 8004ad4:	4630      	mov	r0, r6
 8004ad6:	f44f 7100 	mov.w	r1, #512	; 0x200
 8004ada:	f7ff fef5 	bl	80048c8 <rcvr_datablock>
 8004ade:	fab0 f480 	clz	r4, r0
 8004ae2:	0964      	lsrs	r4, r4, #5
 8004ae4:	e015      	b.n	8004b12 <disk_read+0x6e>
 8004ae6:	2052      	movs	r0, #82	; 0x52
 8004ae8:	f7ff ff34 	bl	8004954 <send_cmd.lto_priv.56>
 8004aec:	b988      	cbnz	r0, 8004b12 <disk_read+0x6e>
 8004aee:	4630      	mov	r0, r6
 8004af0:	f44f 7100 	mov.w	r1, #512	; 0x200
 8004af4:	f7ff fee8 	bl	80048c8 <rcvr_datablock>
 8004af8:	b138      	cbz	r0, 8004b0a <disk_read+0x66>
 8004afa:	782b      	ldrb	r3, [r5, #0]
 8004afc:	b9ab      	cbnz	r3, 8004b2a <disk_read+0x86>
 8004afe:	3c01      	subs	r4, #1
 8004b00:	f014 04ff 	ands.w	r4, r4, #255	; 0xff
 8004b04:	f506 7600 	add.w	r6, r6, #512	; 0x200
 8004b08:	d1f1      	bne.n	8004aee <disk_read+0x4a>
 8004b0a:	204c      	movs	r0, #76	; 0x4c
 8004b0c:	2100      	movs	r1, #0
 8004b0e:	f7ff ff21 	bl	8004954 <send_cmd.lto_priv.56>
 8004b12:	782b      	ldrb	r3, [r5, #0]
 8004b14:	b90b      	cbnz	r3, 8004b1a <disk_read+0x76>
 8004b16:	f7ff ff01 	bl	800491c <release_spi>
 8004b1a:	1c20      	adds	r0, r4, #0
 8004b1c:	bf18      	it	ne
 8004b1e:	2001      	movne	r0, #1
 8004b20:	bd70      	pop	{r4, r5, r6, pc}
 8004b22:	2004      	movs	r0, #4
 8004b24:	bd70      	pop	{r4, r5, r6, pc}
 8004b26:	2003      	movs	r0, #3
 8004b28:	bd70      	pop	{r4, r5, r6, pc}
 8004b2a:	2000      	movs	r0, #0
 8004b2c:	bd70      	pop	{r4, r5, r6, pc}
 8004b2e:	bf00      	nop
 8004b30:	200000f0 	strdcs	r0, [r0], -r0	; <UNPREDICTABLE>
 8004b34:	200010e0 	andcs	r1, r0, r0, ror #1

08004b38 <disk_initialize>:
 8004b38:	e92d 41f0 	stmdb	sp!, {r4, r5, r6, r7, r8, lr}
 8004b3c:	b088      	sub	sp, #32
 8004b3e:	2800      	cmp	r0, #0
 8004b40:	f040 80fa 	bne.w	8004d38 <disk_initialize+0x200>
 8004b44:	4b7e      	ldr	r3, [pc, #504]	; (8004d40 <disk_initialize+0x208>)
 8004b46:	781a      	ldrb	r2, [r3, #0]
 8004b48:	461f      	mov	r7, r3
 8004b4a:	f012 0f02 	tst.w	r2, #2
 8004b4e:	d001      	beq.n	8004b54 <disk_initialize+0x1c>
 8004b50:	7818      	ldrb	r0, [r3, #0]
 8004b52:	e0ef      	b.n	8004d34 <disk_initialize+0x1fc>
 8004b54:	2008      	movs	r0, #8
 8004b56:	2101      	movs	r1, #1
 8004b58:	f004 f96c 	bl	8008e34 <RCC_APB2PeriphClockCmd>
 8004b5c:	4e79      	ldr	r6, [pc, #484]	; (8004d44 <disk_initialize+0x20c>)
 8004b5e:	f44f 4080 	mov.w	r0, #16384	; 0x4000
 8004b62:	2101      	movs	r1, #1
 8004b64:	f004 f972 	bl	8008e4c <RCC_APB1PeriphClockCmd>
 8004b68:	2319      	movs	r3, #25
 8004b6a:	6033      	str	r3, [r6, #0]
 8004b6c:	6835      	ldr	r5, [r6, #0]
 8004b6e:	2d00      	cmp	r5, #0
 8004b70:	d1fc      	bne.n	8004b6c <disk_initialize+0x34>
 8004b72:	2310      	movs	r3, #16
 8004b74:	f44f 7880 	mov.w	r8, #256	; 0x100
 8004b78:	2403      	movs	r4, #3
 8004b7a:	4873      	ldr	r0, [pc, #460]	; (8004d48 <disk_initialize+0x210>)
 8004b7c:	a902      	add	r1, sp, #8
 8004b7e:	f88d 300b 	strb.w	r3, [sp, #11]
 8004b82:	f8ad 8008 	strh.w	r8, [sp, #8]
 8004b86:	f88d 400a 	strb.w	r4, [sp, #10]
 8004b8a:	f003 ff31 	bl	80089f0 <GPIO_Init>
 8004b8e:	4641      	mov	r1, r8
 8004b90:	486d      	ldr	r0, [pc, #436]	; (8004d48 <disk_initialize+0x210>)
 8004b92:	f003 ff7b 	bl	8008a8c <GPIO_SetBits>
 8004b96:	f44f 4320 	mov.w	r3, #40960	; 0xa000
 8004b9a:	f8ad 3008 	strh.w	r3, [sp, #8]
 8004b9e:	486a      	ldr	r0, [pc, #424]	; (8004d48 <disk_initialize+0x210>)
 8004ba0:	2318      	movs	r3, #24
 8004ba2:	a902      	add	r1, sp, #8
 8004ba4:	f88d 300b 	strb.w	r3, [sp, #11]
 8004ba8:	f88d 400a 	strb.w	r4, [sp, #10]
 8004bac:	f003 ff20 	bl	80089f0 <GPIO_Init>
 8004bb0:	f44f 4380 	mov.w	r3, #16384	; 0x4000
 8004bb4:	f8ad 3008 	strh.w	r3, [sp, #8]
 8004bb8:	4863      	ldr	r0, [pc, #396]	; (8004d48 <disk_initialize+0x210>)
 8004bba:	2348      	movs	r3, #72	; 0x48
 8004bbc:	a902      	add	r1, sp, #8
 8004bbe:	f88d 300b 	strb.w	r3, [sp, #11]
 8004bc2:	f003 ff15 	bl	80089f0 <GPIO_Init>
 8004bc6:	f44f 7382 	mov.w	r3, #260	; 0x104
 8004bca:	f8ad 300e 	strh.w	r3, [sp, #14]
 8004bce:	f44f 7300 	mov.w	r3, #512	; 0x200
 8004bd2:	f8ad 3016 	strh.w	r3, [sp, #22]
 8004bd6:	f10d 080c 	add.w	r8, sp, #12
 8004bda:	2338      	movs	r3, #56	; 0x38
 8004bdc:	f8ad 3018 	strh.w	r3, [sp, #24]
 8004be0:	485a      	ldr	r0, [pc, #360]	; (8004d4c <disk_initialize+0x214>)
 8004be2:	2307      	movs	r3, #7
 8004be4:	4641      	mov	r1, r8
 8004be6:	f8ad 301c 	strh.w	r3, [sp, #28]
 8004bea:	f8ad 500c 	strh.w	r5, [sp, #12]
 8004bee:	f8ad 5010 	strh.w	r5, [sp, #16]
 8004bf2:	f8ad 5012 	strh.w	r5, [sp, #18]
 8004bf6:	f8ad 5014 	strh.w	r5, [sp, #20]
 8004bfa:	f8ad 501a 	strh.w	r5, [sp, #26]
 8004bfe:	f004 f9b7 	bl	8008f70 <SPI_Init>
 8004c02:	4852      	ldr	r0, [pc, #328]	; (8004d4c <disk_initialize+0x214>)
 8004c04:	4629      	mov	r1, r5
 8004c06:	f004 f9ec 	bl	8008fe2 <SPI_CalculateCRC>
 8004c0a:	4850      	ldr	r0, [pc, #320]	; (8004d4c <disk_initialize+0x214>)
 8004c0c:	2101      	movs	r1, #1
 8004c0e:	f004 f9ce 	bl	8008fae <SPI_Cmd>
 8004c12:	4c4e      	ldr	r4, [pc, #312]	; (8004d4c <disk_initialize+0x214>)
 8004c14:	2102      	movs	r1, #2
 8004c16:	4620      	mov	r0, r4
 8004c18:	f004 f9ef 	bl	8008ffa <SPI_I2S_GetFlagStatus>
 8004c1c:	2800      	cmp	r0, #0
 8004c1e:	d0f8      	beq.n	8004c12 <disk_initialize+0xda>
 8004c20:	4620      	mov	r0, r4
 8004c22:	f004 f9db 	bl	8008fdc <SPI_I2S_ReceiveData>
 8004c26:	b2c0      	uxtb	r0, r0
 8004c28:	f88d 0007 	strb.w	r0, [sp, #7]
 8004c2c:	2001      	movs	r0, #1
 8004c2e:	4601      	mov	r1, r0
 8004c30:	f004 f8f4 	bl	8008e1c <RCC_AHBPeriphClockCmd>
 8004c34:	8823      	ldrh	r3, [r4, #0]
 8004c36:	b29b      	uxth	r3, r3
 8004c38:	f043 0338 	orr.w	r3, r3, #56	; 0x38
 8004c3c:	8023      	strh	r3, [r4, #0]
 8004c3e:	240a      	movs	r4, #10
 8004c40:	3c01      	subs	r4, #1
 8004c42:	f7ff fc27 	bl	8004494 <rcvr_spi>
 8004c46:	f014 04ff 	ands.w	r4, r4, #255	; 0xff
 8004c4a:	d1f9      	bne.n	8004c40 <disk_initialize+0x108>
 8004c4c:	2040      	movs	r0, #64	; 0x40
 8004c4e:	4621      	mov	r1, r4
 8004c50:	f7ff fe80 	bl	8004954 <send_cmd.lto_priv.56>
 8004c54:	2801      	cmp	r0, #1
 8004c56:	d001      	beq.n	8004c5c <disk_initialize+0x124>
 8004c58:	2400      	movs	r4, #0
 8004c5a:	e059      	b.n	8004d10 <disk_initialize+0x1d8>
 8004c5c:	2364      	movs	r3, #100	; 0x64
 8004c5e:	2048      	movs	r0, #72	; 0x48
 8004c60:	f44f 71d5 	mov.w	r1, #426	; 0x1aa
 8004c64:	6033      	str	r3, [r6, #0]
 8004c66:	f7ff fe75 	bl	8004954 <send_cmd.lto_priv.56>
 8004c6a:	2801      	cmp	r0, #1
 8004c6c:	d131      	bne.n	8004cd2 <disk_initialize+0x19a>
 8004c6e:	f7ff fc11 	bl	8004494 <rcvr_spi>
 8004c72:	f808 0004 	strb.w	r0, [r8, r4]
 8004c76:	3401      	adds	r4, #1
 8004c78:	2c04      	cmp	r4, #4
 8004c7a:	d1f8      	bne.n	8004c6e <disk_initialize+0x136>
 8004c7c:	f89d 300e 	ldrb.w	r3, [sp, #14]
 8004c80:	2b01      	cmp	r3, #1
 8004c82:	d1e9      	bne.n	8004c58 <disk_initialize+0x120>
 8004c84:	f89d 300f 	ldrb.w	r3, [sp, #15]
 8004c88:	2baa      	cmp	r3, #170	; 0xaa
 8004c8a:	d1e5      	bne.n	8004c58 <disk_initialize+0x120>
 8004c8c:	6833      	ldr	r3, [r6, #0]
 8004c8e:	b91b      	cbnz	r3, 8004c98 <disk_initialize+0x160>
 8004c90:	6833      	ldr	r3, [r6, #0]
 8004c92:	2b00      	cmp	r3, #0
 8004c94:	d0e0      	beq.n	8004c58 <disk_initialize+0x120>
 8004c96:	e007      	b.n	8004ca8 <disk_initialize+0x170>
 8004c98:	20e9      	movs	r0, #233	; 0xe9
 8004c9a:	f04f 4180 	mov.w	r1, #1073741824	; 0x40000000
 8004c9e:	f7ff fe59 	bl	8004954 <send_cmd.lto_priv.56>
 8004ca2:	2800      	cmp	r0, #0
 8004ca4:	d1f2      	bne.n	8004c8c <disk_initialize+0x154>
 8004ca6:	e7f3      	b.n	8004c90 <disk_initialize+0x158>
 8004ca8:	207a      	movs	r0, #122	; 0x7a
 8004caa:	2100      	movs	r1, #0
 8004cac:	f7ff fe52 	bl	8004954 <send_cmd.lto_priv.56>
 8004cb0:	2800      	cmp	r0, #0
 8004cb2:	d1d1      	bne.n	8004c58 <disk_initialize+0x120>
 8004cb4:	f7ff fbee 	bl	8004494 <rcvr_spi>
 8004cb8:	f808 0005 	strb.w	r0, [r8, r5]
 8004cbc:	3501      	adds	r5, #1
 8004cbe:	2d04      	cmp	r5, #4
 8004cc0:	d1f8      	bne.n	8004cb4 <disk_initialize+0x17c>
 8004cc2:	f89d 300c 	ldrb.w	r3, [sp, #12]
 8004cc6:	f013 0f40 	tst.w	r3, #64	; 0x40
 8004cca:	bf14      	ite	ne
 8004ccc:	240c      	movne	r4, #12
 8004cce:	2404      	moveq	r4, #4
 8004cd0:	e01e      	b.n	8004d10 <disk_initialize+0x1d8>
 8004cd2:	4621      	mov	r1, r4
 8004cd4:	20e9      	movs	r0, #233	; 0xe9
 8004cd6:	f7ff fe3d 	bl	8004954 <send_cmd.lto_priv.56>
 8004cda:	2802      	cmp	r0, #2
 8004cdc:	bf35      	itete	cc
 8004cde:	2402      	movcc	r4, #2
 8004ce0:	2401      	movcs	r4, #1
 8004ce2:	25e9      	movcc	r5, #233	; 0xe9
 8004ce4:	2541      	movcs	r5, #65	; 0x41
 8004ce6:	6833      	ldr	r3, [r6, #0]
 8004ce8:	b95b      	cbnz	r3, 8004d02 <disk_initialize+0x1ca>
 8004cea:	6833      	ldr	r3, [r6, #0]
 8004cec:	2b00      	cmp	r3, #0
 8004cee:	d0b3      	beq.n	8004c58 <disk_initialize+0x120>
 8004cf0:	2050      	movs	r0, #80	; 0x50
 8004cf2:	f44f 7100 	mov.w	r1, #512	; 0x200
 8004cf6:	f7ff fe2d 	bl	8004954 <send_cmd.lto_priv.56>
 8004cfa:	2800      	cmp	r0, #0
 8004cfc:	bf18      	it	ne
 8004cfe:	2400      	movne	r4, #0
 8004d00:	e006      	b.n	8004d10 <disk_initialize+0x1d8>
 8004d02:	4628      	mov	r0, r5
 8004d04:	2100      	movs	r1, #0
 8004d06:	f7ff fe25 	bl	8004954 <send_cmd.lto_priv.56>
 8004d0a:	2800      	cmp	r0, #0
 8004d0c:	d1eb      	bne.n	8004ce6 <disk_initialize+0x1ae>
 8004d0e:	e7ec      	b.n	8004cea <disk_initialize+0x1b2>
 8004d10:	4b0f      	ldr	r3, [pc, #60]	; (8004d50 <disk_initialize+0x218>)
 8004d12:	f883 4081 	strb.w	r4, [r3, #129]	; 0x81
 8004d16:	f7ff fe01 	bl	800491c <release_spi>
 8004d1a:	b11c      	cbz	r4, 8004d24 <disk_initialize+0x1ec>
 8004d1c:	783b      	ldrb	r3, [r7, #0]
 8004d1e:	f003 03fe 	and.w	r3, r3, #254	; 0xfe
 8004d22:	703b      	strb	r3, [r7, #0]
 8004d24:	4a09      	ldr	r2, [pc, #36]	; (8004d4c <disk_initialize+0x214>)
 8004d26:	8813      	ldrh	r3, [r2, #0]
 8004d28:	f023 0338 	bic.w	r3, r3, #56	; 0x38
 8004d2c:	041b      	lsls	r3, r3, #16
 8004d2e:	0c1b      	lsrs	r3, r3, #16
 8004d30:	8013      	strh	r3, [r2, #0]
 8004d32:	7838      	ldrb	r0, [r7, #0]
 8004d34:	b2c0      	uxtb	r0, r0
 8004d36:	e000      	b.n	8004d3a <disk_initialize+0x202>
 8004d38:	2001      	movs	r0, #1
 8004d3a:	b008      	add	sp, #32
 8004d3c:	e8bd 81f0 	ldmia.w	sp!, {r4, r5, r6, r7, r8, pc}
 8004d40:	200000f0 	strdcs	r0, [r0], -r0	; <UNPREDICTABLE>
 8004d44:	20001170 	andcs	r1, r0, r0, ror r1
 8004d48:	40010c00 	andmi	r0, r1, r0, lsl #24
 8004d4c:	40003800 	andmi	r3, r0, r0, lsl #16
 8004d50:	200010e0 	andcs	r1, r0, r0, ror #1

08004d54 <counter_to_struct.lto_priv.37>:
 8004d54:	233c      	movs	r3, #60	; 0x3c
 8004d56:	fbb0 f2f3 	udiv	r2, r0, r3
 8004d5a:	fb03 0012 	mls	r0, r3, r2, r0
 8004d5e:	71c8      	strb	r0, [r1, #7]
 8004d60:	fbb2 f0f3 	udiv	r0, r2, r3
 8004d64:	fb03 2310 	mls	r3, r3, r0, r2
 8004d68:	718b      	strb	r3, [r1, #6]
 8004d6a:	2318      	movs	r3, #24
 8004d6c:	fbb0 f2f3 	udiv	r2, r0, r3
 8004d70:	fb03 0312 	mls	r3, r3, r2, r0
 8004d74:	2007      	movs	r0, #7
 8004d76:	714b      	strb	r3, [r1, #5]
 8004d78:	b293      	uxth	r3, r2
 8004d7a:	3206      	adds	r2, #6
 8004d7c:	fb92 f0f0 	sdiv	r0, r2, r0
 8004d80:	ebc0 00c0 	rsb	r0, r0, r0, lsl #3
 8004d84:	1a12      	subs	r2, r2, r0
 8004d86:	b530      	push	{r4, r5, lr}
 8004d88:	710a      	strb	r2, [r1, #4]
 8004d8a:	2500      	movs	r5, #0
 8004d8c:	2401      	movs	r4, #1
 8004d8e:	b2e8      	uxtb	r0, r5
 8004d90:	0782      	lsls	r2, r0, #30
 8004d92:	d10d      	bne.n	8004db0 <counter_to_struct.lto_priv.37+0x5c>
 8004d94:	b118      	cbz	r0, 8004d9e <counter_to_struct.lto_priv.37+0x4a>
 8004d96:	2864      	cmp	r0, #100	; 0x64
 8004d98:	d001      	beq.n	8004d9e <counter_to_struct.lto_priv.37+0x4a>
 8004d9a:	28c8      	cmp	r0, #200	; 0xc8
 8004d9c:	d10b      	bne.n	8004db6 <counter_to_struct.lto_priv.37+0x62>
 8004d9e:	3c01      	subs	r4, #1
 8004da0:	f014 04ff 	ands.w	r4, r4, #255	; 0xff
 8004da4:	f240 126d 	movw	r2, #365	; 0x16d
 8004da8:	bf08      	it	eq
 8004daa:	f44f 72b7 	moveq.w	r2, #366	; 0x16e
 8004dae:	e004      	b.n	8004dba <counter_to_struct.lto_priv.37+0x66>
 8004db0:	f240 126d 	movw	r2, #365	; 0x16d
 8004db4:	e001      	b.n	8004dba <counter_to_struct.lto_priv.37+0x66>
 8004db6:	f44f 72b7 	mov.w	r2, #366	; 0x16e
 8004dba:	4293      	cmp	r3, r2
 8004dbc:	f105 0501 	add.w	r5, r5, #1
 8004dc0:	d302      	bcc.n	8004dc8 <counter_to_struct.lto_priv.37+0x74>
 8004dc2:	1a9b      	subs	r3, r3, r2
 8004dc4:	b29b      	uxth	r3, r3
 8004dc6:	e7e2      	b.n	8004d8e <counter_to_struct.lto_priv.37+0x3a>
 8004dc8:	f500 60fa 	add.w	r0, r0, #2000	; 0x7d0
 8004dcc:	07d2      	lsls	r2, r2, #31
 8004dce:	8008      	strh	r0, [r1, #0]
 8004dd0:	d503      	bpl.n	8004dda <counter_to_struct.lto_priv.37+0x86>
 8004dd2:	2b3a      	cmp	r3, #58	; 0x3a
 8004dd4:	bf84      	itt	hi
 8004dd6:	3301      	addhi	r3, #1
 8004dd8:	b29b      	uxthhi	r3, r3
 8004dda:	2201      	movs	r2, #1
 8004ddc:	4807      	ldr	r0, [pc, #28]	; (8004dfc <counter_to_struct.lto_priv.37+0xa8>)
 8004dde:	4410      	add	r0, r2
 8004de0:	f810 0c01 	ldrb.w	r0, [r0, #-1]
 8004de4:	4283      	cmp	r3, r0
 8004de6:	d304      	bcc.n	8004df2 <counter_to_struct.lto_priv.37+0x9e>
 8004de8:	1a1b      	subs	r3, r3, r0
 8004dea:	3201      	adds	r2, #1
 8004dec:	b29b      	uxth	r3, r3
 8004dee:	b2d2      	uxtb	r2, r2
 8004df0:	e7f4      	b.n	8004ddc <counter_to_struct.lto_priv.37+0x88>
 8004df2:	3301      	adds	r3, #1
 8004df4:	708a      	strb	r2, [r1, #2]
 8004df6:	70cb      	strb	r3, [r1, #3]
 8004df8:	bd30      	pop	{r4, r5, pc}
 8004dfa:	bf00      	nop
 8004dfc:	0800a0ec 	stmdaeq	r0, {r2, r3, r5, r6, r7, sp, pc}

08004e00 <isDST.lto_priv.36>:
 8004e00:	7883      	ldrb	r3, [r0, #2]
 8004e02:	1eda      	subs	r2, r3, #3
 8004e04:	2a07      	cmp	r2, #7
 8004e06:	d80f      	bhi.n	8004e28 <isDST.lto_priv.36+0x28>
 8004e08:	7901      	ldrb	r1, [r0, #4]
 8004e0a:	78c2      	ldrb	r2, [r0, #3]
 8004e0c:	1a52      	subs	r2, r2, r1
 8004e0e:	2a18      	cmp	r2, #24
 8004e10:	dd06      	ble.n	8004e20 <isDST.lto_priv.36+0x20>
 8004e12:	b911      	cbnz	r1, 8004e1a <isDST.lto_priv.36+0x1a>
 8004e14:	7942      	ldrb	r2, [r0, #5]
 8004e16:	2a01      	cmp	r2, #1
 8004e18:	d902      	bls.n	8004e20 <isDST.lto_priv.36+0x20>
 8004e1a:	f1b3 000a 	subs.w	r0, r3, #10
 8004e1e:	e000      	b.n	8004e22 <isDST.lto_priv.36+0x22>
 8004e20:	1ed8      	subs	r0, r3, #3
 8004e22:	bf18      	it	ne
 8004e24:	2001      	movne	r0, #1
 8004e26:	4770      	bx	lr
 8004e28:	2000      	movs	r0, #0
 8004e2a:	4770      	bx	lr

08004e2c <rtc_gettime>:
 8004e2c:	e92d 41f0 	stmdb	sp!, {r4, r5, r6, r7, r8, lr}
 8004e30:	4604      	mov	r4, r0
 8004e32:	f004 f85d 	bl	8008ef0 <RTC_GetCounter>
 8004e36:	4605      	mov	r5, r0
 8004e38:	f004 f85a 	bl	8008ef0 <RTC_GetCounter>
 8004e3c:	4285      	cmp	r5, r0
 8004e3e:	d1f8      	bne.n	8004e32 <rtc_gettime+0x6>
 8004e40:	4621      	mov	r1, r4
 8004e42:	f7ff ff87 	bl	8004d54 <counter_to_struct.lto_priv.37>
 8004e46:	4620      	mov	r0, r4
 8004e48:	7967      	ldrb	r7, [r4, #5]
 8004e4a:	78e6      	ldrb	r6, [r4, #3]
 8004e4c:	7925      	ldrb	r5, [r4, #4]
 8004e4e:	f894 8002 	ldrb.w	r8, [r4, #2]
 8004e52:	f7ff ffd5 	bl	8004e00 <isDST.lto_priv.36>
 8004e56:	b300      	cbz	r0, 8004e9a <rtc_gettime+0x6e>
 8004e58:	2301      	movs	r3, #1
 8004e5a:	7223      	strb	r3, [r4, #8]
 8004e5c:	18fb      	adds	r3, r7, r3
 8004e5e:	b2db      	uxtb	r3, r3
 8004e60:	2b18      	cmp	r3, #24
 8004e62:	d114      	bne.n	8004e8e <rtc_gettime+0x62>
 8004e64:	4b0f      	ldr	r3, [pc, #60]	; (8004ea4 <rtc_gettime+0x78>)
 8004e66:	3501      	adds	r5, #1
 8004e68:	4443      	add	r3, r8
 8004e6a:	b2ed      	uxtb	r5, r5
 8004e6c:	f813 3c01 	ldrb.w	r3, [r3, #-1]
 8004e70:	2d07      	cmp	r5, #7
 8004e72:	bf08      	it	eq
 8004e74:	2500      	moveq	r5, #0
 8004e76:	42b3      	cmp	r3, r6
 8004e78:	bf04      	itt	eq
 8004e7a:	2600      	moveq	r6, #0
 8004e7c:	f108 0801 	addeq.w	r8, r8, #1
 8004e80:	f106 0601 	add.w	r6, r6, #1
 8004e84:	bf08      	it	eq
 8004e86:	fa5f f888 	uxtbeq.w	r8, r8
 8004e8a:	b2f6      	uxtb	r6, r6
 8004e8c:	2300      	movs	r3, #0
 8004e8e:	f884 8002 	strb.w	r8, [r4, #2]
 8004e92:	7163      	strb	r3, [r4, #5]
 8004e94:	70e6      	strb	r6, [r4, #3]
 8004e96:	7125      	strb	r5, [r4, #4]
 8004e98:	e000      	b.n	8004e9c <rtc_gettime+0x70>
 8004e9a:	7220      	strb	r0, [r4, #8]
 8004e9c:	2001      	movs	r0, #1
 8004e9e:	e8bd 81f0 	ldmia.w	sp!, {r4, r5, r6, r7, r8, pc}
 8004ea2:	bf00      	nop
 8004ea4:	0800a0ec 	stmdaeq	r0, {r2, r3, r5, r6, r7, sp, pc}

08004ea8 <dir_find.part.4.lto_priv.51>:
 8004ea8:	e92d 4ff8 	stmdb	sp!, {r3, r4, r5, r6, r7, r8, r9, sl, fp, lr}
 8004eac:	26ff      	movs	r6, #255	; 0xff
 8004eae:	4605      	mov	r5, r0
 8004eb0:	4634      	mov	r4, r6
 8004eb2:	6828      	ldr	r0, [r5, #0]
 8004eb4:	6929      	ldr	r1, [r5, #16]
 8004eb6:	f7fd ff0c 	bl	8002cd2 <move_window.lto_priv.43>
 8004eba:	2800      	cmp	r0, #0
 8004ebc:	f040 80ae 	bne.w	800501c <dir_find.part.4.lto_priv.51+0x174>
 8004ec0:	696b      	ldr	r3, [r5, #20]
 8004ec2:	781a      	ldrb	r2, [r3, #0]
 8004ec4:	2a00      	cmp	r2, #0
 8004ec6:	f000 80a3 	beq.w	8005010 <dir_find.part.4.lto_priv.51+0x168>
 8004eca:	7adf      	ldrb	r7, [r3, #11]
 8004ecc:	2ae5      	cmp	r2, #229	; 0xe5
 8004ece:	f007 013f 	and.w	r1, r7, #63	; 0x3f
 8004ed2:	f000 8093 	beq.w	8004ffc <dir_find.part.4.lto_priv.51+0x154>
 8004ed6:	073f      	lsls	r7, r7, #28
 8004ed8:	d503      	bpl.n	8004ee2 <dir_find.part.4.lto_priv.51+0x3a>
 8004eda:	290f      	cmp	r1, #15
 8004edc:	f040 808e 	bne.w	8004ffc <dir_find.part.4.lto_priv.51+0x154>
 8004ee0:	e001      	b.n	8004ee6 <dir_find.part.4.lto_priv.51+0x3e>
 8004ee2:	290f      	cmp	r1, #15
 8004ee4:	d168      	bne.n	8004fb8 <dir_find.part.4.lto_priv.51+0x110>
 8004ee6:	f8d5 e01c 	ldr.w	lr, [r5, #28]
 8004eea:	f1be 0f00 	cmp.w	lr, #0
 8004eee:	f000 8086 	beq.w	8004ffe <dir_find.part.4.lto_priv.51+0x156>
 8004ef2:	0650      	lsls	r0, r2, #25
 8004ef4:	d505      	bpl.n	8004f02 <dir_find.part.4.lto_priv.51+0x5a>
 8004ef6:	f002 04bf 	and.w	r4, r2, #191	; 0xbf
 8004efa:	88ea      	ldrh	r2, [r5, #6]
 8004efc:	7b5e      	ldrb	r6, [r3, #13]
 8004efe:	842a      	strh	r2, [r5, #32]
 8004f00:	e001      	b.n	8004f06 <dir_find.part.4.lto_priv.51+0x5e>
 8004f02:	42a2      	cmp	r2, r4
 8004f04:	d17a      	bne.n	8004ffc <dir_find.part.4.lto_priv.51+0x154>
 8004f06:	7b5a      	ldrb	r2, [r3, #13]
 8004f08:	42b2      	cmp	r2, r6
 8004f0a:	d177      	bne.n	8004ffc <dir_find.part.4.lto_priv.51+0x154>
 8004f0c:	f893 c000 	ldrb.w	ip, [r3]
 8004f10:	2700      	movs	r7, #0
 8004f12:	f02c 0140 	bic.w	r1, ip, #64	; 0x40
 8004f16:	1e4a      	subs	r2, r1, #1
 8004f18:	210d      	movs	r1, #13
 8004f1a:	4351      	muls	r1, r2
 8004f1c:	2201      	movs	r2, #1
 8004f1e:	4840      	ldr	r0, [pc, #256]	; (8005020 <dir_find.part.4.lto_priv.51+0x178>)
 8004f20:	f817 8000 	ldrb.w	r8, [r7, r0]
 8004f24:	eb03 0008 	add.w	r0, r3, r8
 8004f28:	f890 9001 	ldrb.w	r9, [r0, #1]
 8004f2c:	f813 0008 	ldrb.w	r0, [r3, r8]
 8004f30:	ea40 2009 	orr.w	r0, r0, r9, lsl #8
 8004f34:	b38a      	cbz	r2, 8004f9a <dir_find.part.4.lto_priv.51+0xf2>
 8004f36:	2200      	movs	r2, #0
 8004f38:	f8df 90e4 	ldr.w	r9, [pc, #228]	; 8005020 <dir_find.part.4.lto_priv.51+0x178>
 8004f3c:	ea4f 0842 	mov.w	r8, r2, lsl #1
 8004f40:	f109 0a0e 	add.w	sl, r9, #14
 8004f44:	f83a a012 	ldrh.w	sl, [sl, r2, lsl #1]
 8004f48:	f1ba 0f00 	cmp.w	sl, #0
 8004f4c:	d007      	beq.n	8004f5e <dir_find.part.4.lto_priv.51+0xb6>
 8004f4e:	4550      	cmp	r0, sl
 8004f50:	d001      	beq.n	8004f56 <dir_find.part.4.lto_priv.51+0xae>
 8004f52:	3201      	adds	r2, #1
 8004f54:	e7f0      	b.n	8004f38 <dir_find.part.4.lto_priv.51+0x90>
 8004f56:	eb09 0208 	add.w	r2, r9, r8
 8004f5a:	f8b2 01ee 	ldrh.w	r0, [r2, #494]	; 0x1ee
 8004f5e:	29fe      	cmp	r1, #254	; 0xfe
 8004f60:	d84c      	bhi.n	8004ffc <dir_find.part.4.lto_priv.51+0x154>
 8004f62:	f101 0801 	add.w	r8, r1, #1
 8004f66:	f83e 2011 	ldrh.w	r2, [lr, r1, lsl #1]
 8004f6a:	2100      	movs	r1, #0
 8004f6c:	f8df a0b0 	ldr.w	sl, [pc, #176]	; 8005020 <dir_find.part.4.lto_priv.51+0x178>
 8004f70:	ea4f 0941 	mov.w	r9, r1, lsl #1
 8004f74:	f10a 0b0e 	add.w	fp, sl, #14
 8004f78:	f83b b011 	ldrh.w	fp, [fp, r1, lsl #1]
 8004f7c:	f1bb 0f00 	cmp.w	fp, #0
 8004f80:	d007      	beq.n	8004f92 <dir_find.part.4.lto_priv.51+0xea>
 8004f82:	455a      	cmp	r2, fp
 8004f84:	d001      	beq.n	8004f8a <dir_find.part.4.lto_priv.51+0xe2>
 8004f86:	3101      	adds	r1, #1
 8004f88:	e7f0      	b.n	8004f6c <dir_find.part.4.lto_priv.51+0xc4>
 8004f8a:	eb0a 0209 	add.w	r2, sl, r9
 8004f8e:	f8b2 21ee 	ldrh.w	r2, [r2, #494]	; 0x1ee
 8004f92:	4290      	cmp	r0, r2
 8004f94:	d132      	bne.n	8004ffc <dir_find.part.4.lto_priv.51+0x154>
 8004f96:	4641      	mov	r1, r8
 8004f98:	e003      	b.n	8004fa2 <dir_find.part.4.lto_priv.51+0xfa>
 8004f9a:	f64f 78ff 	movw	r8, #65535	; 0xffff
 8004f9e:	4540      	cmp	r0, r8
 8004fa0:	d12c      	bne.n	8004ffc <dir_find.part.4.lto_priv.51+0x154>
 8004fa2:	3701      	adds	r7, #1
 8004fa4:	2f0d      	cmp	r7, #13
 8004fa6:	d1ba      	bne.n	8004f1e <dir_find.part.4.lto_priv.51+0x76>
 8004fa8:	f01c 0f40 	tst.w	ip, #64	; 0x40
 8004fac:	d033      	beq.n	8005016 <dir_find.part.4.lto_priv.51+0x16e>
 8004fae:	b392      	cbz	r2, 8005016 <dir_find.part.4.lto_priv.51+0x16e>
 8004fb0:	f83e 3011 	ldrh.w	r3, [lr, r1, lsl #1]
 8004fb4:	b37b      	cbz	r3, 8005016 <dir_find.part.4.lto_priv.51+0x16e>
 8004fb6:	e021      	b.n	8004ffc <dir_find.part.4.lto_priv.51+0x154>
 8004fb8:	b97c      	cbnz	r4, 8004fda <dir_find.part.4.lto_priv.51+0x132>
 8004fba:	461c      	mov	r4, r3
 8004fbc:	4602      	mov	r2, r0
 8004fbe:	f103 070b 	add.w	r7, r3, #11
 8004fc2:	01d1      	lsls	r1, r2, #7
 8004fc4:	ea41 0252 	orr.w	r2, r1, r2, lsr #1
 8004fc8:	f814 1b01 	ldrb.w	r1, [r4], #1
 8004fcc:	440a      	add	r2, r1
 8004fce:	42bc      	cmp	r4, r7
 8004fd0:	f002 02ff 	and.w	r2, r2, #255	; 0xff
 8004fd4:	d1f5      	bne.n	8004fc2 <dir_find.part.4.lto_priv.51+0x11a>
 8004fd6:	4296      	cmp	r6, r2
 8004fd8:	d020      	beq.n	800501c <dir_find.part.4.lto_priv.51+0x174>
 8004fda:	f64f 72ff 	movw	r2, #65535	; 0xffff
 8004fde:	842a      	strh	r2, [r5, #32]
 8004fe0:	69aa      	ldr	r2, [r5, #24]
 8004fe2:	7ad1      	ldrb	r1, [r2, #11]
 8004fe4:	07c9      	lsls	r1, r1, #31
 8004fe6:	d409      	bmi.n	8004ffc <dir_find.part.4.lto_priv.51+0x154>
 8004fe8:	f103 070b 	add.w	r7, r3, #11
 8004fec:	42bb      	cmp	r3, r7
 8004fee:	d015      	beq.n	800501c <dir_find.part.4.lto_priv.51+0x174>
 8004ff0:	f813 4b01 	ldrb.w	r4, [r3], #1
 8004ff4:	f812 1b01 	ldrb.w	r1, [r2], #1
 8004ff8:	428c      	cmp	r4, r1
 8004ffa:	d0f7      	beq.n	8004fec <dir_find.part.4.lto_priv.51+0x144>
 8004ffc:	24ff      	movs	r4, #255	; 0xff
 8004ffe:	4628      	mov	r0, r5
 8005000:	2100      	movs	r1, #0
 8005002:	f7fe f95b 	bl	80032bc <dir_next.lto_priv.44>
 8005006:	2800      	cmp	r0, #0
 8005008:	f43f af53 	beq.w	8004eb2 <dir_find.part.4.lto_priv.51+0xa>
 800500c:	e8bd 8ff8 	ldmia.w	sp!, {r3, r4, r5, r6, r7, r8, r9, sl, fp, pc}
 8005010:	2004      	movs	r0, #4
 8005012:	e8bd 8ff8 	ldmia.w	sp!, {r3, r4, r5, r6, r7, r8, r9, sl, fp, pc}
 8005016:	3c01      	subs	r4, #1
 8005018:	b2e4      	uxtb	r4, r4
 800501a:	e7f0      	b.n	8004ffe <dir_find.part.4.lto_priv.51+0x156>
 800501c:	e8bd 8ff8 	ldmia.w	sp!, {r3, r4, r5, r6, r7, r8, r9, sl, fp, pc}
 8005020:	0800a25c 	stmdaeq	r0, {r2, r3, r4, r6, r9, sp, pc}

08005024 <USB_LP_CAN1_RX0_IRQHandler>:
 8005024:	b570      	push	{r4, r5, r6, lr}
 8005026:	4d2d      	ldr	r5, [pc, #180]	; (80050dc <USB_LP_CAN1_RX0_IRQHandler+0xb8>)
 8005028:	4c2d      	ldr	r4, [pc, #180]	; (80050e0 <USB_LP_CAN1_RX0_IRQHandler+0xbc>)
 800502a:	682b      	ldr	r3, [r5, #0]
 800502c:	4e2d      	ldr	r6, [pc, #180]	; (80050e4 <USB_LP_CAN1_RX0_IRQHandler+0xc0>)
 800502e:	b29b      	uxth	r3, r3
 8005030:	8023      	strh	r3, [r4, #0]
 8005032:	8822      	ldrh	r2, [r4, #0]
 8005034:	8833      	ldrh	r3, [r6, #0]
 8005036:	4013      	ands	r3, r2
 8005038:	041a      	lsls	r2, r3, #16
 800503a:	d501      	bpl.n	8005040 <USB_LP_CAN1_RX0_IRQHandler+0x1c>
 800503c:	f004 fd92 	bl	8009b64 <CTR_LP>
 8005040:	8822      	ldrh	r2, [r4, #0]
 8005042:	8833      	ldrh	r3, [r6, #0]
 8005044:	4013      	ands	r3, r2
 8005046:	055b      	lsls	r3, r3, #21
 8005048:	d505      	bpl.n	8005056 <USB_LP_CAN1_RX0_IRQHandler+0x32>
 800504a:	f64f 33ff 	movw	r3, #64511	; 0xfbff
 800504e:	602b      	str	r3, [r5, #0]
 8005050:	4b25      	ldr	r3, [pc, #148]	; (80050e8 <USB_LP_CAN1_RX0_IRQHandler+0xc4>)
 8005052:	685b      	ldr	r3, [r3, #4]
 8005054:	4798      	blx	r3
 8005056:	8822      	ldrh	r2, [r4, #0]
 8005058:	8833      	ldrh	r3, [r6, #0]
 800505a:	4013      	ands	r3, r2
 800505c:	04d8      	lsls	r0, r3, #19
 800505e:	d505      	bpl.n	800506c <USB_LP_CAN1_RX0_IRQHandler+0x48>
 8005060:	f64e 73ff 	movw	r3, #61439	; 0xefff
 8005064:	2000      	movs	r0, #0
 8005066:	602b      	str	r3, [r5, #0]
 8005068:	f002 fb08 	bl	800767c <Resume>
 800506c:	8822      	ldrh	r2, [r4, #0]
 800506e:	8833      	ldrh	r3, [r6, #0]
 8005070:	4013      	ands	r3, r2
 8005072:	0519      	lsls	r1, r3, #20
 8005074:	d518      	bpl.n	80050a8 <USB_LP_CAN1_RX0_IRQHandler+0x84>
 8005076:	4b1c      	ldr	r3, [pc, #112]	; (80050e8 <USB_LP_CAN1_RX0_IRQHandler+0xc4>)
 8005078:	f893 3030 	ldrb.w	r3, [r3, #48]	; 0x30
 800507c:	b173      	cbz	r3, 800509c <USB_LP_CAN1_RX0_IRQHandler+0x78>
 800507e:	4a1b      	ldr	r2, [pc, #108]	; (80050ec <USB_LP_CAN1_RX0_IRQHandler+0xc8>)
 8005080:	6813      	ldr	r3, [r2, #0]
 8005082:	b29b      	uxth	r3, r3
 8005084:	f043 0308 	orr.w	r3, r3, #8
 8005088:	6013      	str	r3, [r2, #0]
 800508a:	6813      	ldr	r3, [r2, #0]
 800508c:	b29b      	uxth	r3, r3
 800508e:	f043 0304 	orr.w	r3, r3, #4
 8005092:	6013      	str	r3, [r2, #0]
 8005094:	4b16      	ldr	r3, [pc, #88]	; (80050f0 <USB_LP_CAN1_RX0_IRQHandler+0xcc>)
 8005096:	2203      	movs	r2, #3
 8005098:	601a      	str	r2, [r3, #0]
 800509a:	e002      	b.n	80050a2 <USB_LP_CAN1_RX0_IRQHandler+0x7e>
 800509c:	2002      	movs	r0, #2
 800509e:	f002 faed 	bl	800767c <Resume>
 80050a2:	f24f 73ff 	movw	r3, #63487	; 0xf7ff
 80050a6:	602b      	str	r3, [r5, #0]
 80050a8:	8822      	ldrh	r2, [r4, #0]
 80050aa:	8831      	ldrh	r1, [r6, #0]
 80050ac:	400a      	ands	r2, r1
 80050ae:	0592      	lsls	r2, r2, #22
 80050b0:	d507      	bpl.n	80050c2 <USB_LP_CAN1_RX0_IRQHandler+0x9e>
 80050b2:	f64f 53ff 	movw	r3, #65023	; 0xfdff
 80050b6:	4a0f      	ldr	r2, [pc, #60]	; (80050f4 <USB_LP_CAN1_RX0_IRQHandler+0xd0>)
 80050b8:	602b      	str	r3, [r5, #0]
 80050ba:	7813      	ldrb	r3, [r2, #0]
 80050bc:	3301      	adds	r3, #1
 80050be:	b2db      	uxtb	r3, r3
 80050c0:	7013      	strb	r3, [r2, #0]
 80050c2:	8823      	ldrh	r3, [r4, #0]
 80050c4:	400b      	ands	r3, r1
 80050c6:	05db      	lsls	r3, r3, #23
 80050c8:	d507      	bpl.n	80050da <USB_LP_CAN1_RX0_IRQHandler+0xb6>
 80050ca:	f64f 63ff 	movw	r3, #65279	; 0xfeff
 80050ce:	2007      	movs	r0, #7
 80050d0:	602b      	str	r3, [r5, #0]
 80050d2:	e8bd 4070 	ldmia.w	sp!, {r4, r5, r6, lr}
 80050d6:	f002 bad1 	b.w	800767c <Resume>
 80050da:	bd70      	pop	{r4, r5, r6, pc}
 80050dc:	40005c44 	andmi	r5, r0, r4, asr #24
 80050e0:	20001164 	andcs	r1, r0, r4, ror #2
 80050e4:	200018d8 	ldrdcs	r1, [r0], -r8
 80050e8:	2000009c 	mulcs	r0, ip, r0
 80050ec:	40005c40 	andmi	r5, r0, r0, asr #24
 80050f0:	20001850 	andcs	r1, r0, r0, asr r8
 80050f4:	2000185d 	andcs	r1, r0, sp, asr r8

080050f8 <USB_HP_CAN1_TX_IRQHandler>:
 80050f8:	f004 bdec 	b.w	8009cd4 <CTR_HP>

080050fc <ADC1_2_IRQHandler>:
 80050fc:	b508      	push	{r3, lr}
 80050fe:	4817      	ldr	r0, [pc, #92]	; (800515c <ADC1_2_IRQHandler+0x60>)
 8005100:	f44f 71a0 	mov.w	r1, #320	; 0x140
 8005104:	f003 fad2 	bl	80086ac <ADC_GetITStatus>
 8005108:	b1b0      	cbz	r0, 8005138 <ADC1_2_IRQHandler+0x3c>
 800510a:	4a15      	ldr	r2, [pc, #84]	; (8005160 <ADC1_2_IRQHandler+0x64>)
 800510c:	4813      	ldr	r0, [pc, #76]	; (800515c <ADC1_2_IRQHandler+0x60>)
 800510e:	7893      	ldrb	r3, [r2, #2]
 8005110:	f44f 7108 	mov.w	r1, #544	; 0x220
 8005114:	2bfc      	cmp	r3, #252	; 0xfc
 8005116:	bf9f      	itttt	ls
 8005118:	7893      	ldrbls	r3, [r2, #2]
 800511a:	3302      	addls	r3, #2
 800511c:	b2db      	uxtbls	r3, r3
 800511e:	7093      	strbls	r3, [r2, #2]
 8005120:	f003 facf 	bl	80086c2 <ADC_ClearITPendingBit>
 8005124:	480d      	ldr	r0, [pc, #52]	; (800515c <ADC1_2_IRQHandler+0x60>)
 8005126:	f44f 6190 	mov.w	r1, #1152	; 0x480
 800512a:	f003 faca 	bl	80086c2 <ADC_ClearITPendingBit>
 800512e:	480b      	ldr	r0, [pc, #44]	; (800515c <ADC1_2_IRQHandler+0x60>)
 8005130:	f44f 71a0 	mov.w	r1, #320	; 0x140
 8005134:	f003 fac5 	bl	80086c2 <ADC_ClearITPendingBit>
 8005138:	480a      	ldr	r0, [pc, #40]	; (8005164 <ADC1_2_IRQHandler+0x68>)
 800513a:	f44f 7108 	mov.w	r1, #544	; 0x220
 800513e:	f003 fac0 	bl	80086c2 <ADC_ClearITPendingBit>
 8005142:	4808      	ldr	r0, [pc, #32]	; (8005164 <ADC1_2_IRQHandler+0x68>)
 8005144:	f44f 6190 	mov.w	r1, #1152	; 0x480
 8005148:	f003 fabb 	bl	80086c2 <ADC_ClearITPendingBit>
 800514c:	e8bd 4008 	ldmia.w	sp!, {r3, lr}
 8005150:	4804      	ldr	r0, [pc, #16]	; (8005164 <ADC1_2_IRQHandler+0x68>)
 8005152:	f44f 71a0 	mov.w	r1, #320	; 0x140
 8005156:	f003 bab4 	b.w	80086c2 <ADC_ClearITPendingBit>
 800515a:	bf00      	nop
 800515c:	40012800 	andmi	r2, r1, r0, lsl #16
 8005160:	20001164 	andcs	r1, r0, r4, ror #2
 8005164:	40012400 	andmi	r2, r1, r0, lsl #8

08005168 <I2C_Config>:
 8005168:	b530      	push	{r4, r5, lr}
 800516a:	4847      	ldr	r0, [pc, #284]	; (8005288 <I2C_Config+0x120>)
 800516c:	b087      	sub	sp, #28
 800516e:	f003 fcab 	bl	8008ac8 <I2C_DeInit>
 8005172:	f44f 1000 	mov.w	r0, #2097152	; 0x200000
 8005176:	2101      	movs	r1, #1
 8005178:	f003 fe68 	bl	8008e4c <RCC_APB1PeriphClockCmd>
 800517c:	4842      	ldr	r0, [pc, #264]	; (8005288 <I2C_Config+0x120>)
 800517e:	2101      	movs	r1, #1
 8005180:	f003 fd6d 	bl	8008c5e <I2C_SoftwareResetCmd>
 8005184:	4840      	ldr	r0, [pc, #256]	; (8005288 <I2C_Config+0x120>)
 8005186:	2100      	movs	r1, #0
 8005188:	f003 fd69 	bl	8008c5e <I2C_SoftwareResetCmd>
 800518c:	2300      	movs	r3, #0
 800518e:	f8ad 300c 	strh.w	r3, [sp, #12]
 8005192:	f64b 73ff 	movw	r3, #49151	; 0xbfff
 8005196:	f8ad 300e 	strh.w	r3, [sp, #14]
 800519a:	23ad      	movs	r3, #173	; 0xad
 800519c:	f8ad 3010 	strh.w	r3, [sp, #16]
 80051a0:	f44f 6380 	mov.w	r3, #1024	; 0x400
 80051a4:	f8ad 3012 	strh.w	r3, [sp, #18]
 80051a8:	f44f 4380 	mov.w	r3, #16384	; 0x4000
 80051ac:	f8ad 3014 	strh.w	r3, [sp, #20]
 80051b0:	4b36      	ldr	r3, [pc, #216]	; (800528c <I2C_Config+0x124>)
 80051b2:	4a37      	ldr	r2, [pc, #220]	; (8005290 <I2C_Config+0x128>)
 80051b4:	9302      	str	r3, [sp, #8]
 80051b6:	4b37      	ldr	r3, [pc, #220]	; (8005294 <I2C_Config+0x12c>)
 80051b8:	24c0      	movs	r4, #192	; 0xc0
 80051ba:	6393      	str	r3, [r2, #56]	; 0x38
 80051bc:	4b36      	ldr	r3, [pc, #216]	; (8005298 <I2C_Config+0x130>)
 80051be:	4837      	ldr	r0, [pc, #220]	; (800529c <I2C_Config+0x134>)
 80051c0:	6513      	str	r3, [r2, #80]	; 0x50
 80051c2:	3307      	adds	r3, #7
 80051c4:	6493      	str	r3, [r2, #72]	; 0x48
 80051c6:	2314      	movs	r3, #20
 80051c8:	f88d 3007 	strb.w	r3, [sp, #7]
 80051cc:	a901      	add	r1, sp, #4
 80051ce:	2303      	movs	r3, #3
 80051d0:	f8ad 4004 	strh.w	r4, [sp, #4]
 80051d4:	f88d 3006 	strb.w	r3, [sp, #6]
 80051d8:	f003 fc0a 	bl	80089f0 <GPIO_Init>
 80051dc:	4621      	mov	r1, r4
 80051de:	482f      	ldr	r0, [pc, #188]	; (800529c <I2C_Config+0x134>)
 80051e0:	f003 fc54 	bl	8008a8c <GPIO_SetBits>
 80051e4:	2408      	movs	r4, #8
 80051e6:	2500      	movs	r5, #0
 80051e8:	482c      	ldr	r0, [pc, #176]	; (800529c <I2C_Config+0x134>)
 80051ea:	2140      	movs	r1, #64	; 0x40
 80051ec:	f003 fc48 	bl	8008a80 <GPIO_ReadInputDataBit>
 80051f0:	b938      	cbnz	r0, 8005202 <I2C_Config+0x9a>
 80051f2:	3501      	adds	r5, #1
 80051f4:	f5b5 7f80 	cmp.w	r5, #256	; 0x100
 80051f8:	d003      	beq.n	8005202 <I2C_Config+0x9a>
 80051fa:	200a      	movs	r0, #10
 80051fc:	f7fe f933 	bl	8003466 <Delay>
 8005200:	e7f2      	b.n	80051e8 <I2C_Config+0x80>
 8005202:	2140      	movs	r1, #64	; 0x40
 8005204:	4825      	ldr	r0, [pc, #148]	; (800529c <I2C_Config+0x134>)
 8005206:	f003 fc43 	bl	8008a90 <GPIO_ResetBits>
 800520a:	200a      	movs	r0, #10
 800520c:	f7fe f92b 	bl	8003466 <Delay>
 8005210:	4822      	ldr	r0, [pc, #136]	; (800529c <I2C_Config+0x134>)
 8005212:	2140      	movs	r1, #64	; 0x40
 8005214:	f003 fc3a 	bl	8008a8c <GPIO_SetBits>
 8005218:	3c01      	subs	r4, #1
 800521a:	200a      	movs	r0, #10
 800521c:	f7fe f923 	bl	8003466 <Delay>
 8005220:	f014 04ff 	ands.w	r4, r4, #255	; 0xff
 8005224:	d1df      	bne.n	80051e6 <I2C_Config+0x7e>
 8005226:	2180      	movs	r1, #128	; 0x80
 8005228:	481c      	ldr	r0, [pc, #112]	; (800529c <I2C_Config+0x134>)
 800522a:	f003 fc31 	bl	8008a90 <GPIO_ResetBits>
 800522e:	200a      	movs	r0, #10
 8005230:	f7fe f919 	bl	8003466 <Delay>
 8005234:	2140      	movs	r1, #64	; 0x40
 8005236:	4819      	ldr	r0, [pc, #100]	; (800529c <I2C_Config+0x134>)
 8005238:	f003 fc2a 	bl	8008a90 <GPIO_ResetBits>
 800523c:	200a      	movs	r0, #10
 800523e:	f7fe f912 	bl	8003466 <Delay>
 8005242:	2140      	movs	r1, #64	; 0x40
 8005244:	4815      	ldr	r0, [pc, #84]	; (800529c <I2C_Config+0x134>)
 8005246:	f003 fc21 	bl	8008a8c <GPIO_SetBits>
 800524a:	200a      	movs	r0, #10
 800524c:	f7fe f90b 	bl	8003466 <Delay>
 8005250:	4812      	ldr	r0, [pc, #72]	; (800529c <I2C_Config+0x134>)
 8005252:	2180      	movs	r1, #128	; 0x80
 8005254:	f003 fc1a 	bl	8008a8c <GPIO_SetBits>
 8005258:	231c      	movs	r3, #28
 800525a:	a901      	add	r1, sp, #4
 800525c:	480f      	ldr	r0, [pc, #60]	; (800529c <I2C_Config+0x134>)
 800525e:	f88d 3007 	strb.w	r3, [sp, #7]
 8005262:	f003 fbc5 	bl	80089f0 <GPIO_Init>
 8005266:	4622      	mov	r2, r4
 8005268:	4807      	ldr	r0, [pc, #28]	; (8005288 <I2C_Config+0x120>)
 800526a:	f44f 7140 	mov.w	r1, #768	; 0x300
 800526e:	f003 fcdf 	bl	8008c30 <I2C_ITConfig>
 8005272:	a902      	add	r1, sp, #8
 8005274:	4804      	ldr	r0, [pc, #16]	; (8005288 <I2C_Config+0x120>)
 8005276:	f003 fc41 	bl	8008afc <I2C_Init>
 800527a:	4803      	ldr	r0, [pc, #12]	; (8005288 <I2C_Config+0x120>)
 800527c:	2101      	movs	r1, #1
 800527e:	f003 fca7 	bl	8008bd0 <I2C_Cmd>
 8005282:	b007      	add	sp, #28
 8005284:	bd30      	pop	{r4, r5, pc}
 8005286:	bf00      	nop
 8005288:	40005400 	andmi	r5, r0, r0, lsl #8
 800528c:	000186a0 	andeq	r8, r1, r0, lsr #13
 8005290:	2000009c 	mulcs	r0, ip, r0
 8005294:	2000109c 	mulcs	r0, ip, r0
 8005298:	20001167 	andcs	r1, r0, r7, ror #2
 800529c:	40010c00 	andmi	r0, r1, r0, lsl #24

080052a0 <I2C1_Request_Job>:
 80052a0:	281f      	cmp	r0, #31
 80052a2:	b508      	push	{r3, lr}
 80052a4:	d81b      	bhi.n	80052de <I2C1_Request_Job+0x3e>
 80052a6:	490e      	ldr	r1, [pc, #56]	; (80052e0 <I2C1_Request_Job+0x40>)
 80052a8:	2301      	movs	r3, #1
 80052aa:	680a      	ldr	r2, [r1, #0]
 80052ac:	4083      	lsls	r3, r0
 80052ae:	4313      	orrs	r3, r2
 80052b0:	600b      	str	r3, [r1, #0]
 80052b2:	4b0c      	ldr	r3, [pc, #48]	; (80052e4 <I2C1_Request_Job+0x44>)
 80052b4:	889a      	ldrh	r2, [r3, #4]
 80052b6:	0590      	lsls	r0, r2, #22
 80052b8:	d411      	bmi.n	80052de <I2C1_Request_Job+0x3e>
 80052ba:	881a      	ldrh	r2, [r3, #0]
 80052bc:	05d1      	lsls	r1, r2, #23
 80052be:	d406      	bmi.n	80052ce <I2C1_Request_Job+0x2e>
 80052c0:	881a      	ldrh	r2, [r3, #0]
 80052c2:	0592      	lsls	r2, r2, #22
 80052c4:	d4fc      	bmi.n	80052c0 <I2C1_Request_Job+0x20>
 80052c6:	4807      	ldr	r0, [pc, #28]	; (80052e4 <I2C1_Request_Job+0x44>)
 80052c8:	2101      	movs	r1, #1
 80052ca:	f003 fc8d 	bl	8008be8 <I2C_GenerateSTART>
 80052ce:	e8bd 4008 	ldmia.w	sp!, {r3, lr}
 80052d2:	4804      	ldr	r0, [pc, #16]	; (80052e4 <I2C1_Request_Job+0x44>)
 80052d4:	f44f 7140 	mov.w	r1, #768	; 0x300
 80052d8:	2201      	movs	r2, #1
 80052da:	f003 bca9 	b.w	8008c30 <I2C_ITConfig>
 80052de:	bd08      	pop	{r3, pc}
 80052e0:	20001844 	andcs	r1, r0, r4, asr #16
 80052e4:	40005400 	andmi	r5, r0, r0, lsl #8

080052e8 <SysTick_Handler>:
 80052e8:	e92d 4ff7 	stmdb	sp!, {r0, r1, r2, r4, r5, r6, r7, r8, r9, sl, fp, lr}
 80052ec:	4cbe      	ldr	r4, [pc, #760]	; (80055e8 <SysTick_Handler+0x300>)
 80052ee:	68e3      	ldr	r3, [r4, #12]
 80052f0:	f013 03ff 	ands.w	r3, r3, #255	; 0xff
 80052f4:	bf1e      	ittt	ne
 80052f6:	f103 33ff 	addne.w	r3, r3, #4294967295
 80052fa:	b2db      	uxtbne	r3, r3
 80052fc:	60e3      	strne	r3, [r4, #12]
 80052fe:	6923      	ldr	r3, [r4, #16]
 8005300:	f013 03ff 	ands.w	r3, r3, #255	; 0xff
 8005304:	bf1f      	itttt	ne
 8005306:	f103 33ff 	addne.w	r3, r3, #4294967295
 800530a:	4ab7      	ldrne	r2, [pc, #732]	; (80055e8 <SysTick_Handler+0x300>)
 800530c:	b2db      	uxtbne	r3, r3
 800530e:	6113      	strne	r3, [r2, #16]
 8005310:	6963      	ldr	r3, [r4, #20]
 8005312:	2200      	movs	r2, #0
 8005314:	6162      	str	r2, [r4, #20]
 8005316:	b933      	cbnz	r3, 8005326 <SysTick_Handler+0x3e>
 8005318:	4ab4      	ldr	r2, [pc, #720]	; (80055ec <SysTick_Handler+0x304>)
 800531a:	f892 3054 	ldrb.w	r3, [r2, #84]	; 0x54
 800531e:	f003 03f9 	and.w	r3, r3, #249	; 0xf9
 8005322:	f882 3054 	strb.w	r3, [r2, #84]	; 0x54
 8005326:	4db2      	ldr	r5, [pc, #712]	; (80055f0 <SysTick_Handler+0x308>)
 8005328:	48b2      	ldr	r0, [pc, #712]	; (80055f4 <SysTick_Handler+0x30c>)
 800532a:	682b      	ldr	r3, [r5, #0]
 800532c:	2104      	movs	r1, #4
 800532e:	330a      	adds	r3, #10
 8005330:	602b      	str	r3, [r5, #0]
 8005332:	f003 f9b2 	bl	800869a <ADC_GetFlagStatus>
 8005336:	b1a0      	cbz	r0, 8005362 <SysTick_Handler+0x7a>
 8005338:	48ae      	ldr	r0, [pc, #696]	; (80055f4 <SysTick_Handler+0x30c>)
 800533a:	2104      	movs	r1, #4
 800533c:	f003 f9b3 	bl	80086a6 <ADC_ClearFlag>
 8005340:	2114      	movs	r1, #20
 8005342:	48ac      	ldr	r0, [pc, #688]	; (80055f4 <SysTick_Handler+0x30c>)
 8005344:	f003 f99c 	bl	8008680 <ADC_GetInjectedConversionValue>
 8005348:	f7fb fc5a 	bl	8000c00 <__aeabi_ui2f>
 800534c:	f7fb f844 	bl	80003d8 <__aeabi_f2d>
 8005350:	a397      	add	r3, pc, #604	; (adr r3, 80055b0 <SysTick_Handler+0x2c8>)
 8005352:	e9d3 2300 	ldrd	r2, r3, [r3]
 8005356:	f7fb f893 	bl	8000480 <__aeabi_dmul>
 800535a:	f7fb fb4b 	bl	80009f4 <__aeabi_d2f>
 800535e:	4ba6      	ldr	r3, [pc, #664]	; (80055f8 <SysTick_Handler+0x310>)
 8005360:	6018      	str	r0, [r3, #0]
 8005362:	78a3      	ldrb	r3, [r4, #2]
 8005364:	4ea5      	ldr	r6, [pc, #660]	; (80055fc <SysTick_Handler+0x314>)
 8005366:	3b01      	subs	r3, #1
 8005368:	b2db      	uxtb	r3, r3
 800536a:	48a2      	ldr	r0, [pc, #648]	; (80055f4 <SysTick_Handler+0x30c>)
 800536c:	2101      	movs	r1, #1
 800536e:	70a3      	strb	r3, [r4, #2]
 8005370:	f003 f94b 	bl	800860a <ADC_SoftwareStartInjectedConvCmd>
 8005374:	6833      	ldr	r3, [r6, #0]
 8005376:	07d8      	lsls	r0, r3, #31
 8005378:	f140 8092 	bpl.w	80054a0 <SysTick_Handler+0x1b8>
 800537c:	4fa0      	ldr	r7, [pc, #640]	; (8005600 <SysTick_Handler+0x318>)
 800537e:	6833      	ldr	r3, [r6, #0]
 8005380:	f8b7 b004 	ldrh.w	fp, [r7, #4]
 8005384:	f8b7 a006 	ldrh.w	sl, [r7, #6]
 8005388:	fa9b fb9b 	rev16.w	fp, fp
 800538c:	f8b7 8002 	ldrh.w	r8, [r7, #2]
 8005390:	fa9a fa9a 	rev16.w	sl, sl
 8005394:	f1cb 0b00 	rsb	fp, fp, #0
 8005398:	fa1f fb8b 	uxth.w	fp, fp
 800539c:	f1ca 0a00 	rsb	sl, sl, #0
 80053a0:	f023 0301 	bic.w	r3, r3, #1
 80053a4:	fa98 f898 	rev16.w	r8, r8
 80053a8:	fa1f fa8a 	uxth.w	sl, sl
 80053ac:	4658      	mov	r0, fp
 80053ae:	4995      	ldr	r1, [pc, #596]	; (8005604 <SysTick_Handler+0x31c>)
 80053b0:	6033      	str	r3, [r6, #0]
 80053b2:	fa1f f988 	uxth.w	r9, r8
 80053b6:	f002 f849 	bl	800744c <Add_To_Buffer>
 80053ba:	4650      	mov	r0, sl
 80053bc:	4992      	ldr	r1, [pc, #584]	; (8005608 <SysTick_Handler+0x320>)
 80053be:	f002 f845 	bl	800744c <Add_To_Buffer>
 80053c2:	4648      	mov	r0, r9
 80053c4:	f8df 9264 	ldr.w	r9, [pc, #612]	; 800562c <SysTick_Handler+0x344>
 80053c8:	4990      	ldr	r1, [pc, #576]	; (800560c <SysTick_Handler+0x324>)
 80053ca:	f002 f83f 	bl	800744c <Add_To_Buffer>
 80053ce:	f8d9 3000 	ldr.w	r3, [r9]
 80053d2:	fa0f f08b 	sxth.w	r0, fp
 80053d6:	9300      	str	r3, [sp, #0]
 80053d8:	f7fb fc16 	bl	8000c08 <__aeabi_i2f>
 80053dc:	4683      	mov	fp, r0
 80053de:	fa0f f08a 	sxth.w	r0, sl
 80053e2:	f7fb fc11 	bl	8000c08 <__aeabi_i2f>
 80053e6:	9b00      	ldr	r3, [sp, #0]
 80053e8:	4682      	mov	sl, r0
 80053ea:	4618      	mov	r0, r3
 80053ec:	f7fa fff4 	bl	80003d8 <__aeabi_f2d>
 80053f0:	a371      	add	r3, pc, #452	; (adr r3, 80055b8 <SysTick_Handler+0x2d0>)
 80053f2:	e9d3 2300 	ldrd	r2, r3, [r3]
 80053f6:	f7fb f843 	bl	8000480 <__aeabi_dmul>
 80053fa:	e9cd 0100 	strd	r0, r1, [sp]
 80053fe:	4659      	mov	r1, fp
 8005400:	4658      	mov	r0, fp
 8005402:	f7fb fc55 	bl	8000cb0 <__aeabi_fmul>
 8005406:	4651      	mov	r1, sl
 8005408:	4683      	mov	fp, r0
 800540a:	4650      	mov	r0, sl
 800540c:	f7fb fc50 	bl	8000cb0 <__aeabi_fmul>
 8005410:	4601      	mov	r1, r0
 8005412:	4658      	mov	r0, fp
 8005414:	f7fb fb44 	bl	8000aa0 <__addsf3>
 8005418:	f7fa ffde 	bl	80003d8 <__aeabi_f2d>
 800541c:	a368      	add	r3, pc, #416	; (adr r3, 80055c0 <SysTick_Handler+0x2d8>)
 800541e:	e9d3 2300 	ldrd	r2, r3, [r3]
 8005422:	f7fb f82d 	bl	8000480 <__aeabi_dmul>
 8005426:	4602      	mov	r2, r0
 8005428:	460b      	mov	r3, r1
 800542a:	e9dd 0100 	ldrd	r0, r1, [sp]
 800542e:	f7fa fe75 	bl	800011c <__adddf3>
 8005432:	f7fb fadf 	bl	80009f4 <__aeabi_d2f>
 8005436:	f8c9 0000 	str.w	r0, [r9]
 800543a:	fa0f f088 	sxth.w	r0, r8
 800543e:	f7fb fbe3 	bl	8000c08 <__aeabi_i2f>
 8005442:	f8df a1ec 	ldr.w	sl, [pc, #492]	; 8005630 <SysTick_Handler+0x348>
 8005446:	4683      	mov	fp, r0
 8005448:	f8da 9000 	ldr.w	r9, [sl]
 800544c:	4648      	mov	r0, r9
 800544e:	f7fa ffc3 	bl	80003d8 <__aeabi_f2d>
 8005452:	a359      	add	r3, pc, #356	; (adr r3, 80055b8 <SysTick_Handler+0x2d0>)
 8005454:	e9d3 2300 	ldrd	r2, r3, [r3]
 8005458:	f7fb f812 	bl	8000480 <__aeabi_dmul>
 800545c:	4680      	mov	r8, r0
 800545e:	4689      	mov	r9, r1
 8005460:	4658      	mov	r0, fp
 8005462:	4659      	mov	r1, fp
 8005464:	f7fb fc24 	bl	8000cb0 <__aeabi_fmul>
 8005468:	f7fa ffb6 	bl	80003d8 <__aeabi_f2d>
 800546c:	a354      	add	r3, pc, #336	; (adr r3, 80055c0 <SysTick_Handler+0x2d8>)
 800546e:	e9d3 2300 	ldrd	r2, r3, [r3]
 8005472:	f7fb f805 	bl	8000480 <__aeabi_dmul>
 8005476:	460b      	mov	r3, r1
 8005478:	4602      	mov	r2, r0
 800547a:	4649      	mov	r1, r9
 800547c:	4640      	mov	r0, r8
 800547e:	f7fa fe4d 	bl	800011c <__adddf3>
 8005482:	f7fb fab7 	bl	80009f4 <__aeabi_d2f>
 8005486:	f8ca 0000 	str.w	r0, [sl]
 800548a:	f997 0000 	ldrsb.w	r0, [r7]
 800548e:	f1c0 0032 	rsb	r0, r0, #50	; 0x32
 8005492:	f7fb fbb9 	bl	8000c08 <__aeabi_i2f>
 8005496:	4b5e      	ldr	r3, [pc, #376]	; (8005610 <SysTick_Handler+0x328>)
 8005498:	6018      	str	r0, [r3, #0]
 800549a:	2000      	movs	r0, #0
 800549c:	f7ff ff00 	bl	80052a0 <I2C1_Request_Job>
 80054a0:	6833      	ldr	r3, [r6, #0]
 80054a2:	4a56      	ldr	r2, [pc, #344]	; (80055fc <SysTick_Handler+0x314>)
 80054a4:	0719      	lsls	r1, r3, #28
 80054a6:	d546      	bpl.n	8005536 <SysTick_Handler+0x24e>
 80054a8:	6813      	ldr	r3, [r2, #0]
 80054aa:	f8b4 6003 	ldrh.w	r6, [r4, #3]
 80054ae:	f023 0308 	bic.w	r3, r3, #8
 80054b2:	6013      	str	r3, [r2, #0]
 80054b4:	ba76      	rev16	r6, r6
 80054b6:	f9b4 3018 	ldrsh.w	r3, [r4, #24]
 80054ba:	b230      	sxth	r0, r6
 80054bc:	1ac0      	subs	r0, r0, r3
 80054be:	f7fb fba3 	bl	8000c08 <__aeabi_i2f>
 80054c2:	61e0      	str	r0, [r4, #28]
 80054c4:	69e0      	ldr	r0, [r4, #28]
 80054c6:	4953      	ldr	r1, [pc, #332]	; (8005614 <SysTick_Handler+0x32c>)
 80054c8:	8326      	strh	r6, [r4, #24]
 80054ca:	f7fb fbf1 	bl	8000cb0 <__aeabi_fmul>
 80054ce:	61e0      	str	r0, [r4, #28]
 80054d0:	6a20      	ldr	r0, [r4, #32]
 80054d2:	f7fa ff81 	bl	80003d8 <__aeabi_f2d>
 80054d6:	a33c      	add	r3, pc, #240	; (adr r3, 80055c8 <SysTick_Handler+0x2e0>)
 80054d8:	e9d3 2300 	ldrd	r2, r3, [r3]
 80054dc:	f7fa ffd0 	bl	8000480 <__aeabi_dmul>
 80054e0:	f8d4 801c 	ldr.w	r8, [r4, #28]
 80054e4:	4606      	mov	r6, r0
 80054e6:	4640      	mov	r0, r8
 80054e8:	460f      	mov	r7, r1
 80054ea:	f7fa ff75 	bl	80003d8 <__aeabi_f2d>
 80054ee:	a338      	add	r3, pc, #224	; (adr r3, 80055d0 <SysTick_Handler+0x2e8>)
 80054f0:	e9d3 2300 	ldrd	r2, r3, [r3]
 80054f4:	f7fa ffc4 	bl	8000480 <__aeabi_dmul>
 80054f8:	4602      	mov	r2, r0
 80054fa:	460b      	mov	r3, r1
 80054fc:	4630      	mov	r0, r6
 80054fe:	4639      	mov	r1, r7
 8005500:	f7fa fe0c 	bl	800011c <__adddf3>
 8005504:	f7fb fa76 	bl	80009f4 <__aeabi_d2f>
 8005508:	6220      	str	r0, [r4, #32]
 800550a:	f8b4 0005 	ldrh.w	r0, [r4, #5]
 800550e:	0a03      	lsrs	r3, r0, #8
 8005510:	ea43 2000 	orr.w	r0, r3, r0, lsl #8
 8005514:	b200      	sxth	r0, r0
 8005516:	f7fb fb77 	bl	8000c08 <__aeabi_i2f>
 800551a:	f7fa ff5d 	bl	80003d8 <__aeabi_f2d>
 800551e:	a32e      	add	r3, pc, #184	; (adr r3, 80055d8 <SysTick_Handler+0x2f0>)
 8005520:	e9d3 2300 	ldrd	r2, r3, [r3]
 8005524:	f7fa ffac 	bl	8000480 <__aeabi_dmul>
 8005528:	f7fb fa64 	bl	80009f4 <__aeabi_d2f>
 800552c:	4b3a      	ldr	r3, [pc, #232]	; (8005618 <SysTick_Handler+0x330>)
 800552e:	6018      	str	r0, [r3, #0]
 8005530:	2003      	movs	r0, #3
 8005532:	f7ff feb5 	bl	80052a0 <I2C1_Request_Job>
 8005536:	4e39      	ldr	r6, [pc, #228]	; (800561c <SysTick_Handler+0x334>)
 8005538:	8833      	ldrh	r3, [r6, #0]
 800553a:	b29b      	uxth	r3, r3
 800553c:	2b00      	cmp	r3, #0
 800553e:	f000 8101 	beq.w	8005744 <SysTick_Handler+0x45c>
 8005542:	8833      	ldrh	r3, [r6, #0]
 8005544:	b29b      	uxth	r3, r3
 8005546:	2b01      	cmp	r3, #1
 8005548:	d101      	bne.n	800554e <SysTick_Handler+0x266>
 800554a:	f002 f951 	bl	80077f0 <Timer_GPIO_Enable>
 800554e:	4834      	ldr	r0, [pc, #208]	; (8005620 <SysTick_Handler+0x338>)
 8005550:	2102      	movs	r1, #2
 8005552:	f003 f8a2 	bl	800869a <ADC_GetFlagStatus>
 8005556:	2801      	cmp	r0, #1
 8005558:	d10f      	bne.n	800557a <SysTick_Handler+0x292>
 800555a:	4831      	ldr	r0, [pc, #196]	; (8005620 <SysTick_Handler+0x338>)
 800555c:	f003 f84c 	bl	80085f8 <ADC_GetConversionValue>
 8005560:	f7fb fb4e 	bl	8000c00 <__aeabi_ui2f>
 8005564:	f7fa ff38 	bl	80003d8 <__aeabi_f2d>
 8005568:	a31d      	add	r3, pc, #116	; (adr r3, 80055e0 <SysTick_Handler+0x2f8>)
 800556a:	e9d3 2300 	ldrd	r2, r3, [r3]
 800556e:	f7fb f8b1 	bl	80006d4 <__aeabi_ddiv>
 8005572:	f7fb fa3f 	bl	80009f4 <__aeabi_d2f>
 8005576:	4b2b      	ldr	r3, [pc, #172]	; (8005624 <SysTick_Handler+0x33c>)
 8005578:	6018      	str	r0, [r3, #0]
 800557a:	2101      	movs	r1, #1
 800557c:	460a      	mov	r2, r1
 800557e:	460b      	mov	r3, r1
 8005580:	4827      	ldr	r0, [pc, #156]	; (8005620 <SysTick_Handler+0x338>)
 8005582:	f002 fff7 	bl	8008574 <ADC_RegularChannelConfig>
 8005586:	4826      	ldr	r0, [pc, #152]	; (8005620 <SysTick_Handler+0x338>)
 8005588:	2101      	movs	r1, #1
 800558a:	f002 ffea 	bl	8008562 <ADC_SoftwareStartConvCmd>
 800558e:	8833      	ldrh	r3, [r6, #0]
 8005590:	4a22      	ldr	r2, [pc, #136]	; (800561c <SysTick_Handler+0x334>)
 8005592:	b29b      	uxth	r3, r3
 8005594:	8810      	ldrh	r0, [r2, #0]
 8005596:	2bc7      	cmp	r3, #199	; 0xc7
 8005598:	b280      	uxth	r0, r0
 800559a:	d84b      	bhi.n	8005634 <SysTick_Handler+0x34c>
 800559c:	f7fb fb30 	bl	8000c00 <__aeabi_ui2f>
 80055a0:	4921      	ldr	r1, [pc, #132]	; (8005628 <SysTick_Handler+0x340>)
 80055a2:	f7fb fc39 	bl	8000e18 <__aeabi_fdiv>
 80055a6:	4607      	mov	r7, r0
 80055a8:	e050      	b.n	800564c <SysTick_Handler+0x364>
 80055aa:	bf00      	nop
 80055ac:	f3af 8000 	nop.w
 80055b0:	1416377a 	ldrne	r3, [r6], #-1914	; 0x77a
 80055b4:	3f5a6506 	svccc	0x005a6506
 80055b8:	7ae147ae 	bvc	7857478 <_Minimum_Stack_Size+0x7855478>
 80055bc:	3fefae14 	svccc	0x00efae14
 80055c0:	8e2d417c 	mcrhi	1, 1, r4, cr13, cr12, {3}
 80055c4:	3ea9b153 	mcrcc	1, 5, fp, cr9, cr3, {2}
 80055c8:	9999999a 	ldmibls	r9, {r1, r3, r4, r7, r8, fp, ip, pc}
 80055cc:	3fe99999 	svccc	0x00e99999
 80055d0:	9999999a 	ldmibls	r9, {r1, r3, r4, r7, r8, fp, ip, pc}
 80055d4:	3fc99999 	svccc	0x00c99999
 80055d8:	9ba5e354 	blls	697e330 <_Minimum_Stack_Size+0x697c330>
 80055dc:	3fa020c4 	svccc	0x00a020c4
 80055e0:	cccccccd 	stclgt	12, cr12, [ip], {205}	; 0xcd
 80055e4:	409364cc 	addsmi	r6, r3, ip, asr #9
 80055e8:	20001164 	andcs	r1, r0, r4, ror #2
 80055ec:	2000009c 	mulcs	r0, ip, r0
 80055f0:	200012e0 	andcs	r1, r0, r0, ror #5
 80055f4:	40012800 	andmi	r2, r1, r0, lsl #16
 80055f8:	20000e0c 	andcs	r0, r0, ip, lsl #28
 80055fc:	20001848 	andcs	r1, r0, r8, asr #16
 8005600:	2000109c 	mulcs	r0, ip, r0
 8005604:	20001074 	andcs	r1, r0, r4, ror r0
 8005608:	20001080 	andcs	r1, r0, r0, lsl #1
 800560c:	2000108c 	andcs	r1, r0, ip, lsl #1
 8005610:	200010ac 	andcs	r1, r0, ip, lsr #1
 8005614:	41600000 	cmnmi	r0, r0
 8005618:	200010a8 	andcs	r1, r0, r8, lsr #1
 800561c:	20001072 	andcs	r1, r0, r2, ror r0
 8005620:	40012400 	andmi	r2, r1, r0, lsl #8
 8005624:	20001068 	andcs	r1, r0, r8, rrx
 8005628:	41f00000 	mvnsmi	r0, r0
 800562c:	20001060 	andcs	r1, r0, r0, rrx
 8005630:	20001064 	andcs	r1, r0, r4, rrx
 8005634:	f1c0 00c8 	rsb	r0, r0, #200	; 0xc8
 8005638:	f7fb fae6 	bl	8000c08 <__aeabi_i2f>
 800563c:	497a      	ldr	r1, [pc, #488]	; (8005828 <SysTick_Handler+0x540>)
 800563e:	f7fb fbeb 	bl	8000e18 <__aeabi_fdiv>
 8005642:	2100      	movs	r1, #0
 8005644:	4607      	mov	r7, r0
 8005646:	f7fb fcd1 	bl	8000fec <__aeabi_fcmplt>
 800564a:	b930      	cbnz	r0, 800565a <SysTick_Handler+0x372>
 800564c:	4638      	mov	r0, r7
 800564e:	f04f 517e 	mov.w	r1, #1065353216	; 0x3f800000
 8005652:	f7fb fce9 	bl	8001028 <__aeabi_fcmpgt>
 8005656:	b948      	cbnz	r0, 800566c <SysTick_Handler+0x384>
 8005658:	e000      	b.n	800565c <SysTick_Handler+0x374>
 800565a:	2700      	movs	r7, #0
 800565c:	4973      	ldr	r1, [pc, #460]	; (800582c <SysTick_Handler+0x544>)
 800565e:	4638      	mov	r0, r7
 8005660:	f7fb fb26 	bl	8000cb0 <__aeabi_fmul>
 8005664:	f7fb fcea 	bl	800103c <__aeabi_f2uiz>
 8005668:	b280      	uxth	r0, r0
 800566a:	e001      	b.n	8005670 <SysTick_Handler+0x388>
 800566c:	f647 70ff 	movw	r0, #32767	; 0x7fff
 8005670:	0a03      	lsrs	r3, r0, #8
 8005672:	ea43 2000 	orr.w	r0, r3, r0, lsl #8
 8005676:	b280      	uxth	r0, r0
 8005678:	8160      	strh	r0, [r4, #10]
 800567a:	2002      	movs	r0, #2
 800567c:	f7ff fe10 	bl	80052a0 <I2C1_Request_Job>
 8005680:	8833      	ldrh	r3, [r6, #0]
 8005682:	f8df 91d8 	ldr.w	r9, [pc, #472]	; 800585c <SysTick_Handler+0x574>
 8005686:	b29b      	uxth	r3, r3
 8005688:	2b28      	cmp	r3, #40	; 0x28
 800568a:	d144      	bne.n	8005716 <SysTick_Handler+0x42e>
 800568c:	f8d9 2020 	ldr.w	r2, [r9, #32]
 8005690:	4b67      	ldr	r3, [pc, #412]	; (8005830 <SysTick_Handler+0x548>)
 8005692:	f8df 81d4 	ldr.w	r8, [pc, #468]	; 8005868 <SysTick_Handler+0x580>
 8005696:	601a      	str	r2, [r3, #0]
 8005698:	f8d8 2000 	ldr.w	r2, [r8]
 800569c:	4b65      	ldr	r3, [pc, #404]	; (8005834 <SysTick_Handler+0x54c>)
 800569e:	4966      	ldr	r1, [pc, #408]	; (8005838 <SysTick_Handler+0x550>)
 80056a0:	601a      	str	r2, [r3, #0]
 80056a2:	4b66      	ldr	r3, [pc, #408]	; (800583c <SysTick_Handler+0x554>)
 80056a4:	4f66      	ldr	r7, [pc, #408]	; (8005840 <SysTick_Handler+0x558>)
 80056a6:	6818      	ldr	r0, [r3, #0]
 80056a8:	f7fb fcbe 	bl	8001028 <__aeabi_fcmpgt>
 80056ac:	bb28      	cbnz	r0, 80056fa <SysTick_Handler+0x412>
 80056ae:	f8d9 0020 	ldr.w	r0, [r9, #32]
 80056b2:	4964      	ldr	r1, [pc, #400]	; (8005844 <SysTick_Handler+0x55c>)
 80056b4:	f7fb fc9a 	bl	8000fec <__aeabi_fcmplt>
 80056b8:	b928      	cbnz	r0, 80056c6 <SysTick_Handler+0x3de>
 80056ba:	f8d9 001c 	ldr.w	r0, [r9, #28]
 80056be:	4962      	ldr	r1, [pc, #392]	; (8005848 <SysTick_Handler+0x560>)
 80056c0:	f7fb fcb2 	bl	8001028 <__aeabi_fcmpgt>
 80056c4:	b108      	cbz	r0, 80056ca <SysTick_Handler+0x3e2>
 80056c6:	2302      	movs	r3, #2
 80056c8:	e018      	b.n	80056fc <SysTick_Handler+0x414>
 80056ca:	f8d8 0000 	ldr.w	r0, [r8]
 80056ce:	f7fa fe83 	bl	80003d8 <__aeabi_f2d>
 80056d2:	a351      	add	r3, pc, #324	; (adr r3, 8005818 <SysTick_Handler+0x530>)
 80056d4:	e9d3 2300 	ldrd	r2, r3, [r3]
 80056d8:	f7fb f962 	bl	80009a0 <__aeabi_dcmpgt>
 80056dc:	b168      	cbz	r0, 80056fa <SysTick_Handler+0x412>
 80056de:	f8d8 0000 	ldr.w	r0, [r8]
 80056e2:	f7fa fe79 	bl	80003d8 <__aeabi_f2d>
 80056e6:	a34e      	add	r3, pc, #312	; (adr r3, 8005820 <SysTick_Handler+0x538>)
 80056e8:	e9d3 2300 	ldrd	r2, r3, [r3]
 80056ec:	f7fb f93a 	bl	8000964 <__aeabi_dcmplt>
 80056f0:	2800      	cmp	r0, #0
 80056f2:	bf14      	ite	ne
 80056f4:	2301      	movne	r3, #1
 80056f6:	2303      	moveq	r3, #3
 80056f8:	e000      	b.n	80056fc <SysTick_Handler+0x414>
 80056fa:	2303      	movs	r3, #3
 80056fc:	703b      	strb	r3, [r7, #0]
 80056fe:	783a      	ldrb	r2, [r7, #0]
 8005700:	b2d2      	uxtb	r2, r2
 8005702:	2a01      	cmp	r2, #1
 8005704:	d002      	beq.n	800570c <SysTick_Handler+0x424>
 8005706:	23c8      	movs	r3, #200	; 0xc8
 8005708:	8033      	strh	r3, [r6, #0]
 800570a:	e004      	b.n	8005716 <SysTick_Handler+0x42e>
 800570c:	484f      	ldr	r0, [pc, #316]	; (800584c <SysTick_Handler+0x564>)
 800570e:	f44f 5180 	mov.w	r1, #4096	; 0x1000
 8005712:	f003 f9bf 	bl	8008a94 <GPIO_WriteBit>
 8005716:	8833      	ldrh	r3, [r6, #0]
 8005718:	b29b      	uxth	r3, r3
 800571a:	2bc7      	cmp	r3, #199	; 0xc7
 800571c:	d905      	bls.n	800572a <SysTick_Handler+0x442>
 800571e:	484b      	ldr	r0, [pc, #300]	; (800584c <SysTick_Handler+0x564>)
 8005720:	f44f 5180 	mov.w	r1, #4096	; 0x1000
 8005724:	2200      	movs	r2, #0
 8005726:	f003 f9b5 	bl	8008a94 <GPIO_WriteBit>
 800572a:	8833      	ldrh	r3, [r6, #0]
 800572c:	3301      	adds	r3, #1
 800572e:	b29b      	uxth	r3, r3
 8005730:	8033      	strh	r3, [r6, #0]
 8005732:	8833      	ldrh	r3, [r6, #0]
 8005734:	b29b      	uxth	r3, r3
 8005736:	2bf9      	cmp	r3, #249	; 0xf9
 8005738:	d904      	bls.n	8005744 <SysTick_Handler+0x45c>
 800573a:	f002 f845 	bl	80077c8 <Timer_GPIO_Disable>
 800573e:	4b44      	ldr	r3, [pc, #272]	; (8005850 <SysTick_Handler+0x568>)
 8005740:	2200      	movs	r2, #0
 8005742:	801a      	strh	r2, [r3, #0]
 8005744:	4843      	ldr	r0, [pc, #268]	; (8005854 <SysTick_Handler+0x56c>)
 8005746:	2101      	movs	r1, #1
 8005748:	f003 f99a 	bl	8008a80 <GPIO_ReadInputDataBit>
 800574c:	b198      	cbz	r0, 8005776 <SysTick_Handler+0x48e>
 800574e:	f894 3024 	ldrb.w	r3, [r4, #36]	; 0x24
 8005752:	b983      	cbnz	r3, 8005776 <SysTick_Handler+0x48e>
 8005754:	4b40      	ldr	r3, [pc, #256]	; (8005858 <SysTick_Handler+0x570>)
 8005756:	781b      	ldrb	r3, [r3, #0]
 8005758:	2b01      	cmp	r3, #1
 800575a:	d00c      	beq.n	8005776 <SysTick_Handler+0x48e>
 800575c:	4b3f      	ldr	r3, [pc, #252]	; (800585c <SysTick_Handler+0x574>)
 800575e:	22c8      	movs	r2, #200	; 0xc8
 8005760:	483a      	ldr	r0, [pc, #232]	; (800584c <SysTick_Handler+0x564>)
 8005762:	2104      	movs	r1, #4
 8005764:	f883 2025 	strb.w	r2, [r3, #37]	; 0x25
 8005768:	f003 f98a 	bl	8008a80 <GPIO_ReadInputDataBit>
 800576c:	b188      	cbz	r0, 8005792 <SysTick_Handler+0x4aa>
 800576e:	4b3c      	ldr	r3, [pc, #240]	; (8005860 <SysTick_Handler+0x578>)
 8005770:	2202      	movs	r2, #2
 8005772:	701a      	strb	r2, [r3, #0]
 8005774:	e00d      	b.n	8005792 <SysTick_Handler+0x4aa>
 8005776:	f894 3024 	ldrb.w	r3, [r4, #36]	; 0x24
 800577a:	b153      	cbz	r3, 8005792 <SysTick_Handler+0x4aa>
 800577c:	4835      	ldr	r0, [pc, #212]	; (8005854 <SysTick_Handler+0x56c>)
 800577e:	2101      	movs	r1, #1
 8005780:	f003 f97e 	bl	8008a80 <GPIO_ReadInputDataBit>
 8005784:	b928      	cbnz	r0, 8005792 <SysTick_Handler+0x4aa>
 8005786:	4b34      	ldr	r3, [pc, #208]	; (8005858 <SysTick_Handler+0x570>)
 8005788:	781b      	ldrb	r3, [r3, #0]
 800578a:	2b01      	cmp	r3, #1
 800578c:	d101      	bne.n	8005792 <SysTick_Handler+0x4aa>
 800578e:	f002 f812 	bl	80077b6 <shutdown>
 8005792:	4830      	ldr	r0, [pc, #192]	; (8005854 <SysTick_Handler+0x56c>)
 8005794:	2101      	movs	r1, #1
 8005796:	f003 f973 	bl	8008a80 <GPIO_ReadInputDataBit>
 800579a:	f894 3025 	ldrb.w	r3, [r4, #37]	; 0x25
 800579e:	4a2f      	ldr	r2, [pc, #188]	; (800585c <SysTick_Handler+0x574>)
 80057a0:	f884 0024 	strb.w	r0, [r4, #36]	; 0x24
 80057a4:	b1db      	cbz	r3, 80057de <SysTick_Handler+0x4f6>
 80057a6:	f892 3025 	ldrb.w	r3, [r2, #37]	; 0x25
 80057aa:	b140      	cbz	r0, 80057be <SysTick_Handler+0x4d6>
 80057ac:	3b01      	subs	r3, #1
 80057ae:	b2db      	uxtb	r3, r3
 80057b0:	f882 3025 	strb.w	r3, [r2, #37]	; 0x25
 80057b4:	b99b      	cbnz	r3, 80057de <SysTick_Handler+0x4f6>
 80057b6:	4b2a      	ldr	r3, [pc, #168]	; (8005860 <SysTick_Handler+0x578>)
 80057b8:	2201      	movs	r2, #1
 80057ba:	701a      	strb	r2, [r3, #0]
 80057bc:	e00f      	b.n	80057de <SysTick_Handler+0x4f6>
 80057be:	2bc2      	cmp	r3, #194	; 0xc2
 80057c0:	d80a      	bhi.n	80057d8 <SysTick_Handler+0x4f0>
 80057c2:	682b      	ldr	r3, [r5, #0]
 80057c4:	6293      	str	r3, [r2, #40]	; 0x28
 80057c6:	f892 302c 	ldrb.w	r3, [r2, #44]	; 0x2c
 80057ca:	3301      	adds	r3, #1
 80057cc:	b2db      	uxtb	r3, r3
 80057ce:	2b03      	cmp	r3, #3
 80057d0:	bf88      	it	hi
 80057d2:	2300      	movhi	r3, #0
 80057d4:	f882 302c 	strb.w	r3, [r2, #44]	; 0x2c
 80057d8:	2300      	movs	r3, #0
 80057da:	f884 3025 	strb.w	r3, [r4, #37]	; 0x25
 80057de:	6aa2      	ldr	r2, [r4, #40]	; 0x28
 80057e0:	491e      	ldr	r1, [pc, #120]	; (800585c <SysTick_Handler+0x574>)
 80057e2:	b1b2      	cbz	r2, 8005812 <SysTick_Handler+0x52a>
 80057e4:	682b      	ldr	r3, [r5, #0]
 80057e6:	1a9b      	subs	r3, r3, r2
 80057e8:	f5b3 7fe1 	cmp.w	r3, #450	; 0x1c2
 80057ec:	d911      	bls.n	8005812 <SysTick_Handler+0x52a>
 80057ee:	f891 3025 	ldrb.w	r3, [r1, #37]	; 0x25
 80057f2:	b973      	cbnz	r3, 8005812 <SysTick_Handler+0x52a>
 80057f4:	4a1b      	ldr	r2, [pc, #108]	; (8005864 <SysTick_Handler+0x57c>)
 80057f6:	7813      	ldrb	r3, [r2, #0]
 80057f8:	061b      	lsls	r3, r3, #24
 80057fa:	bf5e      	ittt	pl
 80057fc:	f891 302c 	ldrbpl.w	r3, [r1, #44]	; 0x2c
 8005800:	f043 0380 	orrpl.w	r3, r3, #128	; 0x80
 8005804:	7013      	strbpl	r3, [r2, #0]
 8005806:	2300      	movs	r3, #0
 8005808:	f884 302c 	strb.w	r3, [r4, #44]	; 0x2c
 800580c:	62a3      	str	r3, [r4, #40]	; 0x28
 800580e:	f884 3025 	strb.w	r3, [r4, #37]	; 0x25
 8005812:	b003      	add	sp, #12
 8005814:	e8bd 8ff0 	ldmia.w	sp!, {r4, r5, r6, r7, r8, r9, sl, fp, pc}
 8005818:	33333333 	teqcc	r3, #-872415232	; 0xcc000000
 800581c:	3fc33333 	svccc	0x00c33333
 8005820:	51eb851f 	mvnpl	r8, pc, lsl r5
 8005824:	3fdd1eb8 	svccc	0x00dd1eb8
 8005828:	42480000 	submi	r0, r8, #0
 800582c:	46fffe00 	ldrbtmi	pc, [pc], r0, lsl #28	; <UNPREDICTABLE>
 8005830:	200010b0 	strhcs	r1, [r0], -r0
 8005834:	2000106c 	andcs	r1, r0, ip, rrx
 8005838:	41200000 	teqmi	r0, r0
 800583c:	20001060 	andcs	r1, r0, r0, rrx
 8005840:	20001070 	andcs	r1, r0, r0, ror r0
 8005844:	43250000 	teqmi	r5, #0
 8005848:	43960000 	orrsmi	r0, r6, #0
 800584c:	40010c00 	andmi	r0, r1, r0, lsl #24
 8005850:	20001072 	andcs	r1, r0, r2, ror r0
 8005854:	40010800 	andmi	r0, r1, r0, lsl #16
 8005858:	20000e00 	andcs	r0, r0, r0, lsl #28
 800585c:	20001164 	andcs	r1, r0, r4, ror #2
 8005860:	200010b4 	strhcs	r1, [r0], -r4
 8005864:	200010a4 	andcs	r1, r0, r4, lsr #1
 8005868:	20001068 	andcs	r1, r0, r8, rrx
 800586c:	f3af 8000 	nop.w

08005870 <I2C1_ER_IRQHandler>:
 8005870:	b537      	push	{r0, r1, r2, r4, r5, lr}
 8005872:	4b34      	ldr	r3, [pc, #208]	; (8005944 <I2C1_ER_IRQHandler+0xd4>)
 8005874:	8a9b      	ldrh	r3, [r3, #20]
 8005876:	b29b      	uxth	r3, r3
 8005878:	9300      	str	r3, [sp, #0]
 800587a:	9b00      	ldr	r3, [sp, #0]
 800587c:	f413 6f70 	tst.w	r3, #3840	; 0xf00
 8005880:	d009      	beq.n	8005896 <I2C1_ER_IRQHandler+0x26>
 8005882:	9b00      	ldr	r3, [sp, #0]
 8005884:	4a30      	ldr	r2, [pc, #192]	; (8005948 <I2C1_ER_IRQHandler+0xd8>)
 8005886:	f3c3 2303 	ubfx	r3, r3, #8, #4
 800588a:	7013      	strb	r3, [r2, #0]
 800588c:	4b2f      	ldr	r3, [pc, #188]	; (800594c <I2C1_ER_IRQHandler+0xdc>)
 800588e:	f893 302d 	ldrb.w	r3, [r3, #45]	; 0x2d
 8005892:	b2db      	uxtb	r3, r3
 8005894:	7053      	strb	r3, [r2, #1]
 8005896:	9b00      	ldr	r3, [sp, #0]
 8005898:	f413 6fe0 	tst.w	r3, #1792	; 0x700
 800589c:	d048      	beq.n	8005930 <I2C1_ER_IRQHandler+0xc0>
 800589e:	4c29      	ldr	r4, [pc, #164]	; (8005944 <I2C1_ER_IRQHandler+0xd4>)
 80058a0:	f44f 6180 	mov.w	r1, #1024	; 0x400
 80058a4:	8b23      	ldrh	r3, [r4, #24]
 80058a6:	4620      	mov	r0, r4
 80058a8:	b29b      	uxth	r3, r3
 80058aa:	2200      	movs	r2, #0
 80058ac:	9301      	str	r3, [sp, #4]
 80058ae:	f003 f9bf 	bl	8008c30 <I2C_ITConfig>
 80058b2:	4b26      	ldr	r3, [pc, #152]	; (800594c <I2C1_ER_IRQHandler+0xdc>)
 80058b4:	2101      	movs	r1, #1
 80058b6:	f893 002d 	ldrb.w	r0, [r3, #45]	; 0x2d
 80058ba:	4b25      	ldr	r3, [pc, #148]	; (8005950 <I2C1_ER_IRQHandler+0xe0>)
 80058bc:	fa01 f000 	lsl.w	r0, r1, r0
 80058c0:	681a      	ldr	r2, [r3, #0]
 80058c2:	ea22 0200 	bic.w	r2, r2, r0
 80058c6:	601a      	str	r2, [r3, #0]
 80058c8:	681a      	ldr	r2, [r3, #0]
 80058ca:	4623      	mov	r3, r4
 80058cc:	b172      	cbz	r2, 80058ec <I2C1_ER_IRQHandler+0x7c>
 80058ce:	8822      	ldrh	r2, [r4, #0]
 80058d0:	05d1      	lsls	r1, r2, #23
 80058d2:	d406      	bmi.n	80058e2 <I2C1_ER_IRQHandler+0x72>
 80058d4:	881a      	ldrh	r2, [r3, #0]
 80058d6:	0592      	lsls	r2, r2, #22
 80058d8:	d4fc      	bmi.n	80058d4 <I2C1_ER_IRQHandler+0x64>
 80058da:	481a      	ldr	r0, [pc, #104]	; (8005944 <I2C1_ER_IRQHandler+0xd4>)
 80058dc:	2101      	movs	r1, #1
 80058de:	f003 f983 	bl	8008be8 <I2C_GenerateSTART>
 80058e2:	4818      	ldr	r0, [pc, #96]	; (8005944 <I2C1_ER_IRQHandler+0xd4>)
 80058e4:	f44f 7140 	mov.w	r1, #768	; 0x300
 80058e8:	2201      	movs	r2, #1
 80058ea:	e01f      	b.n	800592c <I2C1_ER_IRQHandler+0xbc>
 80058ec:	9b00      	ldr	r3, [sp, #0]
 80058ee:	059d      	lsls	r5, r3, #22
 80058f0:	d41e      	bmi.n	8005930 <I2C1_ER_IRQHandler+0xc0>
 80058f2:	8823      	ldrh	r3, [r4, #0]
 80058f4:	0598      	lsls	r0, r3, #22
 80058f6:	d41b      	bmi.n	8005930 <I2C1_ER_IRQHandler+0xc0>
 80058f8:	8825      	ldrh	r5, [r4, #0]
 80058fa:	f405 7580 	and.w	r5, r5, #256	; 0x100
 80058fe:	b2ad      	uxth	r5, r5
 8005900:	b16d      	cbz	r5, 800591e <I2C1_ER_IRQHandler+0xae>
 8005902:	4c10      	ldr	r4, [pc, #64]	; (8005944 <I2C1_ER_IRQHandler+0xd4>)
 8005904:	8823      	ldrh	r3, [r4, #0]
 8005906:	05da      	lsls	r2, r3, #23
 8005908:	d4fb      	bmi.n	8005902 <I2C1_ER_IRQHandler+0x92>
 800590a:	4620      	mov	r0, r4
 800590c:	2101      	movs	r1, #1
 800590e:	f003 f977 	bl	8008c00 <I2C_GenerateSTOP>
 8005912:	8823      	ldrh	r3, [r4, #0]
 8005914:	059b      	lsls	r3, r3, #22
 8005916:	d4fc      	bmi.n	8005912 <I2C1_ER_IRQHandler+0xa2>
 8005918:	f7ff fc26 	bl	8005168 <I2C_Config>
 800591c:	e008      	b.n	8005930 <I2C1_ER_IRQHandler+0xc0>
 800591e:	4620      	mov	r0, r4
 8005920:	f003 f96e 	bl	8008c00 <I2C_GenerateSTOP>
 8005924:	4620      	mov	r0, r4
 8005926:	462a      	mov	r2, r5
 8005928:	f44f 7140 	mov.w	r1, #768	; 0x300
 800592c:	f003 f980 	bl	8008c30 <I2C_ITConfig>
 8005930:	4a04      	ldr	r2, [pc, #16]	; (8005944 <I2C1_ER_IRQHandler+0xd4>)
 8005932:	8a93      	ldrh	r3, [r2, #20]
 8005934:	f423 6370 	bic.w	r3, r3, #3840	; 0xf00
 8005938:	041b      	lsls	r3, r3, #16
 800593a:	0c1b      	lsrs	r3, r3, #16
 800593c:	8293      	strh	r3, [r2, #20]
 800593e:	b003      	add	sp, #12
 8005940:	bd30      	pop	{r4, r5, pc}
 8005942:	bf00      	nop
 8005944:	40005400 	andmi	r5, r0, r0, lsl #8
 8005948:	2000109a 	mulcs	r0, sl, r0
 800594c:	20001164 	andcs	r1, r0, r4, ror #2
 8005950:	20001844 	andcs	r1, r0, r4, asr #16

08005954 <I2C1_EV_IRQHandler>:
 8005954:	e92d 47f3 	stmdb	sp!, {r0, r1, r4, r5, r6, r7, r8, r9, sl, lr}
 8005958:	4bc2      	ldr	r3, [pc, #776]	; (8005c64 <I2C1_EV_IRQHandler+0x310>)
 800595a:	4fc3      	ldr	r7, [pc, #780]	; (8005c68 <I2C1_EV_IRQHandler+0x314>)
 800595c:	4cc3      	ldr	r4, [pc, #780]	; (8005c6c <I2C1_EV_IRQHandler+0x318>)
 800595e:	f8b3 8014 	ldrh.w	r8, [r3, #20]
 8005962:	683b      	ldr	r3, [r7, #0]
 8005964:	f894 202d 	ldrb.w	r2, [r4, #45]	; 0x2d
 8005968:	fa1f f888 	uxth.w	r8, r8
 800596c:	40d3      	lsrs	r3, r2
 800596e:	f013 0301 	ands.w	r3, r3, #1
 8005972:	fa5f f688 	uxtb.w	r6, r8
 8005976:	d11c      	bne.n	80059b2 <I2C1_EV_IRQHandler+0x5e>
 8005978:	f884 302d 	strb.w	r3, [r4, #45]	; 0x2d
 800597c:	683b      	ldr	r3, [r7, #0]
 800597e:	f894 102d 	ldrb.w	r1, [r4, #45]	; 0x2d
 8005982:	4aba      	ldr	r2, [pc, #744]	; (8005c6c <I2C1_EV_IRQHandler+0x318>)
 8005984:	40cb      	lsrs	r3, r1
 8005986:	07db      	lsls	r3, r3, #31
 8005988:	d40a      	bmi.n	80059a0 <I2C1_EV_IRQHandler+0x4c>
 800598a:	f892 302d 	ldrb.w	r3, [r2, #45]	; 0x2d
 800598e:	2b02      	cmp	r3, #2
 8005990:	d806      	bhi.n	80059a0 <I2C1_EV_IRQHandler+0x4c>
 8005992:	f892 302d 	ldrb.w	r3, [r2, #45]	; 0x2d
 8005996:	3301      	adds	r3, #1
 8005998:	b2db      	uxtb	r3, r3
 800599a:	f882 302d 	strb.w	r3, [r2, #45]	; 0x2d
 800599e:	e7ed      	b.n	800597c <I2C1_EV_IRQHandler+0x28>
 80059a0:	2300      	movs	r3, #0
 80059a2:	f884 302e 	strb.w	r3, [r4, #46]	; 0x2e
 80059a6:	683b      	ldr	r3, [r7, #0]
 80059a8:	b91b      	cbnz	r3, 80059b2 <I2C1_EV_IRQHandler+0x5e>
 80059aa:	48ae      	ldr	r0, [pc, #696]	; (8005c64 <I2C1_EV_IRQHandler+0x310>)
 80059ac:	2101      	movs	r1, #1
 80059ae:	f003 f927 	bl	8008c00 <I2C_GenerateSTOP>
 80059b2:	f016 0201 	ands.w	r2, r6, #1
 80059b6:	4dae      	ldr	r5, [pc, #696]	; (8005c70 <I2C1_EV_IRQHandler+0x31c>)
 80059b8:	d04f      	beq.n	8005a5a <I2C1_EV_IRQHandler+0x106>
 80059ba:	48aa      	ldr	r0, [pc, #680]	; (8005c64 <I2C1_EV_IRQHandler+0x310>)
 80059bc:	2101      	movs	r1, #1
 80059be:	f003 f92b 	bl	8008c18 <I2C_AcknowledgeConfig>
 80059c2:	2300      	movs	r3, #0
 80059c4:	f884 302f 	strb.w	r3, [r4, #47]	; 0x2f
 80059c8:	f894 302d 	ldrb.w	r3, [r4, #45]	; 0x2d
 80059cc:	4aa7      	ldr	r2, [pc, #668]	; (8005c6c <I2C1_EV_IRQHandler+0x318>)
 80059ce:	eb05 03c3 	add.w	r3, r5, r3, lsl #3
 80059d2:	f893 3035 	ldrb.w	r3, [r3, #53]	; 0x35
 80059d6:	2b01      	cmp	r3, #1
 80059d8:	d127      	bne.n	8005a2a <I2C1_EV_IRQHandler+0xd6>
 80059da:	f892 302e 	ldrb.w	r3, [r2, #46]	; 0x2e
 80059de:	b93b      	cbnz	r3, 80059f0 <I2C1_EV_IRQHandler+0x9c>
 80059e0:	f892 302d 	ldrb.w	r3, [r2, #45]	; 0x2d
 80059e4:	eb05 03c3 	add.w	r3, r5, r3, lsl #3
 80059e8:	f893 3037 	ldrb.w	r3, [r3, #55]	; 0x37
 80059ec:	2bff      	cmp	r3, #255	; 0xff
 80059ee:	d11c      	bne.n	8005a2a <I2C1_EV_IRQHandler+0xd6>
 80059f0:	2301      	movs	r3, #1
 80059f2:	f884 302e 	strb.w	r3, [r4, #46]	; 0x2e
 80059f6:	f894 302d 	ldrb.w	r3, [r4, #45]	; 0x2d
 80059fa:	489a      	ldr	r0, [pc, #616]	; (8005c64 <I2C1_EV_IRQHandler+0x310>)
 80059fc:	eb05 03c3 	add.w	r3, r5, r3, lsl #3
 8005a00:	f893 3036 	ldrb.w	r3, [r3, #54]	; 0x36
 8005a04:	2b02      	cmp	r3, #2
 8005a06:	bf01      	itttt	eq
 8005a08:	4a96      	ldreq	r2, [pc, #600]	; (8005c64 <I2C1_EV_IRQHandler+0x310>)
 8005a0a:	8813      	ldrheq	r3, [r2, #0]
 8005a0c:	b29b      	uxtheq	r3, r3
 8005a0e:	f443 6300 	orreq.w	r3, r3, #2048	; 0x800
 8005a12:	bf08      	it	eq
 8005a14:	8013      	strheq	r3, [r2, #0]
 8005a16:	f894 302d 	ldrb.w	r3, [r4, #45]	; 0x2d
 8005a1a:	2201      	movs	r2, #1
 8005a1c:	eb05 03c3 	add.w	r3, r5, r3, lsl #3
 8005a20:	f893 1034 	ldrb.w	r1, [r3, #52]	; 0x34
 8005a24:	f003 f912 	bl	8008c4c <I2C_Send7bitAddress>
 8005a28:	e1bf      	b.n	8005daa <I2C1_EV_IRQHandler+0x456>
 8005a2a:	f894 302d 	ldrb.w	r3, [r4, #45]	; 0x2d
 8005a2e:	488d      	ldr	r0, [pc, #564]	; (8005c64 <I2C1_EV_IRQHandler+0x310>)
 8005a30:	eb05 03c3 	add.w	r3, r5, r3, lsl #3
 8005a34:	f893 1034 	ldrb.w	r1, [r3, #52]	; 0x34
 8005a38:	2200      	movs	r2, #0
 8005a3a:	f003 f907 	bl	8008c4c <I2C_Send7bitAddress>
 8005a3e:	f894 302d 	ldrb.w	r3, [r4, #45]	; 0x2d
 8005a42:	eb05 03c3 	add.w	r3, r5, r3, lsl #3
 8005a46:	f893 3037 	ldrb.w	r3, [r3, #55]	; 0x37
 8005a4a:	2bff      	cmp	r3, #255	; 0xff
 8005a4c:	f000 81ad 	beq.w	8005daa <I2C1_EV_IRQHandler+0x456>
 8005a50:	4b86      	ldr	r3, [pc, #536]	; (8005c6c <I2C1_EV_IRQHandler+0x318>)
 8005a52:	22ff      	movs	r2, #255	; 0xff
 8005a54:	f883 202f 	strb.w	r2, [r3, #47]	; 0x2f
 8005a58:	e1a7      	b.n	8005daa <I2C1_EV_IRQHandler+0x456>
 8005a5a:	f006 0302 	and.w	r3, r6, #2
 8005a5e:	f003 01ff 	and.w	r1, r3, #255	; 0xff
 8005a62:	2b00      	cmp	r3, #0
 8005a64:	d072      	beq.n	8005b4c <I2C1_EV_IRQHandler+0x1f8>
 8005a66:	f3bf 8f5f 	dmb	sy
 8005a6a:	f894 302d 	ldrb.w	r3, [r4, #45]	; 0x2d
 8005a6e:	f8df 91fc 	ldr.w	r9, [pc, #508]	; 8005c6c <I2C1_EV_IRQHandler+0x318>
 8005a72:	eb05 03c3 	add.w	r3, r5, r3, lsl #3
 8005a76:	f893 3036 	ldrb.w	r3, [r3, #54]	; 0x36
 8005a7a:	2b01      	cmp	r3, #1
 8005a7c:	d123      	bne.n	8005ac6 <I2C1_EV_IRQHandler+0x172>
 8005a7e:	f899 302d 	ldrb.w	r3, [r9, #45]	; 0x2d
 8005a82:	eb05 03c3 	add.w	r3, r5, r3, lsl #3
 8005a86:	f893 6035 	ldrb.w	r6, [r3, #53]	; 0x35
 8005a8a:	b2f6      	uxtb	r6, r6
 8005a8c:	2e01      	cmp	r6, #1
 8005a8e:	d11a      	bne.n	8005ac6 <I2C1_EV_IRQHandler+0x172>
 8005a90:	f899 302e 	ldrb.w	r3, [r9, #46]	; 0x2e
 8005a94:	b1bb      	cbz	r3, 8005ac6 <I2C1_EV_IRQHandler+0x172>
 8005a96:	f8df 81cc 	ldr.w	r8, [pc, #460]	; 8005c64 <I2C1_EV_IRQHandler+0x310>
 8005a9a:	4611      	mov	r1, r2
 8005a9c:	4640      	mov	r0, r8
 8005a9e:	f003 f8bb 	bl	8008c18 <I2C_AcknowledgeConfig>
 8005aa2:	f3bf 8f5f 	dmb	sy
 8005aa6:	f8b8 3018 	ldrh.w	r3, [r8, #24]
 8005aaa:	4640      	mov	r0, r8
 8005aac:	b2db      	uxtb	r3, r3
 8005aae:	4631      	mov	r1, r6
 8005ab0:	f88d 3007 	strb.w	r3, [sp, #7]
 8005ab4:	f003 f8a4 	bl	8008c00 <I2C_GenerateSTOP>
 8005ab8:	f889 6030 	strb.w	r6, [r9, #48]	; 0x30
 8005abc:	4640      	mov	r0, r8
 8005abe:	f44f 6180 	mov.w	r1, #1024	; 0x400
 8005ac2:	4632      	mov	r2, r6
 8005ac4:	e023      	b.n	8005b0e <I2C1_EV_IRQHandler+0x1ba>
 8005ac6:	4e67      	ldr	r6, [pc, #412]	; (8005c64 <I2C1_EV_IRQHandler+0x310>)
 8005ac8:	8b33      	ldrh	r3, [r6, #24]
 8005aca:	b2db      	uxtb	r3, r3
 8005acc:	f88d 3007 	strb.w	r3, [sp, #7]
 8005ad0:	f3bf 8f5f 	dmb	sy
 8005ad4:	f894 302d 	ldrb.w	r3, [r4, #45]	; 0x2d
 8005ad8:	4a64      	ldr	r2, [pc, #400]	; (8005c6c <I2C1_EV_IRQHandler+0x318>)
 8005ada:	eb05 03c3 	add.w	r3, r5, r3, lsl #3
 8005ade:	f893 3036 	ldrb.w	r3, [r3, #54]	; 0x36
 8005ae2:	2b02      	cmp	r3, #2
 8005ae4:	d116      	bne.n	8005b14 <I2C1_EV_IRQHandler+0x1c0>
 8005ae6:	f892 102d 	ldrb.w	r1, [r2, #45]	; 0x2d
 8005aea:	4b61      	ldr	r3, [pc, #388]	; (8005c70 <I2C1_EV_IRQHandler+0x31c>)
 8005aec:	eb03 03c1 	add.w	r3, r3, r1, lsl #3
 8005af0:	f893 3035 	ldrb.w	r3, [r3, #53]	; 0x35
 8005af4:	2b01      	cmp	r3, #1
 8005af6:	d10d      	bne.n	8005b14 <I2C1_EV_IRQHandler+0x1c0>
 8005af8:	f892 302e 	ldrb.w	r3, [r2, #46]	; 0x2e
 8005afc:	b153      	cbz	r3, 8005b14 <I2C1_EV_IRQHandler+0x1c0>
 8005afe:	4630      	mov	r0, r6
 8005b00:	2100      	movs	r1, #0
 8005b02:	f003 f889 	bl	8008c18 <I2C_AcknowledgeConfig>
 8005b06:	4630      	mov	r0, r6
 8005b08:	f44f 6180 	mov.w	r1, #1024	; 0x400
 8005b0c:	2200      	movs	r2, #0
 8005b0e:	f003 f88f 	bl	8008c30 <I2C_ITConfig>
 8005b12:	e14a      	b.n	8005daa <I2C1_EV_IRQHandler+0x456>
 8005b14:	f894 302d 	ldrb.w	r3, [r4, #45]	; 0x2d
 8005b18:	4a54      	ldr	r2, [pc, #336]	; (8005c6c <I2C1_EV_IRQHandler+0x318>)
 8005b1a:	eb05 03c3 	add.w	r3, r5, r3, lsl #3
 8005b1e:	f893 3036 	ldrb.w	r3, [r3, #54]	; 0x36
 8005b22:	2b03      	cmp	r3, #3
 8005b24:	d10d      	bne.n	8005b42 <I2C1_EV_IRQHandler+0x1ee>
 8005b26:	f892 102d 	ldrb.w	r1, [r2, #45]	; 0x2d
 8005b2a:	4b51      	ldr	r3, [pc, #324]	; (8005c70 <I2C1_EV_IRQHandler+0x31c>)
 8005b2c:	eb03 03c1 	add.w	r3, r3, r1, lsl #3
 8005b30:	f893 3035 	ldrb.w	r3, [r3, #53]	; 0x35
 8005b34:	2b01      	cmp	r3, #1
 8005b36:	d104      	bne.n	8005b42 <I2C1_EV_IRQHandler+0x1ee>
 8005b38:	f892 302e 	ldrb.w	r3, [r2, #46]	; 0x2e
 8005b3c:	b10b      	cbz	r3, 8005b42 <I2C1_EV_IRQHandler+0x1ee>
 8005b3e:	4849      	ldr	r0, [pc, #292]	; (8005c64 <I2C1_EV_IRQHandler+0x310>)
 8005b40:	e7e2      	b.n	8005b08 <I2C1_EV_IRQHandler+0x1b4>
 8005b42:	4848      	ldr	r0, [pc, #288]	; (8005c64 <I2C1_EV_IRQHandler+0x310>)
 8005b44:	f44f 6180 	mov.w	r1, #1024	; 0x400
 8005b48:	2201      	movs	r2, #1
 8005b4a:	e7e0      	b.n	8005b0e <I2C1_EV_IRQHandler+0x1ba>
 8005b4c:	f006 0304 	and.w	r3, r6, #4
 8005b50:	f003 09ff 	and.w	r9, r3, #255	; 0xff
 8005b54:	2b00      	cmp	r3, #0
 8005b56:	f000 80b4 	beq.w	8005cc2 <I2C1_EV_IRQHandler+0x36e>
 8005b5a:	683a      	ldr	r2, [r7, #0]
 8005b5c:	f894 002d 	ldrb.w	r0, [r4, #45]	; 0x2d
 8005b60:	2301      	movs	r3, #1
 8005b62:	4083      	lsls	r3, r0
 8005b64:	ea32 0303 	bics.w	r3, r2, r3
 8005b68:	4e40      	ldr	r6, [pc, #256]	; (8005c6c <I2C1_EV_IRQHandler+0x318>)
 8005b6a:	bf0c      	ite	eq
 8005b6c:	2301      	moveq	r3, #1
 8005b6e:	2300      	movne	r3, #0
 8005b70:	f886 3030 	strb.w	r3, [r6, #48]	; 0x30
 8005b74:	f894 302d 	ldrb.w	r3, [r4, #45]	; 0x2d
 8005b78:	eb05 03c3 	add.w	r3, r5, r3, lsl #3
 8005b7c:	f893 8035 	ldrb.w	r8, [r3, #53]	; 0x35
 8005b80:	fa5f f888 	uxtb.w	r8, r8
 8005b84:	f1b8 0f01 	cmp.w	r8, #1
 8005b88:	d174      	bne.n	8005c74 <I2C1_EV_IRQHandler+0x320>
 8005b8a:	f896 302e 	ldrb.w	r3, [r6, #46]	; 0x2e
 8005b8e:	2b00      	cmp	r3, #0
 8005b90:	d070      	beq.n	8005c74 <I2C1_EV_IRQHandler+0x320>
 8005b92:	f896 302d 	ldrb.w	r3, [r6, #45]	; 0x2d
 8005b96:	eb05 03c3 	add.w	r3, r5, r3, lsl #3
 8005b9a:	f893 3036 	ldrb.w	r3, [r3, #54]	; 0x36
 8005b9e:	2b02      	cmp	r3, #2
 8005ba0:	d932      	bls.n	8005c08 <I2C1_EV_IRQHandler+0x2b4>
 8005ba2:	4830      	ldr	r0, [pc, #192]	; (8005c64 <I2C1_EV_IRQHandler+0x310>)
 8005ba4:	f003 f838 	bl	8008c18 <I2C_AcknowledgeConfig>
 8005ba8:	f896 302d 	ldrb.w	r3, [r6, #45]	; 0x2d
 8005bac:	482d      	ldr	r0, [pc, #180]	; (8005c64 <I2C1_EV_IRQHandler+0x310>)
 8005bae:	eb05 03c3 	add.w	r3, r5, r3, lsl #3
 8005bb2:	f8d3 a038 	ldr.w	sl, [r3, #56]	; 0x38
 8005bb6:	f896 302f 	ldrb.w	r3, [r6, #47]	; 0x2f
 8005bba:	1c5a      	adds	r2, r3, #1
 8005bbc:	fa4f f983 	sxtb.w	r9, r3
 8005bc0:	f886 202f 	strb.w	r2, [r6, #47]	; 0x2f
 8005bc4:	f003 f83f 	bl	8008c46 <I2C_ReceiveData>
 8005bc8:	4641      	mov	r1, r8
 8005bca:	f80a 0009 	strb.w	r0, [sl, r9]
 8005bce:	4825      	ldr	r0, [pc, #148]	; (8005c64 <I2C1_EV_IRQHandler+0x310>)
 8005bd0:	f003 f816 	bl	8008c00 <I2C_GenerateSTOP>
 8005bd4:	f896 302d 	ldrb.w	r3, [r6, #45]	; 0x2d
 8005bd8:	4822      	ldr	r0, [pc, #136]	; (8005c64 <I2C1_EV_IRQHandler+0x310>)
 8005bda:	eb05 03c3 	add.w	r3, r5, r3, lsl #3
 8005bde:	f8d3 9038 	ldr.w	r9, [r3, #56]	; 0x38
 8005be2:	f896 302f 	ldrb.w	r3, [r6, #47]	; 0x2f
 8005be6:	f886 8030 	strb.w	r8, [r6, #48]	; 0x30
 8005bea:	1c5a      	adds	r2, r3, #1
 8005bec:	f886 202f 	strb.w	r2, [r6, #47]	; 0x2f
 8005bf0:	b25e      	sxtb	r6, r3
 8005bf2:	f003 f828 	bl	8008c46 <I2C_ReceiveData>
 8005bf6:	f44f 6180 	mov.w	r1, #1024	; 0x400
 8005bfa:	f809 0006 	strb.w	r0, [r9, r6]
 8005bfe:	4642      	mov	r2, r8
 8005c00:	4818      	ldr	r0, [pc, #96]	; (8005c64 <I2C1_EV_IRQHandler+0x310>)
 8005c02:	f003 f815 	bl	8008c30 <I2C_ITConfig>
 8005c06:	e057      	b.n	8005cb8 <I2C1_EV_IRQHandler+0x364>
 8005c08:	f896 3030 	ldrb.w	r3, [r6, #48]	; 0x30
 8005c0c:	4815      	ldr	r0, [pc, #84]	; (8005c64 <I2C1_EV_IRQHandler+0x310>)
 8005c0e:	4641      	mov	r1, r8
 8005c10:	b113      	cbz	r3, 8005c18 <I2C1_EV_IRQHandler+0x2c4>
 8005c12:	f002 fff5 	bl	8008c00 <I2C_GenerateSTOP>
 8005c16:	e001      	b.n	8005c1c <I2C1_EV_IRQHandler+0x2c8>
 8005c18:	f002 ffe6 	bl	8008be8 <I2C_GenerateSTART>
 8005c1c:	f894 302d 	ldrb.w	r3, [r4, #45]	; 0x2d
 8005c20:	4810      	ldr	r0, [pc, #64]	; (8005c64 <I2C1_EV_IRQHandler+0x310>)
 8005c22:	eb05 03c3 	add.w	r3, r5, r3, lsl #3
 8005c26:	f8d3 8038 	ldr.w	r8, [r3, #56]	; 0x38
 8005c2a:	f894 302f 	ldrb.w	r3, [r4, #47]	; 0x2f
 8005c2e:	1c5a      	adds	r2, r3, #1
 8005c30:	b25e      	sxtb	r6, r3
 8005c32:	f884 202f 	strb.w	r2, [r4, #47]	; 0x2f
 8005c36:	f003 f806 	bl	8008c46 <I2C_ReceiveData>
 8005c3a:	f808 0006 	strb.w	r0, [r8, r6]
 8005c3e:	f894 302d 	ldrb.w	r3, [r4, #45]	; 0x2d
 8005c42:	4808      	ldr	r0, [pc, #32]	; (8005c64 <I2C1_EV_IRQHandler+0x310>)
 8005c44:	eb05 03c3 	add.w	r3, r5, r3, lsl #3
 8005c48:	f8d3 8038 	ldr.w	r8, [r3, #56]	; 0x38
 8005c4c:	f894 302f 	ldrb.w	r3, [r4, #47]	; 0x2f
 8005c50:	1c5a      	adds	r2, r3, #1
 8005c52:	b25e      	sxtb	r6, r3
 8005c54:	f884 202f 	strb.w	r2, [r4, #47]	; 0x2f
 8005c58:	f002 fff5 	bl	8008c46 <I2C_ReceiveData>
 8005c5c:	f808 0006 	strb.w	r0, [r8, r6]
 8005c60:	e01d      	b.n	8005c9e <I2C1_EV_IRQHandler+0x34a>
 8005c62:	bf00      	nop
 8005c64:	40005400 	andmi	r5, r0, r0, lsl #8
 8005c68:	20001844 	andcs	r1, r0, r4, asr #16
 8005c6c:	20001164 	andcs	r1, r0, r4, ror #2
 8005c70:	2000009c 	mulcs	r0, ip, r0
 8005c74:	f894 302e 	ldrb.w	r3, [r4, #46]	; 0x2e
 8005c78:	4e6f      	ldr	r6, [pc, #444]	; (8005e38 <I2C1_EV_IRQHandler+0x4e4>)
 8005c7a:	b933      	cbnz	r3, 8005c8a <I2C1_EV_IRQHandler+0x336>
 8005c7c:	f896 302d 	ldrb.w	r3, [r6, #45]	; 0x2d
 8005c80:	eb05 03c3 	add.w	r3, r5, r3, lsl #3
 8005c84:	f893 3035 	ldrb.w	r3, [r3, #53]	; 0x35
 8005c88:	b97b      	cbnz	r3, 8005caa <I2C1_EV_IRQHandler+0x356>
 8005c8a:	f894 3030 	ldrb.w	r3, [r4, #48]	; 0x30
 8005c8e:	486b      	ldr	r0, [pc, #428]	; (8005e3c <I2C1_EV_IRQHandler+0x4e8>)
 8005c90:	2101      	movs	r1, #1
 8005c92:	b113      	cbz	r3, 8005c9a <I2C1_EV_IRQHandler+0x346>
 8005c94:	f002 ffb4 	bl	8008c00 <I2C_GenerateSTOP>
 8005c98:	e001      	b.n	8005c9e <I2C1_EV_IRQHandler+0x34a>
 8005c9a:	f002 ffa5 	bl	8008be8 <I2C_GenerateSTART>
 8005c9e:	f894 302f 	ldrb.w	r3, [r4, #47]	; 0x2f
 8005ca2:	3301      	adds	r3, #1
 8005ca4:	f884 302f 	strb.w	r3, [r4, #47]	; 0x2f
 8005ca8:	e006      	b.n	8005cb8 <I2C1_EV_IRQHandler+0x364>
 8005caa:	4864      	ldr	r0, [pc, #400]	; (8005e3c <I2C1_EV_IRQHandler+0x4e8>)
 8005cac:	2101      	movs	r1, #1
 8005cae:	f002 ff9b 	bl	8008be8 <I2C_GenerateSTART>
 8005cb2:	2301      	movs	r3, #1
 8005cb4:	f886 302e 	strb.w	r3, [r6, #46]	; 0x2e
 8005cb8:	4b60      	ldr	r3, [pc, #384]	; (8005e3c <I2C1_EV_IRQHandler+0x4e8>)
 8005cba:	881b      	ldrh	r3, [r3, #0]
 8005cbc:	05de      	lsls	r6, r3, #23
 8005cbe:	d4fb      	bmi.n	8005cb8 <I2C1_EV_IRQHandler+0x364>
 8005cc0:	e073      	b.n	8005daa <I2C1_EV_IRQHandler+0x456>
 8005cc2:	f006 0640 	and.w	r6, r6, #64	; 0x40
 8005cc6:	f006 02ff 	and.w	r2, r6, #255	; 0xff
 8005cca:	b38e      	cbz	r6, 8005d30 <I2C1_EV_IRQHandler+0x3dc>
 8005ccc:	f894 302d 	ldrb.w	r3, [r4, #45]	; 0x2d
 8005cd0:	485a      	ldr	r0, [pc, #360]	; (8005e3c <I2C1_EV_IRQHandler+0x4e8>)
 8005cd2:	eb05 03c3 	add.w	r3, r5, r3, lsl #3
 8005cd6:	f8d3 8038 	ldr.w	r8, [r3, #56]	; 0x38
 8005cda:	f894 302f 	ldrb.w	r3, [r4, #47]	; 0x2f
 8005cde:	1c5a      	adds	r2, r3, #1
 8005ce0:	b25e      	sxtb	r6, r3
 8005ce2:	f884 202f 	strb.w	r2, [r4, #47]	; 0x2f
 8005ce6:	f002 ffae 	bl	8008c46 <I2C_ReceiveData>
 8005cea:	f808 0006 	strb.w	r0, [r8, r6]
 8005cee:	f894 302d 	ldrb.w	r3, [r4, #45]	; 0x2d
 8005cf2:	eb05 03c3 	add.w	r3, r5, r3, lsl #3
 8005cf6:	f893 2036 	ldrb.w	r2, [r3, #54]	; 0x36
 8005cfa:	f994 302f 	ldrsb.w	r3, [r4, #47]	; 0x2f
 8005cfe:	3303      	adds	r3, #3
 8005d00:	429a      	cmp	r2, r3
 8005d02:	d105      	bne.n	8005d10 <I2C1_EV_IRQHandler+0x3bc>
 8005d04:	484d      	ldr	r0, [pc, #308]	; (8005e3c <I2C1_EV_IRQHandler+0x4e8>)
 8005d06:	f44f 6180 	mov.w	r1, #1024	; 0x400
 8005d0a:	464a      	mov	r2, r9
 8005d0c:	f002 ff90 	bl	8008c30 <I2C_ITConfig>
 8005d10:	f894 302d 	ldrb.w	r3, [r4, #45]	; 0x2d
 8005d14:	eb05 03c3 	add.w	r3, r5, r3, lsl #3
 8005d18:	f893 1036 	ldrb.w	r1, [r3, #54]	; 0x36
 8005d1c:	f894 302f 	ldrb.w	r3, [r4, #47]	; 0x2f
 8005d20:	b25a      	sxtb	r2, r3
 8005d22:	4291      	cmp	r1, r2
 8005d24:	d141      	bne.n	8005daa <I2C1_EV_IRQHandler+0x456>
 8005d26:	4a44      	ldr	r2, [pc, #272]	; (8005e38 <I2C1_EV_IRQHandler+0x4e4>)
 8005d28:	3301      	adds	r3, #1
 8005d2a:	f882 302f 	strb.w	r3, [r2, #47]	; 0x2f
 8005d2e:	e03c      	b.n	8005daa <I2C1_EV_IRQHandler+0x456>
 8005d30:	f018 0f80 	tst.w	r8, #128	; 0x80
 8005d34:	d039      	beq.n	8005daa <I2C1_EV_IRQHandler+0x456>
 8005d36:	f894 302f 	ldrb.w	r3, [r4, #47]	; 0x2f
 8005d3a:	4e3f      	ldr	r6, [pc, #252]	; (8005e38 <I2C1_EV_IRQHandler+0x4e4>)
 8005d3c:	b259      	sxtb	r1, r3
 8005d3e:	1c48      	adds	r0, r1, #1
 8005d40:	d016      	beq.n	8005d70 <I2C1_EV_IRQHandler+0x41c>
 8005d42:	f896 202d 	ldrb.w	r2, [r6, #45]	; 0x2d
 8005d46:	3301      	adds	r3, #1
 8005d48:	eb05 02c2 	add.w	r2, r5, r2, lsl #3
 8005d4c:	6b92      	ldr	r2, [r2, #56]	; 0x38
 8005d4e:	483b      	ldr	r0, [pc, #236]	; (8005e3c <I2C1_EV_IRQHandler+0x4e8>)
 8005d50:	5c51      	ldrb	r1, [r2, r1]
 8005d52:	f886 302f 	strb.w	r3, [r6, #47]	; 0x2f
 8005d56:	f002 ff74 	bl	8008c42 <I2C_SendData>
 8005d5a:	f896 302d 	ldrb.w	r3, [r6, #45]	; 0x2d
 8005d5e:	eb05 03c3 	add.w	r3, r5, r3, lsl #3
 8005d62:	f893 2036 	ldrb.w	r2, [r3, #54]	; 0x36
 8005d66:	f996 302f 	ldrsb.w	r3, [r6, #47]	; 0x2f
 8005d6a:	429a      	cmp	r2, r3
 8005d6c:	d11d      	bne.n	8005daa <I2C1_EV_IRQHandler+0x456>
 8005d6e:	e6e6      	b.n	8005b3e <I2C1_EV_IRQHandler+0x1ea>
 8005d70:	f896 302d 	ldrb.w	r3, [r6, #45]	; 0x2d
 8005d74:	4831      	ldr	r0, [pc, #196]	; (8005e3c <I2C1_EV_IRQHandler+0x4e8>)
 8005d76:	eb05 03c3 	add.w	r3, r5, r3, lsl #3
 8005d7a:	f893 1037 	ldrb.w	r1, [r3, #55]	; 0x37
 8005d7e:	f886 202f 	strb.w	r2, [r6, #47]	; 0x2f
 8005d82:	f002 ff5e 	bl	8008c42 <I2C_SendData>
 8005d86:	f896 302d 	ldrb.w	r3, [r6, #45]	; 0x2d
 8005d8a:	eb05 03c3 	add.w	r3, r5, r3, lsl #3
 8005d8e:	f893 3035 	ldrb.w	r3, [r3, #53]	; 0x35
 8005d92:	2b01      	cmp	r3, #1
 8005d94:	f43f aed3 	beq.w	8005b3e <I2C1_EV_IRQHandler+0x1ea>
 8005d98:	f896 302d 	ldrb.w	r3, [r6, #45]	; 0x2d
 8005d9c:	eb05 03c3 	add.w	r3, r5, r3, lsl #3
 8005da0:	f893 3036 	ldrb.w	r3, [r3, #54]	; 0x36
 8005da4:	2b00      	cmp	r3, #0
 8005da6:	f43f aeca 	beq.w	8005b3e <I2C1_EV_IRQHandler+0x1ea>
 8005daa:	f894 302d 	ldrb.w	r3, [r4, #45]	; 0x2d
 8005dae:	f994 202f 	ldrsb.w	r2, [r4, #47]	; 0x2f
 8005db2:	eb05 05c3 	add.w	r5, r5, r3, lsl #3
 8005db6:	f895 3036 	ldrb.w	r3, [r5, #54]	; 0x36
 8005dba:	4e1f      	ldr	r6, [pc, #124]	; (8005e38 <I2C1_EV_IRQHandler+0x4e4>)
 8005dbc:	3301      	adds	r3, #1
 8005dbe:	4293      	cmp	r3, r2
 8005dc0:	d136      	bne.n	8005e30 <I2C1_EV_IRQHandler+0x4dc>
 8005dc2:	f896 102d 	ldrb.w	r1, [r6, #45]	; 0x2d
 8005dc6:	2301      	movs	r3, #1
 8005dc8:	683a      	ldr	r2, [r7, #0]
 8005dca:	fa03 f101 	lsl.w	r1, r3, r1
 8005dce:	ea22 0201 	bic.w	r2, r2, r1
 8005dd2:	603a      	str	r2, [r7, #0]
 8005dd4:	491a      	ldr	r1, [pc, #104]	; (8005e40 <I2C1_EV_IRQHandler+0x4ec>)
 8005dd6:	f896 002d 	ldrb.w	r0, [r6, #45]	; 0x2d
 8005dda:	680a      	ldr	r2, [r1, #0]
 8005ddc:	4083      	lsls	r3, r0
 8005dde:	4313      	orrs	r3, r2
 8005de0:	4d16      	ldr	r5, [pc, #88]	; (8005e3c <I2C1_EV_IRQHandler+0x4e8>)
 8005de2:	2200      	movs	r2, #0
 8005de4:	600b      	str	r3, [r1, #0]
 8005de6:	f886 202e 	strb.w	r2, [r6, #46]	; 0x2e
 8005dea:	f886 202d 	strb.w	r2, [r6, #45]	; 0x2d
 8005dee:	882b      	ldrh	r3, [r5, #0]
 8005df0:	4628      	mov	r0, r5
 8005df2:	f423 6300 	bic.w	r3, r3, #2048	; 0x800
 8005df6:	041b      	lsls	r3, r3, #16
 8005df8:	0c1b      	lsrs	r3, r3, #16
 8005dfa:	802b      	strh	r3, [r5, #0]
 8005dfc:	f44f 6180 	mov.w	r1, #1024	; 0x400
 8005e00:	f002 ff16 	bl	8008c30 <I2C_ITConfig>
 8005e04:	683b      	ldr	r3, [r7, #0]
 8005e06:	b153      	cbz	r3, 8005e1e <I2C1_EV_IRQHandler+0x4ca>
 8005e08:	f896 3030 	ldrb.w	r3, [r6, #48]	; 0x30
 8005e0c:	b13b      	cbz	r3, 8005e1e <I2C1_EV_IRQHandler+0x4ca>
 8005e0e:	882b      	ldrh	r3, [r5, #0]
 8005e10:	059b      	lsls	r3, r3, #22
 8005e12:	d4fc      	bmi.n	8005e0e <I2C1_EV_IRQHandler+0x4ba>
 8005e14:	4809      	ldr	r0, [pc, #36]	; (8005e3c <I2C1_EV_IRQHandler+0x4e8>)
 8005e16:	2101      	movs	r1, #1
 8005e18:	f002 fee6 	bl	8008be8 <I2C_GenerateSTART>
 8005e1c:	e008      	b.n	8005e30 <I2C1_EV_IRQHandler+0x4dc>
 8005e1e:	f894 3030 	ldrb.w	r3, [r4, #48]	; 0x30
 8005e22:	b12b      	cbz	r3, 8005e30 <I2C1_EV_IRQHandler+0x4dc>
 8005e24:	4805      	ldr	r0, [pc, #20]	; (8005e3c <I2C1_EV_IRQHandler+0x4e8>)
 8005e26:	f44f 7140 	mov.w	r1, #768	; 0x300
 8005e2a:	2200      	movs	r2, #0
 8005e2c:	f002 ff00 	bl	8008c30 <I2C_ITConfig>
 8005e30:	b002      	add	sp, #8
 8005e32:	e8bd 87f0 	ldmia.w	sp!, {r4, r5, r6, r7, r8, r9, sl, pc}
 8005e36:	bf00      	nop
 8005e38:	20001164 	andcs	r1, r0, r4, ror #2
 8005e3c:	40005400 	andmi	r5, r0, r0, lsl #8
 8005e40:	20001848 	andcs	r1, r0, r8, asr #16

08005e44 <atoiRamRom>:
 8005e44:	2200      	movs	r2, #0
 8005e46:	4611      	mov	r1, r2
 8005e48:	b510      	push	{r4, lr}
 8005e4a:	b2d3      	uxtb	r3, r2
 8005e4c:	5cc3      	ldrb	r3, [r0, r3]
 8005e4e:	3201      	adds	r2, #1
 8005e50:	3b30      	subs	r3, #48	; 0x30
 8005e52:	b2dc      	uxtb	r4, r3
 8005e54:	2c09      	cmp	r4, #9
 8005e56:	d803      	bhi.n	8005e60 <atoiRamRom+0x1c>
 8005e58:	240a      	movs	r4, #10
 8005e5a:	fb04 3101 	mla	r1, r4, r1, r3
 8005e5e:	e7f4      	b.n	8005e4a <atoiRamRom+0x6>
 8005e60:	4608      	mov	r0, r1
 8005e62:	bd10      	pop	{r4, pc}

08005e64 <si446x_state_machine>:
 8005e64:	b537      	push	{r0, r1, r2, r4, r5, lr}
 8005e66:	4605      	mov	r5, r0
 8005e68:	782b      	ldrb	r3, [r5, #0]
 8005e6a:	4608      	mov	r0, r1
 8005e6c:	2b06      	cmp	r3, #6
 8005e6e:	f200 80c9 	bhi.w	8006004 <si446x_state_machine+0x1a0>
 8005e72:	e8df f003 	tbb	[pc, r3]
 8005e76:	434b2c04 	movtmi	r2, #48132	; 0xbc04
 8005e7a:	00a69969 	adceq	r9, r6, r9, ror #18
 8005e7e:	4c63      	ldr	r4, [pc, #396]	; (800600c <si446x_state_machine+0x1a8>)
 8005e80:	b301      	cbz	r1, 8005ec4 <si446x_state_machine+0x60>
 8005e82:	2901      	cmp	r1, #1
 8005e84:	d10a      	bne.n	8005e9c <si446x_state_machine+0x38>
 8005e86:	2321      	movs	r3, #33	; 0x21
 8005e88:	7029      	strb	r1, [r5, #0]
 8005e8a:	7023      	strb	r3, [r4, #0]
 8005e8c:	4b60      	ldr	r3, [pc, #384]	; (8006010 <si446x_state_machine+0x1ac>)
 8005e8e:	4621      	mov	r1, r4
 8005e90:	9300      	str	r3, [sp, #0]
 8005e92:	2204      	movs	r2, #4
 8005e94:	1da3      	adds	r3, r4, #6
 8005e96:	f000 fcbf 	bl	8006818 <si446x_spi_state_machine.constprop.28>
 8005e9a:	e013      	b.n	8005ec4 <si446x_state_machine+0x60>
 8005e9c:	2902      	cmp	r1, #2
 8005e9e:	d111      	bne.n	8005ec4 <si446x_state_machine+0x60>
 8005ea0:	2305      	movs	r3, #5
 8005ea2:	702b      	strb	r3, [r5, #0]
 8005ea4:	2331      	movs	r3, #49	; 0x31
 8005ea6:	7023      	strb	r3, [r4, #0]
 8005ea8:	7c63      	ldrb	r3, [r4, #17]
 8005eaa:	2200      	movs	r2, #0
 8005eac:	7063      	strb	r3, [r4, #1]
 8005eae:	2330      	movs	r3, #48	; 0x30
 8005eb0:	70a3      	strb	r3, [r4, #2]
 8005eb2:	4b57      	ldr	r3, [pc, #348]	; (8006010 <si446x_state_machine+0x1ac>)
 8005eb4:	7422      	strb	r2, [r4, #16]
 8005eb6:	70e2      	strb	r2, [r4, #3]
 8005eb8:	7122      	strb	r2, [r4, #4]
 8005eba:	7162      	strb	r2, [r4, #5]
 8005ebc:	2006      	movs	r0, #6
 8005ebe:	9300      	str	r3, [sp, #0]
 8005ec0:	4952      	ldr	r1, [pc, #328]	; (800600c <si446x_state_machine+0x1a8>)
 8005ec2:	e06f      	b.n	8005fa4 <si446x_state_machine+0x140>
 8005ec4:	7c23      	ldrb	r3, [r4, #16]
 8005ec6:	2b01      	cmp	r3, #1
 8005ec8:	f040 809e 	bne.w	8006008 <si446x_state_machine+0x1a4>
 8005ecc:	e7e8      	b.n	8005ea0 <si446x_state_machine+0x3c>
 8005ece:	b9b1      	cbnz	r1, 8005efe <si446x_state_machine+0x9a>
 8005ed0:	4b4e      	ldr	r3, [pc, #312]	; (800600c <si446x_state_machine+0x1a8>)
 8005ed2:	7a5b      	ldrb	r3, [r3, #9]
 8005ed4:	f003 0318 	and.w	r3, r3, #24
 8005ed8:	2b10      	cmp	r3, #16
 8005eda:	bf06      	itte	eq
 8005edc:	2302      	moveq	r3, #2
 8005ede:	702b      	strbeq	r3, [r5, #0]
 8005ee0:	7029      	strbne	r1, [r5, #0]
 8005ee2:	494a      	ldr	r1, [pc, #296]	; (800600c <si446x_state_machine+0x1a8>)
 8005ee4:	2320      	movs	r3, #32
 8005ee6:	700b      	strb	r3, [r1, #0]
 8005ee8:	2300      	movs	r3, #0
 8005eea:	704b      	strb	r3, [r1, #1]
 8005eec:	4b48      	ldr	r3, [pc, #288]	; (8006010 <si446x_state_machine+0x1ac>)
 8005eee:	2001      	movs	r0, #1
 8005ef0:	9300      	str	r3, [sp, #0]
 8005ef2:	220a      	movs	r2, #10
 8005ef4:	1d8b      	adds	r3, r1, #6
 8005ef6:	f000 fc8f 	bl	8006818 <si446x_spi_state_machine.constprop.28>
 8005efa:	e085      	b.n	8006008 <si446x_state_machine+0x1a4>
 8005efc:	b199      	cbz	r1, 8005f26 <si446x_state_machine+0xc2>
 8005efe:	2802      	cmp	r0, #2
 8005f00:	f040 8082 	bne.w	8006008 <si446x_state_machine+0x1a4>
 8005f04:	4b41      	ldr	r3, [pc, #260]	; (800600c <si446x_state_machine+0x1a8>)
 8005f06:	2201      	movs	r2, #1
 8005f08:	741a      	strb	r2, [r3, #16]
 8005f0a:	e07d      	b.n	8006008 <si446x_state_machine+0x1a4>
 8005f0c:	2900      	cmp	r1, #0
 8005f0e:	d1f6      	bne.n	8005efe <si446x_state_machine+0x9a>
 8005f10:	2303      	movs	r3, #3
 8005f12:	493e      	ldr	r1, [pc, #248]	; (800600c <si446x_state_machine+0x1a8>)
 8005f14:	702b      	strb	r3, [r5, #0]
 8005f16:	2315      	movs	r3, #21
 8005f18:	700b      	strb	r3, [r1, #0]
 8005f1a:	4b3d      	ldr	r3, [pc, #244]	; (8006010 <si446x_state_machine+0x1ac>)
 8005f1c:	7048      	strb	r0, [r1, #1]
 8005f1e:	2204      	movs	r2, #4
 8005f20:	9300      	str	r3, [sp, #0]
 8005f22:	2002      	movs	r0, #2
 8005f24:	e7e6      	b.n	8005ef4 <si446x_state_machine+0x90>
 8005f26:	4939      	ldr	r1, [pc, #228]	; (800600c <si446x_state_machine+0x1a8>)
 8005f28:	7a0b      	ldrb	r3, [r1, #8]
 8005f2a:	b15b      	cbz	r3, 8005f44 <si446x_state_machine+0xe0>
 8005f2c:	2304      	movs	r3, #4
 8005f2e:	702b      	strb	r3, [r5, #0]
 8005f30:	7a0a      	ldrb	r2, [r1, #8]
 8005f32:	2377      	movs	r3, #119	; 0x77
 8005f34:	700b      	strb	r3, [r1, #0]
 8005f36:	3201      	adds	r2, #1
 8005f38:	4b35      	ldr	r3, [pc, #212]	; (8006010 <si446x_state_machine+0x1ac>)
 8005f3a:	b2d2      	uxtb	r2, r2
 8005f3c:	748a      	strb	r2, [r1, #18]
 8005f3e:	2001      	movs	r0, #1
 8005f40:	9300      	str	r3, [sp, #0]
 8005f42:	e7d7      	b.n	8005ef4 <si446x_state_machine+0x90>
 8005f44:	7028      	strb	r0, [r5, #0]
 8005f46:	e05f      	b.n	8006008 <si446x_state_machine+0x1a4>
 8005f48:	2900      	cmp	r1, #0
 8005f4a:	d1d8      	bne.n	8005efe <si446x_state_machine+0x9a>
 8005f4c:	492f      	ldr	r1, [pc, #188]	; (800600c <si446x_state_machine+0x1a8>)
 8005f4e:	1c44      	adds	r4, r0, #1
 8005f50:	7c8b      	ldrb	r3, [r1, #18]
 8005f52:	b2c0      	uxtb	r0, r0
 8005f54:	4283      	cmp	r3, r0
 8005f56:	d906      	bls.n	8005f66 <si446x_state_machine+0x102>
 8005f58:	4408      	add	r0, r1
 8005f5a:	7980      	ldrb	r0, [r0, #6]
 8005f5c:	3114      	adds	r1, #20
 8005f5e:	f001 fa75 	bl	800744c <Add_To_Buffer>
 8005f62:	4620      	mov	r0, r4
 8005f64:	e7f2      	b.n	8005f4c <si446x_state_machine+0xe8>
 8005f66:	7c0a      	ldrb	r2, [r1, #16]
 8005f68:	4b29      	ldr	r3, [pc, #164]	; (8006010 <si446x_state_machine+0x1ac>)
 8005f6a:	b16a      	cbz	r2, 8005f88 <si446x_state_machine+0x124>
 8005f6c:	2205      	movs	r2, #5
 8005f6e:	2031      	movs	r0, #49	; 0x31
 8005f70:	702a      	strb	r2, [r5, #0]
 8005f72:	7008      	strb	r0, [r1, #0]
 8005f74:	7c48      	ldrb	r0, [r1, #17]
 8005f76:	2200      	movs	r2, #0
 8005f78:	7048      	strb	r0, [r1, #1]
 8005f7a:	2030      	movs	r0, #48	; 0x30
 8005f7c:	740a      	strb	r2, [r1, #16]
 8005f7e:	7088      	strb	r0, [r1, #2]
 8005f80:	70ca      	strb	r2, [r1, #3]
 8005f82:	710a      	strb	r2, [r1, #4]
 8005f84:	714a      	strb	r2, [r1, #5]
 8005f86:	e00b      	b.n	8005fa0 <si446x_state_machine+0x13c>
 8005f88:	2032      	movs	r0, #50	; 0x32
 8005f8a:	702a      	strb	r2, [r5, #0]
 8005f8c:	7008      	strb	r0, [r1, #0]
 8005f8e:	f891 0020 	ldrb.w	r0, [r1, #32]
 8005f92:	708a      	strb	r2, [r1, #2]
 8005f94:	7048      	strb	r0, [r1, #1]
 8005f96:	2003      	movs	r0, #3
 8005f98:	7108      	strb	r0, [r1, #4]
 8005f9a:	2008      	movs	r0, #8
 8005f9c:	70ca      	strb	r2, [r1, #3]
 8005f9e:	7148      	strb	r0, [r1, #5]
 8005fa0:	9300      	str	r3, [sp, #0]
 8005fa2:	2006      	movs	r0, #6
 8005fa4:	180b      	adds	r3, r1, r0
 8005fa6:	e7a6      	b.n	8005ef6 <si446x_state_machine+0x92>
 8005fa8:	b941      	cbnz	r1, 8005fbc <si446x_state_machine+0x158>
 8005faa:	2306      	movs	r3, #6
 8005fac:	4a19      	ldr	r2, [pc, #100]	; (8006014 <si446x_state_machine+0x1b0>)
 8005fae:	702b      	strb	r3, [r5, #0]
 8005fb0:	8993      	ldrh	r3, [r2, #12]
 8005fb2:	b29b      	uxth	r3, r3
 8005fb4:	f043 0380 	orr.w	r3, r3, #128	; 0x80
 8005fb8:	8193      	strh	r3, [r2, #12]
 8005fba:	e025      	b.n	8006008 <si446x_state_machine+0x1a4>
 8005fbc:	2901      	cmp	r1, #1
 8005fbe:	d123      	bne.n	8006008 <si446x_state_machine+0x1a4>
 8005fc0:	e78f      	b.n	8005ee2 <si446x_state_machine+0x7e>
 8005fc2:	2904      	cmp	r1, #4
 8005fc4:	d111      	bne.n	8005fea <si446x_state_machine+0x186>
 8005fc6:	4911      	ldr	r1, [pc, #68]	; (800600c <si446x_state_machine+0x1a8>)
 8005fc8:	2332      	movs	r3, #50	; 0x32
 8005fca:	700b      	strb	r3, [r1, #0]
 8005fcc:	f891 3020 	ldrb.w	r3, [r1, #32]
 8005fd0:	2200      	movs	r2, #0
 8005fd2:	704b      	strb	r3, [r1, #1]
 8005fd4:	2303      	movs	r3, #3
 8005fd6:	710b      	strb	r3, [r1, #4]
 8005fd8:	2308      	movs	r3, #8
 8005fda:	714b      	strb	r3, [r1, #5]
 8005fdc:	4b0c      	ldr	r3, [pc, #48]	; (8006010 <si446x_state_machine+0x1ac>)
 8005fde:	2006      	movs	r0, #6
 8005fe0:	708a      	strb	r2, [r1, #2]
 8005fe2:	70ca      	strb	r2, [r1, #3]
 8005fe4:	9300      	str	r3, [sp, #0]
 8005fe6:	180b      	adds	r3, r1, r0
 8005fe8:	e00a      	b.n	8006000 <si446x_state_machine+0x19c>
 8005fea:	2901      	cmp	r1, #1
 8005fec:	d10a      	bne.n	8006004 <si446x_state_machine+0x1a0>
 8005fee:	4907      	ldr	r1, [pc, #28]	; (800600c <si446x_state_machine+0x1a8>)
 8005ff0:	2320      	movs	r3, #32
 8005ff2:	700b      	strb	r3, [r1, #0]
 8005ff4:	2300      	movs	r3, #0
 8005ff6:	704b      	strb	r3, [r1, #1]
 8005ff8:	4b05      	ldr	r3, [pc, #20]	; (8006010 <si446x_state_machine+0x1ac>)
 8005ffa:	220a      	movs	r2, #10
 8005ffc:	9300      	str	r3, [sp, #0]
 8005ffe:	1d8b      	adds	r3, r1, #6
 8006000:	f000 fc0a 	bl	8006818 <si446x_spi_state_machine.constprop.28>
 8006004:	2300      	movs	r3, #0
 8006006:	702b      	strb	r3, [r5, #0]
 8006008:	b003      	add	sp, #12
 800600a:	bd30      	pop	{r4, r5, pc}
 800600c:	20001198 	mulcs	r0, r8, r1
 8006010:	08005e65 	stmdaeq	r0, {r0, r2, r5, r6, r9, sl, fp, ip, lr}
 8006014:	40004800 	andmi	r4, r0, r0, lsl #16

08006018 <USART3_IRQHandler>:
 8006018:	b538      	push	{r3, r4, r5, lr}
 800601a:	4c19      	ldr	r4, [pc, #100]	; (8006080 <USART3_IRQHandler+0x68>)
 800601c:	f240 5125 	movw	r1, #1317	; 0x525
 8006020:	4620      	mov	r0, r4
 8006022:	f003 f945 	bl	80092b0 <USART_GetITStatus>
 8006026:	b120      	cbz	r0, 8006032 <USART3_IRQHandler+0x1a>
 8006028:	e8bd 4038 	ldmia.w	sp!, {r3, r4, r5, lr}
 800602c:	4814      	ldr	r0, [pc, #80]	; (8006080 <USART3_IRQHandler+0x68>)
 800602e:	f003 b935 	b.w	800929c <USART_ReceiveData>
 8006032:	4620      	mov	r0, r4
 8006034:	f240 7127 	movw	r1, #1831	; 0x727
 8006038:	f003 f93a 	bl	80092b0 <USART_GetITStatus>
 800603c:	2800      	cmp	r0, #0
 800603e:	d0f3      	beq.n	8006028 <USART3_IRQHandler+0x10>
 8006040:	4d10      	ldr	r5, [pc, #64]	; (8006084 <USART3_IRQHandler+0x6c>)
 8006042:	f240 7127 	movw	r1, #1831	; 0x727
 8006046:	4620      	mov	r0, r4
 8006048:	f003 f951 	bl	80092ee <USART_ClearITPendingBit>
 800604c:	4628      	mov	r0, r5
 800604e:	f001 f9ef 	bl	8007430 <Pop_From_Buffer>
 8006052:	b281      	uxth	r1, r0
 8006054:	4620      	mov	r0, r4
 8006056:	f003 f91d 	bl	8009294 <USART_SendData>
 800605a:	882a      	ldrh	r2, [r5, #0]
 800605c:	886b      	ldrh	r3, [r5, #2]
 800605e:	b292      	uxth	r2, r2
 8006060:	b29b      	uxth	r3, r3
 8006062:	429a      	cmp	r2, r3
 8006064:	d10b      	bne.n	800607e <USART3_IRQHandler+0x66>
 8006066:	89a3      	ldrh	r3, [r4, #12]
 8006068:	4807      	ldr	r0, [pc, #28]	; (8006088 <USART3_IRQHandler+0x70>)
 800606a:	f023 0380 	bic.w	r3, r3, #128	; 0x80
 800606e:	041b      	lsls	r3, r3, #16
 8006070:	0c1b      	lsrs	r3, r3, #16
 8006072:	81a3      	strh	r3, [r4, #12]
 8006074:	2104      	movs	r1, #4
 8006076:	e8bd 4038 	ldmia.w	sp!, {r3, r4, r5, lr}
 800607a:	f7ff bef3 	b.w	8005e64 <si446x_state_machine>
 800607e:	bd38      	pop	{r3, r4, r5, pc}
 8006080:	40004800 	andmi	r4, r0, r0, lsl #16
 8006084:	200012bc 			; <UNDEFINED> instruction: 0x200012bc
 8006088:	200012e8 	andcs	r1, r0, r8, ror #5

0800608c <EXTI0_IRQHandler>:
 800608c:	b508      	push	{r3, lr}
 800608e:	2001      	movs	r0, #1
 8006090:	f002 fc9a 	bl	80089c8 <EXTI_GetITStatus>
 8006094:	b168      	cbz	r0, 80060b2 <EXTI0_IRQHandler+0x26>
 8006096:	2001      	movs	r0, #1
 8006098:	f002 fca4 	bl	80089e4 <EXTI_ClearITPendingBit>
 800609c:	4b05      	ldr	r3, [pc, #20]	; (80060b4 <EXTI0_IRQHandler+0x28>)
 800609e:	4806      	ldr	r0, [pc, #24]	; (80060b8 <EXTI0_IRQHandler+0x2c>)
 80060a0:	691b      	ldr	r3, [r3, #16]
 80060a2:	07db      	lsls	r3, r3, #31
 80060a4:	bf54      	ite	pl
 80060a6:	2101      	movpl	r1, #1
 80060a8:	2102      	movmi	r1, #2
 80060aa:	e8bd 4008 	ldmia.w	sp!, {r3, lr}
 80060ae:	f7ff bed9 	b.w	8005e64 <si446x_state_machine>
 80060b2:	bd08      	pop	{r3, pc}
 80060b4:	40010400 	andmi	r0, r1, r0, lsl #8
 80060b8:	200012e8 	andcs	r1, r0, r8, ror #5

080060bc <si446x_setup>:
 80060bc:	e92d 43f0 	stmdb	sp!, {r4, r5, r6, r7, r8, r9, lr}
 80060c0:	f44f 6080 	mov.w	r0, #1024	; 0x400
 80060c4:	b0a9      	sub	sp, #164	; 0xa4
 80060c6:	f001 fbdf 	bl	8007888 <malloc>
 80060ca:	4bc7      	ldr	r3, [pc, #796]	; (80063e8 <si446x_setup+0x32c>)
 80060cc:	f44f 7480 	mov.w	r4, #256	; 0x100
 80060d0:	6098      	str	r0, [r3, #8]
 80060d2:	f44f 6080 	mov.w	r0, #1024	; 0x400
 80060d6:	809c      	strh	r4, [r3, #4]
 80060d8:	f001 fbd6 	bl	8007888 <malloc>
 80060dc:	4bc3      	ldr	r3, [pc, #780]	; (80063ec <si446x_setup+0x330>)
 80060de:	2101      	movs	r1, #1
 80060e0:	61d8      	str	r0, [r3, #28]
 80060e2:	f241 000c 	movw	r0, #4108	; 0x100c
 80060e6:	831c      	strh	r4, [r3, #24]
 80060e8:	f002 fea4 	bl	8008e34 <RCC_APB2PeriphClockCmd>
 80060ec:	f44f 2080 	mov.w	r0, #262144	; 0x40000
 80060f0:	2101      	movs	r1, #1
 80060f2:	f002 feab 	bl	8008e4c <RCC_APB1PeriphClockCmd>
 80060f6:	2403      	movs	r4, #3
 80060f8:	f44f 6380 	mov.w	r3, #1024	; 0x400
 80060fc:	2718      	movs	r7, #24
 80060fe:	48bc      	ldr	r0, [pc, #752]	; (80063f0 <si446x_setup+0x334>)
 8006100:	a904      	add	r1, sp, #16
 8006102:	2604      	movs	r6, #4
 8006104:	f8ad 3010 	strh.w	r3, [sp, #16]
 8006108:	f88d 4012 	strb.w	r4, [sp, #18]
 800610c:	f88d 7013 	strb.w	r7, [sp, #19]
 8006110:	f002 fc6e 	bl	80089f0 <GPIO_Init>
 8006114:	f44f 6300 	mov.w	r3, #2048	; 0x800
 8006118:	48b5      	ldr	r0, [pc, #724]	; (80063f0 <si446x_setup+0x334>)
 800611a:	a904      	add	r1, sp, #16
 800611c:	f8ad 3010 	strh.w	r3, [sp, #16]
 8006120:	f88d 4012 	strb.w	r4, [sp, #18]
 8006124:	f88d 6013 	strb.w	r6, [sp, #19]
 8006128:	2501      	movs	r5, #1
 800612a:	f002 fc61 	bl	80089f0 <GPIO_Init>
 800612e:	48b0      	ldr	r0, [pc, #704]	; (80063f0 <si446x_setup+0x334>)
 8006130:	a904      	add	r1, sp, #16
 8006132:	f88d 4012 	strb.w	r4, [sp, #18]
 8006136:	f88d 6013 	strb.w	r6, [sp, #19]
 800613a:	f8ad 5010 	strh.w	r5, [sp, #16]
 800613e:	2610      	movs	r6, #16
 8006140:	f002 fc56 	bl	80089f0 <GPIO_Init>
 8006144:	2200      	movs	r2, #0
 8006146:	48aa      	ldr	r0, [pc, #680]	; (80063f0 <si446x_setup+0x334>)
 8006148:	f44f 7100 	mov.w	r1, #512	; 0x200
 800614c:	f002 fca2 	bl	8008a94 <GPIO_WriteBit>
 8006150:	f44f 7300 	mov.w	r3, #512	; 0x200
 8006154:	48a6      	ldr	r0, [pc, #664]	; (80063f0 <si446x_setup+0x334>)
 8006156:	eb0d 0106 	add.w	r1, sp, r6
 800615a:	f8ad 3010 	strh.w	r3, [sp, #16]
 800615e:	f88d 4012 	strb.w	r4, [sp, #18]
 8006162:	f88d 6013 	strb.w	r6, [sp, #19]
 8006166:	f002 fc43 	bl	80089f0 <GPIO_Init>
 800616a:	23b0      	movs	r3, #176	; 0xb0
 800616c:	48a1      	ldr	r0, [pc, #644]	; (80063f4 <si446x_setup+0x338>)
 800616e:	eb0d 0106 	add.w	r1, sp, r6
 8006172:	f8ad 3010 	strh.w	r3, [sp, #16]
 8006176:	f88d 4012 	strb.w	r4, [sp, #18]
 800617a:	f88d 7013 	strb.w	r7, [sp, #19]
 800617e:	f002 fc37 	bl	80089f0 <GPIO_Init>
 8006182:	2340      	movs	r3, #64	; 0x40
 8006184:	f8ad 3010 	strh.w	r3, [sp, #16]
 8006188:	489a      	ldr	r0, [pc, #616]	; (80063f4 <si446x_setup+0x338>)
 800618a:	2348      	movs	r3, #72	; 0x48
 800618c:	eb0d 0106 	add.w	r1, sp, r6
 8006190:	f88d 4012 	strb.w	r4, [sp, #18]
 8006194:	f88d 3013 	strb.w	r3, [sp, #19]
 8006198:	f002 fc2a 	bl	80089f0 <GPIO_Init>
 800619c:	2332      	movs	r3, #50	; 0x32
 800619e:	2400      	movs	r4, #0
 80061a0:	9317      	str	r3, [sp, #92]	; 0x5c
 80061a2:	4895      	ldr	r0, [pc, #596]	; (80063f8 <si446x_setup+0x33c>)
 80061a4:	2308      	movs	r3, #8
 80061a6:	a917      	add	r1, sp, #92	; 0x5c
 80061a8:	f8ad 3066 	strh.w	r3, [sp, #102]	; 0x66
 80061ac:	f8ad 4060 	strh.w	r4, [sp, #96]	; 0x60
 80061b0:	f8ad 4062 	strh.w	r4, [sp, #98]	; 0x62
 80061b4:	f8ad 4064 	strh.w	r4, [sp, #100]	; 0x64
 80061b8:	f8ad 4068 	strh.w	r4, [sp, #104]	; 0x68
 80061bc:	f002 fff8 	bl	80091b0 <USART_Init>
 80061c0:	f44f 7382 	mov.w	r3, #260	; 0x104
 80061c4:	f8ad 308e 	strh.w	r3, [sp, #142]	; 0x8e
 80061c8:	488c      	ldr	r0, [pc, #560]	; (80063fc <si446x_setup+0x340>)
 80061ca:	2307      	movs	r3, #7
 80061cc:	a923      	add	r1, sp, #140	; 0x8c
 80061ce:	f8ad 309c 	strh.w	r3, [sp, #156]	; 0x9c
 80061d2:	f8ad 408c 	strh.w	r4, [sp, #140]	; 0x8c
 80061d6:	f8ad 4090 	strh.w	r4, [sp, #144]	; 0x90
 80061da:	f8ad 4092 	strh.w	r4, [sp, #146]	; 0x92
 80061de:	f8ad 4094 	strh.w	r4, [sp, #148]	; 0x94
 80061e2:	f8ad 4096 	strh.w	r4, [sp, #150]	; 0x96
 80061e6:	f8ad 6098 	strh.w	r6, [sp, #152]	; 0x98
 80061ea:	f8ad 409a 	strh.w	r4, [sp, #154]	; 0x9a
 80061ee:	f002 febf 	bl	8008f70 <SPI_Init>
 80061f2:	4882      	ldr	r0, [pc, #520]	; (80063fc <si446x_setup+0x340>)
 80061f4:	4621      	mov	r1, r4
 80061f6:	f002 fef4 	bl	8008fe2 <SPI_CalculateCRC>
 80061fa:	4880      	ldr	r0, [pc, #512]	; (80063fc <si446x_setup+0x340>)
 80061fc:	4629      	mov	r1, r5
 80061fe:	f002 fed6 	bl	8008fae <SPI_Cmd>
 8006202:	487e      	ldr	r0, [pc, #504]	; (80063fc <si446x_setup+0x340>)
 8006204:	2102      	movs	r1, #2
 8006206:	f002 fef8 	bl	8008ffa <SPI_I2S_GetFlagStatus>
 800620a:	2800      	cmp	r0, #0
 800620c:	d0f9      	beq.n	8006202 <si446x_setup+0x146>
 800620e:	487b      	ldr	r0, [pc, #492]	; (80063fc <si446x_setup+0x340>)
 8006210:	f002 fee4 	bl	8008fdc <SPI_I2S_ReceiveData>
 8006214:	2001      	movs	r0, #1
 8006216:	4601      	mov	r1, r0
 8006218:	f002 fe00 	bl	8008e1c <RCC_AHBPeriphClockCmd>
 800621c:	4876      	ldr	r0, [pc, #472]	; (80063f8 <si446x_setup+0x33c>)
 800621e:	2101      	movs	r1, #1
 8006220:	f003 f80a 	bl	8009238 <USART_Cmd>
 8006224:	f002 fb76 	bl	8008914 <EXTI_DeInit>
 8006228:	2001      	movs	r0, #1
 800622a:	2100      	movs	r1, #0
 800622c:	f002 fc37 	bl	8008a9e <GPIO_EXTILineConfig>
 8006230:	210b      	movs	r1, #11
 8006232:	2001      	movs	r0, #1
 8006234:	f002 fc33 	bl	8008a9e <GPIO_EXTILineConfig>
 8006238:	f44f 6300 	mov.w	r3, #2048	; 0x800
 800623c:	2401      	movs	r4, #1
 800623e:	9310      	str	r3, [sp, #64]	; 0x40
 8006240:	2700      	movs	r7, #0
 8006242:	2328      	movs	r3, #40	; 0x28
 8006244:	2608      	movs	r6, #8
 8006246:	2506      	movs	r5, #6
 8006248:	a805      	add	r0, sp, #20
 800624a:	f88d 3014 	strb.w	r3, [sp, #20]
 800624e:	f88d 7044 	strb.w	r7, [sp, #68]	; 0x44
 8006252:	f88d 6045 	strb.w	r6, [sp, #69]	; 0x45
 8006256:	f88d 4046 	strb.w	r4, [sp, #70]	; 0x46
 800625a:	f88d 4015 	strb.w	r4, [sp, #21]
 800625e:	f88d 5016 	strb.w	r5, [sp, #22]
 8006262:	f88d 4017 	strb.w	r4, [sp, #23]
 8006266:	f002 f8c3 	bl	80083f0 <NVIC_Init>
 800626a:	a810      	add	r0, sp, #64	; 0x40
 800626c:	f002 fb60 	bl	8008930 <EXTI_Init>
 8006270:	2307      	movs	r3, #7
 8006272:	a805      	add	r0, sp, #20
 8006274:	f88d 3016 	strb.w	r3, [sp, #22]
 8006278:	9410      	str	r4, [sp, #64]	; 0x40
 800627a:	f88d 7044 	strb.w	r7, [sp, #68]	; 0x44
 800627e:	f88d 6045 	strb.w	r6, [sp, #69]	; 0x45
 8006282:	f88d 4046 	strb.w	r4, [sp, #70]	; 0x46
 8006286:	f88d 5014 	strb.w	r5, [sp, #20]
 800628a:	f88d 4015 	strb.w	r4, [sp, #21]
 800628e:	f88d 4017 	strb.w	r4, [sp, #23]
 8006292:	f002 f8ad 	bl	80083f0 <NVIC_Init>
 8006296:	2327      	movs	r3, #39	; 0x27
 8006298:	f88d 3014 	strb.w	r3, [sp, #20]
 800629c:	a805      	add	r0, sp, #20
 800629e:	2303      	movs	r3, #3
 80062a0:	f88d 3016 	strb.w	r3, [sp, #22]
 80062a4:	f002 f8a4 	bl	80083f0 <NVIC_Init>
 80062a8:	230e      	movs	r3, #14
 80062aa:	f88d 3014 	strb.w	r3, [sp, #20]
 80062ae:	a805      	add	r0, sp, #20
 80062b0:	2304      	movs	r3, #4
 80062b2:	f88d 3016 	strb.w	r3, [sp, #22]
 80062b6:	f002 f89b 	bl	80083f0 <NVIC_Init>
 80062ba:	230f      	movs	r3, #15
 80062bc:	f88d 3014 	strb.w	r3, [sp, #20]
 80062c0:	a805      	add	r0, sp, #20
 80062c2:	2305      	movs	r3, #5
 80062c4:	f88d 3016 	strb.w	r3, [sp, #22]
 80062c8:	f002 f892 	bl	80083f0 <NVIC_Init>
 80062cc:	4848      	ldr	r0, [pc, #288]	; (80063f0 <si446x_setup+0x334>)
 80062ce:	f44f 7100 	mov.w	r1, #512	; 0x200
 80062d2:	4622      	mov	r2, r4
 80062d4:	f002 fbde 	bl	8008a94 <GPIO_WriteBit>
 80062d8:	4b49      	ldr	r3, [pc, #292]	; (8006400 <si446x_setup+0x344>)
 80062da:	6818      	ldr	r0, [r3, #0]
 80062dc:	6819      	ldr	r1, [r3, #0]
 80062de:	1d42      	adds	r2, r0, #5
 80062e0:	4291      	cmp	r1, r2
 80062e2:	d201      	bcs.n	80062e8 <si446x_setup+0x22c>
 80062e4:	bf30      	wfi
 80062e6:	e7f9      	b.n	80062dc <si446x_setup+0x220>
 80062e8:	4841      	ldr	r0, [pc, #260]	; (80063f0 <si446x_setup+0x334>)
 80062ea:	f44f 7100 	mov.w	r1, #512	; 0x200
 80062ee:	2200      	movs	r2, #0
 80062f0:	f002 fbd0 	bl	8008a94 <GPIO_WriteBit>
 80062f4:	2302      	movs	r3, #2
 80062f6:	f88d 306c 	strb.w	r3, [sp, #108]	; 0x6c
 80062fa:	2301      	movs	r3, #1
 80062fc:	f88d 306d 	strb.w	r3, [sp, #109]	; 0x6d
 8006300:	f88d 306e 	strb.w	r3, [sp, #110]	; 0x6e
 8006304:	f88d 306f 	strb.w	r3, [sp, #111]	; 0x6f
 8006308:	238c      	movs	r3, #140	; 0x8c
 800630a:	f88d 3070 	strb.w	r3, [sp, #112]	; 0x70
 800630e:	23ba      	movs	r3, #186	; 0xba
 8006310:	f88d 3071 	strb.w	r3, [sp, #113]	; 0x71
 8006314:	ad1b      	add	r5, sp, #108	; 0x6c
 8006316:	2380      	movs	r3, #128	; 0x80
 8006318:	2200      	movs	r2, #0
 800631a:	f88d 3072 	strb.w	r3, [sp, #114]	; 0x72
 800631e:	9200      	str	r2, [sp, #0]
 8006320:	2007      	movs	r0, #7
 8006322:	4629      	mov	r1, r5
 8006324:	ab14      	add	r3, sp, #80	; 0x50
 8006326:	f000 fa77 	bl	8006818 <si446x_spi_state_machine.constprop.28>
 800632a:	4c36      	ldr	r4, [pc, #216]	; (8006404 <si446x_setup+0x348>)
 800632c:	7823      	ldrb	r3, [r4, #0]
 800632e:	f003 02ff 	and.w	r2, r3, #255	; 0xff
 8006332:	b10b      	cbz	r3, 8006338 <si446x_setup+0x27c>
 8006334:	bf30      	wfi
 8006336:	e7f8      	b.n	800632a <si446x_setup+0x26e>
 8006338:	2320      	movs	r3, #32
 800633a:	f88d 306c 	strb.w	r3, [sp, #108]	; 0x6c
 800633e:	9200      	str	r2, [sp, #0]
 8006340:	2004      	movs	r0, #4
 8006342:	4629      	mov	r1, r5
 8006344:	ab14      	add	r3, sp, #80	; 0x50
 8006346:	f88d 206d 	strb.w	r2, [sp, #109]	; 0x6d
 800634a:	f88d 206e 	strb.w	r2, [sp, #110]	; 0x6e
 800634e:	f88d 206f 	strb.w	r2, [sp, #111]	; 0x6f
 8006352:	f000 fa61 	bl	8006818 <si446x_spi_state_machine.constprop.28>
 8006356:	7823      	ldrb	r3, [r4, #0]
 8006358:	f003 02ff 	and.w	r2, r3, #255	; 0xff
 800635c:	b10b      	cbz	r3, 8006362 <si446x_setup+0x2a6>
 800635e:	bf30      	wfi
 8006360:	e7f9      	b.n	8006356 <si446x_setup+0x29a>
 8006362:	2001      	movs	r0, #1
 8006364:	9200      	str	r2, [sp, #0]
 8006366:	4629      	mov	r1, r5
 8006368:	220c      	movs	r2, #12
 800636a:	ab14      	add	r3, sp, #80	; 0x50
 800636c:	f88d 006c 	strb.w	r0, [sp, #108]	; 0x6c
 8006370:	f000 fa52 	bl	8006818 <si446x_spi_state_machine.constprop.28>
 8006374:	7823      	ldrb	r3, [r4, #0]
 8006376:	f003 02ff 	and.w	r2, r3, #255	; 0xff
 800637a:	b10b      	cbz	r3, 8006380 <si446x_setup+0x2c4>
 800637c:	bf30      	wfi
 800637e:	e7f9      	b.n	8006374 <si446x_setup+0x2b8>
 8006380:	4921      	ldr	r1, [pc, #132]	; (8006408 <si446x_setup+0x34c>)
 8006382:	ab12      	add	r3, sp, #72	; 0x48
 8006384:	6808      	ldr	r0, [r1, #0]
 8006386:	6849      	ldr	r1, [r1, #4]
 8006388:	f89d 7053 	ldrb.w	r7, [sp, #83]	; 0x53
 800638c:	c303      	stmia	r3!, {r0, r1}
 800638e:	e885 0003 	stmia.w	r5, {r0, r1}
 8006392:	ab14      	add	r3, sp, #80	; 0x50
 8006394:	9200      	str	r2, [sp, #0]
 8006396:	2008      	movs	r0, #8
 8006398:	4629      	mov	r1, r5
 800639a:	f000 fa3d 	bl	8006818 <si446x_spi_state_machine.constprop.28>
 800639e:	7823      	ldrb	r3, [r4, #0]
 80063a0:	f003 02ff 	and.w	r2, r3, #255	; 0xff
 80063a4:	b10b      	cbz	r3, 80063aa <si446x_setup+0x2ee>
 80063a6:	bf30      	wfi
 80063a8:	e7f9      	b.n	800639e <si446x_setup+0x2e2>
 80063aa:	4e18      	ldr	r6, [pc, #96]	; (800640c <si446x_setup+0x350>)
 80063ac:	2308      	movs	r3, #8
 80063ae:	7033      	strb	r3, [r6, #0]
 80063b0:	2311      	movs	r3, #17
 80063b2:	f88d 307c 	strb.w	r3, [sp, #124]	; 0x7c
 80063b6:	2320      	movs	r3, #32
 80063b8:	f88d 307d 	strb.w	r3, [sp, #125]	; 0x7d
 80063bc:	2301      	movs	r3, #1
 80063be:	f88d 307e 	strb.w	r3, [sp, #126]	; 0x7e
 80063c2:	2351      	movs	r3, #81	; 0x51
 80063c4:	f88d 307f 	strb.w	r3, [sp, #127]	; 0x7f
 80063c8:	ad0e      	add	r5, sp, #56	; 0x38
 80063ca:	230a      	movs	r3, #10
 80063cc:	f88d 3080 	strb.w	r3, [sp, #128]	; 0x80
 80063d0:	9200      	str	r2, [sp, #0]
 80063d2:	2005      	movs	r0, #5
 80063d4:	a91f      	add	r1, sp, #124	; 0x7c
 80063d6:	462b      	mov	r3, r5
 80063d8:	f000 fa1e 	bl	8006818 <si446x_spi_state_machine.constprop.28>
 80063dc:	7823      	ldrb	r3, [r4, #0]
 80063de:	f003 02ff 	and.w	r2, r3, #255	; 0xff
 80063e2:	b1ab      	cbz	r3, 8006410 <si446x_setup+0x354>
 80063e4:	bf30      	wfi
 80063e6:	e7f9      	b.n	80063dc <si446x_setup+0x320>
 80063e8:	200012bc 			; <UNDEFINED> instruction: 0x200012bc
 80063ec:	20001198 	mulcs	r0, r8, r1
 80063f0:	40010c00 	andmi	r0, r1, r0, lsl #24
 80063f4:	40010800 	andmi	r0, r1, r0, lsl #16
 80063f8:	40004800 	andmi	r4, r0, r0, lsl #16
 80063fc:	40013000 	andmi	r3, r1, r0
 8006400:	200012e0 	andcs	r1, r0, r0, ror #5
 8006404:	200012c8 	andcs	r1, r0, r8, asr #5
 8006408:	0800a62a 	stmdaeq	r0, {r1, r3, r5, r9, sl, sp, pc}
 800640c:	200000f4 	strdcs	r0, [r0], -r4
 8006410:	f996 1000 	ldrsb.w	r1, [r6]
 8006414:	f04f 6316 	mov.w	r3, #157286400	; 0x9600000
 8006418:	434b      	muls	r3, r1
 800641a:	49bd      	ldr	r1, [pc, #756]	; (8006710 <si446x_setup+0x654>)
 800641c:	9200      	str	r2, [sp, #0]
 800641e:	fbb3 f3f1 	udiv	r3, r3, r1
 8006422:	2111      	movs	r1, #17
 8006424:	f88d 107c 	strb.w	r1, [sp, #124]	; 0x7c
 8006428:	2140      	movs	r1, #64	; 0x40
 800642a:	f88d 107d 	strb.w	r1, [sp, #125]	; 0x7d
 800642e:	2106      	movs	r1, #6
 8006430:	f88d 107e 	strb.w	r1, [sp, #126]	; 0x7e
 8006434:	2141      	movs	r1, #65	; 0x41
 8006436:	f88d 1080 	strb.w	r1, [sp, #128]	; 0x80
 800643a:	210f      	movs	r1, #15
 800643c:	f88d 1081 	strb.w	r1, [sp, #129]	; 0x81
 8006440:	2113      	movs	r1, #19
 8006442:	f88d 1082 	strb.w	r1, [sp, #130]	; 0x82
 8006446:	21b4      	movs	r1, #180	; 0xb4
 8006448:	f88d 1083 	strb.w	r1, [sp, #131]	; 0x83
 800644c:	f88d 3085 	strb.w	r3, [sp, #133]	; 0x85
 8006450:	200a      	movs	r0, #10
 8006452:	a91f      	add	r1, sp, #124	; 0x7c
 8006454:	462b      	mov	r3, r5
 8006456:	f88d 207f 	strb.w	r2, [sp, #127]	; 0x7f
 800645a:	f88d 2084 	strb.w	r2, [sp, #132]	; 0x84
 800645e:	f000 f9db 	bl	8006818 <si446x_spi_state_machine.constprop.28>
 8006462:	7823      	ldrb	r3, [r4, #0]
 8006464:	f003 02ff 	and.w	r2, r3, #255	; 0xff
 8006468:	b10b      	cbz	r3, 800646e <si446x_setup+0x3b2>
 800646a:	bf30      	wfi
 800646c:	e7f9      	b.n	8006462 <si446x_setup+0x3a6>
 800646e:	2311      	movs	r3, #17
 8006470:	f88d 307c 	strb.w	r3, [sp, #124]	; 0x7c
 8006474:	2322      	movs	r3, #34	; 0x22
 8006476:	f88d 307d 	strb.w	r3, [sp, #125]	; 0x7d
 800647a:	2301      	movs	r3, #1
 800647c:	f88d 307e 	strb.w	r3, [sp, #126]	; 0x7e
 8006480:	f88d 307f 	strb.w	r3, [sp, #127]	; 0x7f
 8006484:	2320      	movs	r3, #32
 8006486:	f88d 3080 	strb.w	r3, [sp, #128]	; 0x80
 800648a:	9200      	str	r2, [sp, #0]
 800648c:	2005      	movs	r0, #5
 800648e:	a91f      	add	r1, sp, #124	; 0x7c
 8006490:	462b      	mov	r3, r5
 8006492:	f000 f9c1 	bl	8006818 <si446x_spi_state_machine.constprop.28>
 8006496:	7823      	ldrb	r3, [r4, #0]
 8006498:	f003 08ff 	and.w	r8, r3, #255	; 0xff
 800649c:	b10b      	cbz	r3, 80064a2 <si446x_setup+0x3e6>
 800649e:	bf30      	wfi
 80064a0:	e7f9      	b.n	8006496 <si446x_setup+0x3da>
 80064a2:	f996 0000 	ldrsb.w	r0, [r6]
 80064a6:	0480      	lsls	r0, r0, #18
 80064a8:	f7fa fbae 	bl	8000c08 <__aeabi_i2f>
 80064ac:	4999      	ldr	r1, [pc, #612]	; (8006714 <si446x_setup+0x658>)
 80064ae:	f7fa fcb3 	bl	8000e18 <__aeabi_fdiv>
 80064b2:	4999      	ldr	r1, [pc, #612]	; (8006718 <si446x_setup+0x65c>)
 80064b4:	4681      	mov	r9, r0
 80064b6:	f7fa fbfb 	bl	8000cb0 <__aeabi_fmul>
 80064ba:	f7f9 ff8d 	bl	80003d8 <__aeabi_f2d>
 80064be:	2200      	movs	r2, #0
 80064c0:	4b96      	ldr	r3, [pc, #600]	; (800671c <si446x_setup+0x660>)
 80064c2:	f7f9 ffdd 	bl	8000480 <__aeabi_dmul>
 80064c6:	f7fa fa75 	bl	80009b4 <__aeabi_d2uiz>
 80064ca:	2311      	movs	r3, #17
 80064cc:	f88d 307c 	strb.w	r3, [sp, #124]	; 0x7c
 80064d0:	2320      	movs	r3, #32
 80064d2:	f88d 307d 	strb.w	r3, [sp, #125]	; 0x7d
 80064d6:	2303      	movs	r3, #3
 80064d8:	f88d 307e 	strb.w	r3, [sp, #126]	; 0x7e
 80064dc:	230a      	movs	r3, #10
 80064de:	f88d 307f 	strb.w	r3, [sp, #127]	; 0x7f
 80064e2:	0c03      	lsrs	r3, r0, #16
 80064e4:	f88d 3080 	strb.w	r3, [sp, #128]	; 0x80
 80064e8:	0a03      	lsrs	r3, r0, #8
 80064ea:	f88d 3081 	strb.w	r3, [sp, #129]	; 0x81
 80064ee:	f88d 0082 	strb.w	r0, [sp, #130]	; 0x82
 80064f2:	f8cd 8000 	str.w	r8, [sp]
 80064f6:	2007      	movs	r0, #7
 80064f8:	a91f      	add	r1, sp, #124	; 0x7c
 80064fa:	4642      	mov	r2, r8
 80064fc:	462b      	mov	r3, r5
 80064fe:	f000 f98b 	bl	8006818 <si446x_spi_state_machine.constprop.28>
 8006502:	7823      	ldrb	r3, [r4, #0]
 8006504:	f003 06ff 	and.w	r6, r3, #255	; 0xff
 8006508:	b10b      	cbz	r3, 800650e <si446x_setup+0x452>
 800650a:	bf30      	wfi
 800650c:	e7f9      	b.n	8006502 <si446x_setup+0x446>
 800650e:	4984      	ldr	r1, [pc, #528]	; (8006720 <si446x_setup+0x664>)
 8006510:	4648      	mov	r0, r9
 8006512:	f7fa fbcd 	bl	8000cb0 <__aeabi_fmul>
 8006516:	f7f9 ff5f 	bl	80003d8 <__aeabi_f2d>
 800651a:	2200      	movs	r2, #0
 800651c:	4b7f      	ldr	r3, [pc, #508]	; (800671c <si446x_setup+0x660>)
 800651e:	f7f9 ffaf 	bl	8000480 <__aeabi_dmul>
 8006522:	f7fa fa47 	bl	80009b4 <__aeabi_d2uiz>
 8006526:	2311      	movs	r3, #17
 8006528:	f88d 307c 	strb.w	r3, [sp, #124]	; 0x7c
 800652c:	2340      	movs	r3, #64	; 0x40
 800652e:	f88d 307d 	strb.w	r3, [sp, #125]	; 0x7d
 8006532:	2302      	movs	r3, #2
 8006534:	f88d 307e 	strb.w	r3, [sp, #126]	; 0x7e
 8006538:	2304      	movs	r3, #4
 800653a:	f88d 307f 	strb.w	r3, [sp, #127]	; 0x7f
 800653e:	0a03      	lsrs	r3, r0, #8
 8006540:	f88d 3080 	strb.w	r3, [sp, #128]	; 0x80
 8006544:	f88d 0081 	strb.w	r0, [sp, #129]	; 0x81
 8006548:	9600      	str	r6, [sp, #0]
 800654a:	2006      	movs	r0, #6
 800654c:	a91f      	add	r1, sp, #124	; 0x7c
 800654e:	4632      	mov	r2, r6
 8006550:	462b      	mov	r3, r5
 8006552:	f000 f961 	bl	8006818 <si446x_spi_state_machine.constprop.28>
 8006556:	7823      	ldrb	r3, [r4, #0]
 8006558:	f003 02ff 	and.w	r2, r3, #255	; 0xff
 800655c:	b10b      	cbz	r3, 8006562 <si446x_setup+0x4a6>
 800655e:	bf30      	wfi
 8006560:	e7f9      	b.n	8006556 <si446x_setup+0x49a>
 8006562:	4970      	ldr	r1, [pc, #448]	; (8006724 <si446x_setup+0x668>)
 8006564:	ab0a      	add	r3, sp, #40	; 0x28
 8006566:	6808      	ldr	r0, [r1, #0]
 8006568:	7909      	ldrb	r1, [r1, #4]
 800656a:	900a      	str	r0, [sp, #40]	; 0x28
 800656c:	f88d 102c 	strb.w	r1, [sp, #44]	; 0x2c
 8006570:	e893 0003 	ldmia.w	r3, {r0, r1}
 8006574:	9200      	str	r2, [sp, #0]
 8006576:	901f      	str	r0, [sp, #124]	; 0x7c
 8006578:	f88d 1080 	strb.w	r1, [sp, #128]	; 0x80
 800657c:	2005      	movs	r0, #5
 800657e:	a91f      	add	r1, sp, #124	; 0x7c
 8006580:	ab03      	add	r3, sp, #12
 8006582:	f000 f949 	bl	8006818 <si446x_spi_state_machine.constprop.28>
 8006586:	7823      	ldrb	r3, [r4, #0]
 8006588:	f003 02ff 	and.w	r2, r3, #255	; 0xff
 800658c:	b10b      	cbz	r3, 8006592 <si446x_setup+0x4d6>
 800658e:	bf30      	wfi
 8006590:	e7f9      	b.n	8006586 <si446x_setup+0x4ca>
 8006592:	4b65      	ldr	r3, [pc, #404]	; (8006728 <si446x_setup+0x66c>)
 8006594:	6818      	ldr	r0, [r3, #0]
 8006596:	8899      	ldrh	r1, [r3, #4]
 8006598:	799b      	ldrb	r3, [r3, #6]
 800659a:	80a9      	strh	r1, [r5, #4]
 800659c:	71ab      	strb	r3, [r5, #6]
 800659e:	900e      	str	r0, [sp, #56]	; 0x38
 80065a0:	e895 0003 	ldmia.w	r5, {r0, r1}
 80065a4:	f8ad 1080 	strh.w	r1, [sp, #128]	; 0x80
 80065a8:	0c09      	lsrs	r1, r1, #16
 80065aa:	901f      	str	r0, [sp, #124]	; 0x7c
 80065ac:	f88d 1082 	strb.w	r1, [sp, #130]	; 0x82
 80065b0:	9200      	str	r2, [sp, #0]
 80065b2:	2007      	movs	r0, #7
 80065b4:	a91f      	add	r1, sp, #124	; 0x7c
 80065b6:	ab03      	add	r3, sp, #12
 80065b8:	f000 f92e 	bl	8006818 <si446x_spi_state_machine.constprop.28>
 80065bc:	7823      	ldrb	r3, [r4, #0]
 80065be:	f003 02ff 	and.w	r2, r3, #255	; 0xff
 80065c2:	b10b      	cbz	r3, 80065c8 <si446x_setup+0x50c>
 80065c4:	bf30      	wfi
 80065c6:	e7f9      	b.n	80065bc <si446x_setup+0x500>
 80065c8:	2311      	movs	r3, #17
 80065ca:	f88d 307c 	strb.w	r3, [sp, #124]	; 0x7c
 80065ce:	2320      	movs	r3, #32
 80065d0:	f88d 307d 	strb.w	r3, [sp, #125]	; 0x7d
 80065d4:	2304      	movs	r3, #4
 80065d6:	f88d 307e 	strb.w	r3, [sp, #126]	; 0x7e
 80065da:	234a      	movs	r3, #74	; 0x4a
 80065dc:	f88d 307f 	strb.w	r3, [sp, #127]	; 0x7f
 80065e0:	235a      	movs	r3, #90	; 0x5a
 80065e2:	f88d 3080 	strb.w	r3, [sp, #128]	; 0x80
 80065e6:	230c      	movs	r3, #12
 80065e8:	f88d 3081 	strb.w	r3, [sp, #129]	; 0x81
 80065ec:	2312      	movs	r3, #18
 80065ee:	f88d 3082 	strb.w	r3, [sp, #130]	; 0x82
 80065f2:	233e      	movs	r3, #62	; 0x3e
 80065f4:	f88d 3083 	strb.w	r3, [sp, #131]	; 0x83
 80065f8:	9200      	str	r2, [sp, #0]
 80065fa:	2008      	movs	r0, #8
 80065fc:	a91f      	add	r1, sp, #124	; 0x7c
 80065fe:	ab03      	add	r3, sp, #12
 8006600:	f000 f90a 	bl	8006818 <si446x_spi_state_machine.constprop.28>
 8006604:	7823      	ldrb	r3, [r4, #0]
 8006606:	f003 02ff 	and.w	r2, r3, #255	; 0xff
 800660a:	b10b      	cbz	r3, 8006610 <si446x_setup+0x554>
 800660c:	bf30      	wfi
 800660e:	e7f9      	b.n	8006604 <si446x_setup+0x548>
 8006610:	2124      	movs	r1, #36	; 0x24
 8006612:	2311      	movs	r3, #17
 8006614:	f88d 307c 	strb.w	r3, [sp, #124]	; 0x7c
 8006618:	f88d 1080 	strb.w	r1, [sp, #128]	; 0x80
 800661c:	2330      	movs	r3, #48	; 0x30
 800661e:	f88d 1083 	strb.w	r1, [sp, #131]	; 0x83
 8006622:	2142      	movs	r1, #66	; 0x42
 8006624:	f88d 307d 	strb.w	r3, [sp, #125]	; 0x7d
 8006628:	f88d 1085 	strb.w	r1, [sp, #133]	; 0x85
 800662c:	230c      	movs	r3, #12
 800662e:	2152      	movs	r1, #82	; 0x52
 8006630:	f88d 307e 	strb.w	r3, [sp, #126]	; 0x7e
 8006634:	f88d 1086 	strb.w	r1, [sp, #134]	; 0x86
 8006638:	23ff      	movs	r3, #255	; 0xff
 800663a:	2143      	movs	r1, #67	; 0x43
 800663c:	2041      	movs	r0, #65	; 0x41
 800663e:	f88d 3081 	strb.w	r3, [sp, #129]	; 0x81
 8006642:	f88d 3084 	strb.w	r3, [sp, #132]	; 0x84
 8006646:	f88d 3087 	strb.w	r3, [sp, #135]	; 0x87
 800664a:	f88d 1088 	strb.w	r1, [sp, #136]	; 0x88
 800664e:	f88d 308a 	strb.w	r3, [sp, #138]	; 0x8a
 8006652:	214f      	movs	r1, #79	; 0x4f
 8006654:	2344      	movs	r3, #68	; 0x44
 8006656:	f88d 0082 	strb.w	r0, [sp, #130]	; 0x82
 800665a:	f88d 1089 	strb.w	r1, [sp, #137]	; 0x89
 800665e:	f88d 308b 	strb.w	r3, [sp, #139]	; 0x8b
 8006662:	9200      	str	r2, [sp, #0]
 8006664:	2010      	movs	r0, #16
 8006666:	a91f      	add	r1, sp, #124	; 0x7c
 8006668:	ab03      	add	r3, sp, #12
 800666a:	f88d 207f 	strb.w	r2, [sp, #127]	; 0x7f
 800666e:	f000 f8d3 	bl	8006818 <si446x_spi_state_machine.constprop.28>
 8006672:	7823      	ldrb	r3, [r4, #0]
 8006674:	f003 02ff 	and.w	r2, r3, #255	; 0xff
 8006678:	b10b      	cbz	r3, 800667e <si446x_setup+0x5c2>
 800667a:	bf30      	wfi
 800667c:	e7f9      	b.n	8006672 <si446x_setup+0x5b6>
 800667e:	492b      	ldr	r1, [pc, #172]	; (800672c <si446x_setup+0x670>)
 8006680:	ab08      	add	r3, sp, #32
 8006682:	6808      	ldr	r0, [r1, #0]
 8006684:	7909      	ldrb	r1, [r1, #4]
 8006686:	9008      	str	r0, [sp, #32]
 8006688:	f88d 1024 	strb.w	r1, [sp, #36]	; 0x24
 800668c:	e893 0003 	ldmia.w	r3, {r0, r1}
 8006690:	9200      	str	r2, [sp, #0]
 8006692:	901f      	str	r0, [sp, #124]	; 0x7c
 8006694:	f88d 1080 	strb.w	r1, [sp, #128]	; 0x80
 8006698:	2005      	movs	r0, #5
 800669a:	a91f      	add	r1, sp, #124	; 0x7c
 800669c:	ab03      	add	r3, sp, #12
 800669e:	f000 f8bb 	bl	8006818 <si446x_spi_state_machine.constprop.28>
 80066a2:	7823      	ldrb	r3, [r4, #0]
 80066a4:	f003 02ff 	and.w	r2, r3, #255	; 0xff
 80066a8:	b10b      	cbz	r3, 80066ae <si446x_setup+0x5f2>
 80066aa:	bf30      	wfi
 80066ac:	e7f9      	b.n	80066a2 <si446x_setup+0x5e6>
 80066ae:	4920      	ldr	r1, [pc, #128]	; (8006730 <si446x_setup+0x674>)
 80066b0:	ab06      	add	r3, sp, #24
 80066b2:	6808      	ldr	r0, [r1, #0]
 80066b4:	7909      	ldrb	r1, [r1, #4]
 80066b6:	9006      	str	r0, [sp, #24]
 80066b8:	f88d 101c 	strb.w	r1, [sp, #28]
 80066bc:	e893 0003 	ldmia.w	r3, {r0, r1}
 80066c0:	9200      	str	r2, [sp, #0]
 80066c2:	901f      	str	r0, [sp, #124]	; 0x7c
 80066c4:	f88d 1080 	strb.w	r1, [sp, #128]	; 0x80
 80066c8:	2005      	movs	r0, #5
 80066ca:	a91f      	add	r1, sp, #124	; 0x7c
 80066cc:	ab03      	add	r3, sp, #12
 80066ce:	f000 f8a3 	bl	8006818 <si446x_spi_state_machine.constprop.28>
 80066d2:	7823      	ldrb	r3, [r4, #0]
 80066d4:	f003 02ff 	and.w	r2, r3, #255	; 0xff
 80066d8:	b10b      	cbz	r3, 80066de <si446x_setup+0x622>
 80066da:	bf30      	wfi
 80066dc:	e7f9      	b.n	80066d2 <si446x_setup+0x616>
 80066de:	4915      	ldr	r1, [pc, #84]	; (8006734 <si446x_setup+0x678>)
 80066e0:	ab0c      	add	r3, sp, #48	; 0x30
 80066e2:	6808      	ldr	r0, [r1, #0]
 80066e4:	8889      	ldrh	r1, [r1, #4]
 80066e6:	900c      	str	r0, [sp, #48]	; 0x30
 80066e8:	f8ad 1034 	strh.w	r1, [sp, #52]	; 0x34
 80066ec:	e893 0003 	ldmia.w	r3, {r0, r1}
 80066f0:	9200      	str	r2, [sp, #0]
 80066f2:	901f      	str	r0, [sp, #124]	; 0x7c
 80066f4:	f8ad 1080 	strh.w	r1, [sp, #128]	; 0x80
 80066f8:	2006      	movs	r0, #6
 80066fa:	a91f      	add	r1, sp, #124	; 0x7c
 80066fc:	ab03      	add	r3, sp, #12
 80066fe:	f000 f88b 	bl	8006818 <si446x_spi_state_machine.constprop.28>
 8006702:	7823      	ldrb	r3, [r4, #0]
 8006704:	f003 02ff 	and.w	r2, r3, #255	; 0xff
 8006708:	b1b3      	cbz	r3, 8006738 <si446x_setup+0x67c>
 800670a:	bf30      	wfi
 800670c:	e7f9      	b.n	8006702 <si446x_setup+0x646>
 800670e:	bf00      	nop
 8006710:	03197500 	tsteq	r9, #0, 10
 8006714:	4bc65d40 	blmi	719dc1c <_Minimum_Stack_Size+0x719bc1c>
 8006718:	4dcf4e12 	stclmi	14, cr4, [pc, #72]	; 8006768 <si446x_setup+0x6ac>
 800671c:	3fe00000 	svccc	0x00e00000
 8006720:	453b8000 	ldrmi	r8, [fp, #-0]!
 8006724:	0800a632 	stmdaeq	r0, {r1, r4, r5, r9, sl, sp, pc}
 8006728:	0800a637 	stmdaeq	r0, {r0, r1, r2, r4, r5, r9, sl, sp, pc}
 800672c:	0800a63e 	stmdaeq	r0, {r1, r2, r3, r4, r5, r9, sl, sp, pc}
 8006730:	0800a643 	stmdaeq	r0, {r0, r1, r6, r9, sl, sp, pc}
 8006734:	0800a648 	stmdaeq	r0, {r3, r6, r9, sl, sp, pc}
 8006738:	4b12      	ldr	r3, [pc, #72]	; (8006784 <si446x_setup+0x6c8>)
 800673a:	2132      	movs	r1, #50	; 0x32
 800673c:	f893 3020 	ldrb.w	r3, [r3, #32]
 8006740:	f88d 106c 	strb.w	r1, [sp, #108]	; 0x6c
 8006744:	f88d 306d 	strb.w	r3, [sp, #109]	; 0x6d
 8006748:	2303      	movs	r3, #3
 800674a:	f88d 3070 	strb.w	r3, [sp, #112]	; 0x70
 800674e:	2308      	movs	r3, #8
 8006750:	f88d 3071 	strb.w	r3, [sp, #113]	; 0x71
 8006754:	4b0c      	ldr	r3, [pc, #48]	; (8006788 <si446x_setup+0x6cc>)
 8006756:	2006      	movs	r0, #6
 8006758:	9300      	str	r3, [sp, #0]
 800675a:	a91b      	add	r1, sp, #108	; 0x6c
 800675c:	ab14      	add	r3, sp, #80	; 0x50
 800675e:	f88d 206e 	strb.w	r2, [sp, #110]	; 0x6e
 8006762:	f88d 206f 	strb.w	r2, [sp, #111]	; 0x6f
 8006766:	f000 f857 	bl	8006818 <si446x_spi_state_machine.constprop.28>
 800676a:	4b08      	ldr	r3, [pc, #32]	; (800678c <si446x_setup+0x6d0>)
 800676c:	781b      	ldrb	r3, [r3, #0]
 800676e:	b10b      	cbz	r3, 8006774 <si446x_setup+0x6b8>
 8006770:	bf30      	wfi
 8006772:	e7fa      	b.n	800676a <si446x_setup+0x6ae>
 8006774:	a810      	add	r0, sp, #64	; 0x40
 8006776:	f002 f8db 	bl	8008930 <EXTI_Init>
 800677a:	4638      	mov	r0, r7
 800677c:	b029      	add	sp, #164	; 0xa4
 800677e:	e8bd 83f0 	ldmia.w	sp!, {r4, r5, r6, r7, r8, r9, pc}
 8006782:	bf00      	nop
 8006784:	20001198 	mulcs	r0, r8, r1
 8006788:	08005e65 	stmdaeq	r0, {r0, r2, r5, r6, r9, sl, fp, ip, lr}
 800678c:	200012c8 	andcs	r1, r0, r8, asr #5

08006790 <get_from_silabs_buffer>:
 8006790:	4b10      	ldr	r3, [pc, #64]	; (80067d4 <get_from_silabs_buffer+0x44>)
 8006792:	b530      	push	{r4, r5, lr}
 8006794:	8ad9      	ldrh	r1, [r3, #22]
 8006796:	8a9a      	ldrh	r2, [r3, #20]
 8006798:	b289      	uxth	r1, r1
 800679a:	b292      	uxth	r2, r2
 800679c:	4291      	cmp	r1, r2
 800679e:	d014      	beq.n	80067ca <get_from_silabs_buffer+0x3a>
 80067a0:	69d9      	ldr	r1, [r3, #28]
 80067a2:	8ada      	ldrh	r2, [r3, #22]
 80067a4:	b292      	uxth	r2, r2
 80067a6:	f851 5022 	ldr.w	r5, [r1, r2, lsl #2]
 80067aa:	8ada      	ldrh	r2, [r3, #22]
 80067ac:	3201      	adds	r2, #1
 80067ae:	b292      	uxth	r2, r2
 80067b0:	82da      	strh	r2, [r3, #22]
 80067b2:	8b1a      	ldrh	r2, [r3, #24]
 80067b4:	b294      	uxth	r4, r2
 80067b6:	8ada      	ldrh	r2, [r3, #22]
 80067b8:	b292      	uxth	r2, r2
 80067ba:	fbb2 f1f4 	udiv	r1, r2, r4
 80067be:	fb04 2211 	mls	r2, r4, r1, r2
 80067c2:	b292      	uxth	r2, r2
 80067c4:	82da      	strh	r2, [r3, #22]
 80067c6:	2300      	movs	r3, #0
 80067c8:	e001      	b.n	80067ce <get_from_silabs_buffer+0x3e>
 80067ca:	2500      	movs	r5, #0
 80067cc:	2301      	movs	r3, #1
 80067ce:	7003      	strb	r3, [r0, #0]
 80067d0:	b2e8      	uxtb	r0, r5
 80067d2:	bd30      	pop	{r4, r5, pc}
 80067d4:	20001198 	mulcs	r0, r8, r1

080067d8 <__usart_send_char>:
 80067d8:	4601      	mov	r1, r0
 80067da:	b508      	push	{r3, lr}
 80067dc:	4804      	ldr	r0, [pc, #16]	; (80067f0 <__usart_send_char+0x18>)
 80067de:	f002 fd59 	bl	8009294 <USART_SendData>
 80067e2:	4803      	ldr	r0, [pc, #12]	; (80067f0 <__usart_send_char+0x18>)
 80067e4:	2180      	movs	r1, #128	; 0x80
 80067e6:	f002 fd5d 	bl	80092a4 <USART_GetFlagStatus>
 80067ea:	2800      	cmp	r0, #0
 80067ec:	d0f9      	beq.n	80067e2 <__usart_send_char+0xa>
 80067ee:	bd08      	pop	{r3, pc}
 80067f0:	40013800 	andmi	r3, r1, r0, lsl #16

080067f4 <send_string_to_silabs.constprop.30>:
 80067f4:	b510      	push	{r4, lr}
 80067f6:	4c06      	ldr	r4, [pc, #24]	; (8006810 <send_string_to_silabs.constprop.30+0x1c>)
 80067f8:	f814 0f01 	ldrb.w	r0, [r4, #1]!
 80067fc:	b118      	cbz	r0, 8006806 <send_string_to_silabs.constprop.30+0x12>
 80067fe:	4905      	ldr	r1, [pc, #20]	; (8006814 <send_string_to_silabs.constprop.30+0x20>)
 8006800:	f000 fe24 	bl	800744c <Add_To_Buffer>
 8006804:	e7f8      	b.n	80067f8 <send_string_to_silabs.constprop.30+0x4>
 8006806:	2001      	movs	r0, #1
 8006808:	f002 f8d6 	bl	80089b8 <EXTI_GenerateSWInterrupt>
 800680c:	bd10      	pop	{r4, pc}
 800680e:	bf00      	nop
 8006810:	200011bb 			; <UNDEFINED> instruction: 0x200011bb
 8006814:	200012bc 			; <UNDEFINED> instruction: 0x200012bc

08006818 <si446x_spi_state_machine.constprop.28>:
 8006818:	b570      	push	{r4, r5, r6, lr}
 800681a:	4c79      	ldr	r4, [pc, #484]	; (8006a00 <si446x_spi_state_machine.constprop.28+0x1e8>)
 800681c:	b08c      	sub	sp, #48	; 0x30
 800681e:	9e10      	ldr	r6, [sp, #64]	; 0x40
 8006820:	f894 510c 	ldrb.w	r5, [r4, #268]	; 0x10c
 8006824:	b119      	cbz	r1, 800682e <si446x_spi_state_machine.constprop.28+0x16>
 8006826:	f8c4 1110 	str.w	r1, [r4, #272]	; 0x110
 800682a:	f884 0114 	strb.w	r0, [r4, #276]	; 0x114
 800682e:	b11b      	cbz	r3, 8006838 <si446x_spi_state_machine.constprop.28+0x20>
 8006830:	f8c4 3118 	str.w	r3, [r4, #280]	; 0x118
 8006834:	f884 211c 	strb.w	r2, [r4, #284]	; 0x11c
 8006838:	b10e      	cbz	r6, 800683e <si446x_spi_state_machine.constprop.28+0x26>
 800683a:	f8c4 6120 	str.w	r6, [r4, #288]	; 0x120
 800683e:	f015 03fd 	ands.w	r3, r5, #253	; 0xfd
 8006842:	d11a      	bne.n	800687a <si446x_spi_state_machine.constprop.28+0x62>
 8006844:	4a6f      	ldr	r2, [pc, #444]	; (8006a04 <si446x_spi_state_machine.constprop.28+0x1ec>)
 8006846:	9307      	str	r3, [sp, #28]
 8006848:	9308      	str	r3, [sp, #32]
 800684a:	9305      	str	r3, [sp, #20]
 800684c:	f894 3114 	ldrb.w	r3, [r4, #276]	; 0x114
 8006850:	9201      	str	r2, [sp, #4]
 8006852:	2b00      	cmp	r3, #0
 8006854:	bf14      	ite	ne
 8006856:	462a      	movne	r2, r5
 8006858:	f045 0201 	orreq.w	r2, r5, #1
 800685c:	b112      	cbz	r2, 8006864 <si446x_spi_state_machine.constprop.28+0x4c>
 800685e:	4b68      	ldr	r3, [pc, #416]	; (8006a00 <si446x_spi_state_machine.constprop.28+0x1e8>)
 8006860:	f893 311c 	ldrb.w	r3, [r3, #284]	; 0x11c
 8006864:	9304      	str	r3, [sp, #16]
 8006866:	4868      	ldr	r0, [pc, #416]	; (8006a08 <si446x_spi_state_machine.constprop.28+0x1f0>)
 8006868:	2300      	movs	r3, #0
 800686a:	9309      	str	r3, [sp, #36]	; 0x24
 800686c:	930a      	str	r3, [sp, #40]	; 0x28
 800686e:	930b      	str	r3, [sp, #44]	; 0x2c
 8006870:	f001 ff76 	bl	8008760 <DMA_DeInit>
 8006874:	4865      	ldr	r0, [pc, #404]	; (8006a0c <si446x_spi_state_machine.constprop.28+0x1f4>)
 8006876:	f001 ff73 	bl	8008760 <DMA_DeInit>
 800687a:	2d03      	cmp	r5, #3
 800687c:	f200 80b2 	bhi.w	80069e4 <si446x_spi_state_machine.constprop.28+0x1cc>
 8006880:	e8df f005 	tbb	[pc, r5]
 8006884:	966f3802 	strbtls	r3, [pc], -r2, lsl #16
 8006888:	f894 3114 	ldrb.w	r3, [r4, #276]	; 0x114
 800688c:	2501      	movs	r5, #1
 800688e:	4a5c      	ldr	r2, [pc, #368]	; (8006a00 <si446x_spi_state_machine.constprop.28+0x1e8>)
 8006890:	f884 510c 	strb.w	r5, [r4, #268]	; 0x10c
 8006894:	b1ab      	cbz	r3, 80068c2 <si446x_spi_state_machine.constprop.28+0xaa>
 8006896:	f8d2 3110 	ldr.w	r3, [r2, #272]	; 0x110
 800689a:	a901      	add	r1, sp, #4
 800689c:	9302      	str	r3, [sp, #8]
 800689e:	2310      	movs	r3, #16
 80068a0:	9303      	str	r3, [sp, #12]
 80068a2:	485a      	ldr	r0, [pc, #360]	; (8006a0c <si446x_spi_state_machine.constprop.28+0x1f4>)
 80068a4:	2300      	movs	r3, #0
 80068a6:	9306      	str	r3, [sp, #24]
 80068a8:	f001 ffd2 	bl	8008850 <DMA_Init>
 80068ac:	f44f 60c0 	mov.w	r0, #1536	; 0x600
 80068b0:	f002 f80e 	bl	80088d0 <DMA_ClearFlag>
 80068b4:	4855      	ldr	r0, [pc, #340]	; (8006a0c <si446x_spi_state_machine.constprop.28+0x1f4>)
 80068b6:	2102      	movs	r1, #2
 80068b8:	462a      	mov	r2, r5
 80068ba:	f001 fff0 	bl	800889e <DMA_ITConfig>
 80068be:	4853      	ldr	r0, [pc, #332]	; (8006a0c <si446x_spi_state_machine.constprop.28+0x1f4>)
 80068c0:	e016      	b.n	80068f0 <si446x_spi_state_machine.constprop.28+0xd8>
 80068c2:	f8d2 1110 	ldr.w	r1, [r2, #272]	; 0x110
 80068c6:	f8d2 2118 	ldr.w	r2, [r2, #280]	; 0x118
 80068ca:	7808      	ldrb	r0, [r1, #0]
 80068cc:	4950      	ldr	r1, [pc, #320]	; (8006a10 <si446x_spi_state_machine.constprop.28+0x1f8>)
 80068ce:	8188      	strh	r0, [r1, #12]
 80068d0:	a901      	add	r1, sp, #4
 80068d2:	484d      	ldr	r0, [pc, #308]	; (8006a08 <si446x_spi_state_machine.constprop.28+0x1f0>)
 80068d4:	9202      	str	r2, [sp, #8]
 80068d6:	9303      	str	r3, [sp, #12]
 80068d8:	9306      	str	r3, [sp, #24]
 80068da:	f001 ffb9 	bl	8008850 <DMA_Init>
 80068de:	2060      	movs	r0, #96	; 0x60
 80068e0:	f001 fff6 	bl	80088d0 <DMA_ClearFlag>
 80068e4:	4848      	ldr	r0, [pc, #288]	; (8006a08 <si446x_spi_state_machine.constprop.28+0x1f0>)
 80068e6:	2102      	movs	r1, #2
 80068e8:	462a      	mov	r2, r5
 80068ea:	f001 ffd8 	bl	800889e <DMA_ITConfig>
 80068ee:	4846      	ldr	r0, [pc, #280]	; (8006a08 <si446x_spi_state_machine.constprop.28+0x1f0>)
 80068f0:	4629      	mov	r1, r5
 80068f2:	e05a      	b.n	80069aa <si446x_spi_state_machine.constprop.28+0x192>
 80068f4:	f894 5114 	ldrb.w	r5, [r4, #276]	; 0x114
 80068f8:	4e41      	ldr	r6, [pc, #260]	; (8006a00 <si446x_spi_state_machine.constprop.28+0x1e8>)
 80068fa:	b1fd      	cbz	r5, 800693c <si446x_spi_state_machine.constprop.28+0x124>
 80068fc:	4843      	ldr	r0, [pc, #268]	; (8006a0c <si446x_spi_state_machine.constprop.28+0x1f4>)
 80068fe:	2100      	movs	r1, #0
 8006900:	f001 ffc4 	bl	800888c <DMA_Cmd>
 8006904:	2200      	movs	r2, #0
 8006906:	4841      	ldr	r0, [pc, #260]	; (8006a0c <si446x_spi_state_machine.constprop.28+0x1f4>)
 8006908:	2102      	movs	r1, #2
 800690a:	f001 ffc8 	bl	800889e <DMA_ITConfig>
 800690e:	4840      	ldr	r0, [pc, #256]	; (8006a10 <si446x_spi_state_machine.constprop.28+0x1f8>)
 8006910:	2100      	movs	r1, #0
 8006912:	f002 fb4c 	bl	8008fae <SPI_Cmd>
 8006916:	483e      	ldr	r0, [pc, #248]	; (8006a10 <si446x_spi_state_machine.constprop.28+0x1f8>)
 8006918:	2101      	movs	r1, #1
 800691a:	f002 fb48 	bl	8008fae <SPI_Cmd>
 800691e:	f8d6 3124 	ldr.w	r3, [r6, #292]	; 0x124
 8006922:	483c      	ldr	r0, [pc, #240]	; (8006a14 <si446x_spi_state_machine.constprop.28+0x1fc>)
 8006924:	f44f 6100 	mov.w	r1, #2048	; 0x800
 8006928:	f8c6 3128 	str.w	r3, [r6, #296]	; 0x128
 800692c:	f002 f8a8 	bl	8008a80 <GPIO_ReadInputDataBit>
 8006930:	2800      	cmp	r0, #0
 8006932:	d062      	beq.n	80069fa <si446x_spi_state_machine.constprop.28+0x1e2>
 8006934:	2302      	movs	r3, #2
 8006936:	f886 310c 	strb.w	r3, [r6, #268]	; 0x10c
 800693a:	e012      	b.n	8006962 <si446x_spi_state_machine.constprop.28+0x14a>
 800693c:	4832      	ldr	r0, [pc, #200]	; (8006a08 <si446x_spi_state_machine.constprop.28+0x1f0>)
 800693e:	4629      	mov	r1, r5
 8006940:	f001 ffa4 	bl	800888c <DMA_Cmd>
 8006944:	462a      	mov	r2, r5
 8006946:	4830      	ldr	r0, [pc, #192]	; (8006a08 <si446x_spi_state_machine.constprop.28+0x1f0>)
 8006948:	2102      	movs	r1, #2
 800694a:	f001 ffa8 	bl	800889e <DMA_ITConfig>
 800694e:	4830      	ldr	r0, [pc, #192]	; (8006a10 <si446x_spi_state_machine.constprop.28+0x1f8>)
 8006950:	4629      	mov	r1, r5
 8006952:	f002 fb2c 	bl	8008fae <SPI_Cmd>
 8006956:	482e      	ldr	r0, [pc, #184]	; (8006a10 <si446x_spi_state_machine.constprop.28+0x1f8>)
 8006958:	2101      	movs	r1, #1
 800695a:	f002 fb28 	bl	8008fae <SPI_Cmd>
 800695e:	f886 510c 	strb.w	r5, [r6, #268]	; 0x10c
 8006962:	f894 311c 	ldrb.w	r3, [r4, #284]	; 0x11c
 8006966:	2200      	movs	r2, #0
 8006968:	4925      	ldr	r1, [pc, #148]	; (8006a00 <si446x_spi_state_machine.constprop.28+0x1e8>)
 800696a:	f8c4 2128 	str.w	r2, [r4, #296]	; 0x128
 800696e:	b1fb      	cbz	r3, 80069b0 <si446x_spi_state_machine.constprop.28+0x198>
 8006970:	2003      	movs	r0, #3
 8006972:	f881 010c 	strb.w	r0, [r1, #268]	; 0x10c
 8006976:	4826      	ldr	r0, [pc, #152]	; (8006a10 <si446x_spi_state_machine.constprop.28+0x1f8>)
 8006978:	f8d1 1118 	ldr.w	r1, [r1, #280]	; 0x118
 800697c:	2444      	movs	r4, #68	; 0x44
 800697e:	8184      	strh	r4, [r0, #12]
 8006980:	f500 4050 	add.w	r0, r0, #53248	; 0xd000
 8006984:	9102      	str	r1, [sp, #8]
 8006986:	9203      	str	r2, [sp, #12]
 8006988:	a901      	add	r1, sp, #4
 800698a:	2280      	movs	r2, #128	; 0x80
 800698c:	301c      	adds	r0, #28
 800698e:	9206      	str	r2, [sp, #24]
 8006990:	9304      	str	r3, [sp, #16]
 8006992:	f001 ff5d 	bl	8008850 <DMA_Init>
 8006996:	2060      	movs	r0, #96	; 0x60
 8006998:	f001 ff9a 	bl	80088d0 <DMA_ClearFlag>
 800699c:	481a      	ldr	r0, [pc, #104]	; (8006a08 <si446x_spi_state_machine.constprop.28+0x1f0>)
 800699e:	2102      	movs	r1, #2
 80069a0:	2201      	movs	r2, #1
 80069a2:	f001 ff7c 	bl	800889e <DMA_ITConfig>
 80069a6:	4818      	ldr	r0, [pc, #96]	; (8006a08 <si446x_spi_state_machine.constprop.28+0x1f0>)
 80069a8:	2101      	movs	r1, #1
 80069aa:	f001 ff6f 	bl	800888c <DMA_Cmd>
 80069ae:	e024      	b.n	80069fa <si446x_spi_state_machine.constprop.28+0x1e2>
 80069b0:	4815      	ldr	r0, [pc, #84]	; (8006a08 <si446x_spi_state_machine.constprop.28+0x1f0>)
 80069b2:	2100      	movs	r1, #0
 80069b4:	f001 ff6a 	bl	800888c <DMA_Cmd>
 80069b8:	2200      	movs	r2, #0
 80069ba:	4813      	ldr	r0, [pc, #76]	; (8006a08 <si446x_spi_state_machine.constprop.28+0x1f0>)
 80069bc:	2102      	movs	r1, #2
 80069be:	f001 ff6e 	bl	800889e <DMA_ITConfig>
 80069c2:	4813      	ldr	r0, [pc, #76]	; (8006a10 <si446x_spi_state_machine.constprop.28+0x1f8>)
 80069c4:	2100      	movs	r1, #0
 80069c6:	f002 faf2 	bl	8008fae <SPI_Cmd>
 80069ca:	2101      	movs	r1, #1
 80069cc:	4810      	ldr	r0, [pc, #64]	; (8006a10 <si446x_spi_state_machine.constprop.28+0x1f8>)
 80069ce:	f002 faee 	bl	8008fae <SPI_Cmd>
 80069d2:	f8d4 3120 	ldr.w	r3, [r4, #288]	; 0x120
 80069d6:	2100      	movs	r1, #0
 80069d8:	f884 110c 	strb.w	r1, [r4, #268]	; 0x10c
 80069dc:	b16b      	cbz	r3, 80069fa <si446x_spi_state_machine.constprop.28+0x1e2>
 80069de:	480e      	ldr	r0, [pc, #56]	; (8006a18 <si446x_spi_state_machine.constprop.28+0x200>)
 80069e0:	4798      	blx	r3
 80069e2:	e00a      	b.n	80069fa <si446x_spi_state_machine.constprop.28+0x1e2>
 80069e4:	4808      	ldr	r0, [pc, #32]	; (8006a08 <si446x_spi_state_machine.constprop.28+0x1f0>)
 80069e6:	2100      	movs	r1, #0
 80069e8:	f001 ff50 	bl	800888c <DMA_Cmd>
 80069ec:	4807      	ldr	r0, [pc, #28]	; (8006a0c <si446x_spi_state_machine.constprop.28+0x1f4>)
 80069ee:	2100      	movs	r1, #0
 80069f0:	f001 ff4c 	bl	800888c <DMA_Cmd>
 80069f4:	2300      	movs	r3, #0
 80069f6:	f884 310c 	strb.w	r3, [r4, #268]	; 0x10c
 80069fa:	b00c      	add	sp, #48	; 0x30
 80069fc:	bd70      	pop	{r4, r5, r6, pc}
 80069fe:	bf00      	nop
 8006a00:	200011bc 			; <UNDEFINED> instruction: 0x200011bc
 8006a04:	4001300c 	andmi	r3, r1, ip
 8006a08:	4002001c 	andmi	r0, r2, ip, lsl r0
 8006a0c:	40020030 	andmi	r0, r2, r0, lsr r0
 8006a10:	40013000 	andmi	r3, r1, r0
 8006a14:	40010c00 	andmi	r0, r1, r0, lsl #24
 8006a18:	200012e8 	andcs	r1, r0, r8, ror #5

08006a1c <Gps_Process_Byte.constprop.26>:
 8006a1c:	b510      	push	{r4, lr}
 8006a1e:	4b63      	ldr	r3, [pc, #396]	; (8006bac <Gps_Process_Byte.constprop.26+0x190>)
 8006a20:	f893 212d 	ldrb.w	r2, [r3, #301]	; 0x12d
 8006a24:	2a08      	cmp	r2, #8
 8006a26:	f200 80a6 	bhi.w	8006b76 <Gps_Process_Byte.constprop.26+0x15a>
 8006a2a:	e8df f002 	tbb	[pc, r2]
 8006a2e:	130f0a05 	movwne	r0, #64005	; 0xfa05
 8006a32:	73261b17 	teqvc	r6, #23552	; 0x5c00
 8006a36:	28b5007c 	ldmcs	r5!, {r2, r3, r4, r5, r6}
 8006a3a:	f040 809c 	bne.w	8006b76 <Gps_Process_Byte.constprop.26+0x15a>
 8006a3e:	2201      	movs	r2, #1
 8006a40:	e09a      	b.n	8006b78 <Gps_Process_Byte.constprop.26+0x15c>
 8006a42:	2862      	cmp	r0, #98	; 0x62
 8006a44:	f040 8097 	bne.w	8006b76 <Gps_Process_Byte.constprop.26+0x15a>
 8006a48:	2202      	movs	r2, #2
 8006a4a:	e095      	b.n	8006b78 <Gps_Process_Byte.constprop.26+0x15c>
 8006a4c:	f883 012e 	strb.w	r0, [r3, #302]	; 0x12e
 8006a50:	2203      	movs	r2, #3
 8006a52:	e091      	b.n	8006b78 <Gps_Process_Byte.constprop.26+0x15c>
 8006a54:	f883 012f 	strb.w	r0, [r3, #303]	; 0x12f
 8006a58:	2204      	movs	r2, #4
 8006a5a:	e08d      	b.n	8006b78 <Gps_Process_Byte.constprop.26+0x15c>
 8006a5c:	f8a3 0130 	strh.w	r0, [r3, #304]	; 0x130
 8006a60:	2205      	movs	r2, #5
 8006a62:	e089      	b.n	8006b78 <Gps_Process_Byte.constprop.26+0x15c>
 8006a64:	f8b3 2130 	ldrh.w	r2, [r3, #304]	; 0x130
 8006a68:	ea42 2200 	orr.w	r2, r2, r0, lsl #8
 8006a6c:	f8a3 2130 	strh.w	r2, [r3, #304]	; 0x130
 8006a70:	2200      	movs	r2, #0
 8006a72:	f883 2132 	strb.w	r2, [r3, #306]	; 0x132
 8006a76:	2206      	movs	r2, #6
 8006a78:	e07e      	b.n	8006b78 <Gps_Process_Byte.constprop.26+0x15c>
 8006a7a:	f893 112e 	ldrb.w	r1, [r3, #302]	; 0x12e
 8006a7e:	4a4b      	ldr	r2, [pc, #300]	; (8006bac <Gps_Process_Byte.constprop.26+0x190>)
 8006a80:	2901      	cmp	r1, #1
 8006a82:	d13e      	bne.n	8006b02 <Gps_Process_Byte.constprop.26+0xe6>
 8006a84:	f892 112f 	ldrb.w	r1, [r2, #303]	; 0x12f
 8006a88:	2902      	cmp	r1, #2
 8006a8a:	d108      	bne.n	8006a9e <Gps_Process_Byte.constprop.26+0x82>
 8006a8c:	f8b2 1130 	ldrh.w	r1, [r2, #304]	; 0x130
 8006a90:	1e4c      	subs	r4, r1, #1
 8006a92:	2c17      	cmp	r4, #23
 8006a94:	d835      	bhi.n	8006b02 <Gps_Process_Byte.constprop.26+0xe6>
 8006a96:	1a52      	subs	r2, r2, r1
 8006a98:	f882 015f 	strb.w	r0, [r2, #351]	; 0x15f
 8006a9c:	e031      	b.n	8006b02 <Gps_Process_Byte.constprop.26+0xe6>
 8006a9e:	2912      	cmp	r1, #18
 8006aa0:	d10f      	bne.n	8006ac2 <Gps_Process_Byte.constprop.26+0xa6>
 8006aa2:	f8b2 1130 	ldrh.w	r1, [r2, #304]	; 0x130
 8006aa6:	f1a1 0415 	sub.w	r4, r1, #21
 8006aaa:	2c0f      	cmp	r4, #15
 8006aac:	bf9c      	itt	ls
 8006aae:	1a52      	subls	r2, r2, r1
 8006ab0:	f882 015b 	strbls.w	r0, [r2, #347]	; 0x15b
 8006ab4:	1f8a      	subs	r2, r1, #6
 8006ab6:	2a02      	cmp	r2, #2
 8006ab8:	d823      	bhi.n	8006b02 <Gps_Process_Byte.constprop.26+0xe6>
 8006aba:	1a59      	subs	r1, r3, r1
 8006abc:	f881 0167 	strb.w	r0, [r1, #359]	; 0x167
 8006ac0:	e01f      	b.n	8006b02 <Gps_Process_Byte.constprop.26+0xe6>
 8006ac2:	2906      	cmp	r1, #6
 8006ac4:	d11d      	bne.n	8006b02 <Gps_Process_Byte.constprop.26+0xe6>
 8006ac6:	f8b2 1130 	ldrh.w	r1, [r2, #304]	; 0x130
 8006aca:	292a      	cmp	r1, #42	; 0x2a
 8006acc:	d00e      	beq.n	8006aec <Gps_Process_Byte.constprop.26+0xd0>
 8006ace:	d804      	bhi.n	8006ada <Gps_Process_Byte.constprop.26+0xbe>
 8006ad0:	2905      	cmp	r1, #5
 8006ad2:	d116      	bne.n	8006b02 <Gps_Process_Byte.constprop.26+0xe6>
 8006ad4:	f882 0165 	strb.w	r0, [r2, #357]	; 0x165
 8006ad8:	e013      	b.n	8006b02 <Gps_Process_Byte.constprop.26+0xe6>
 8006ada:	292b      	cmp	r1, #43	; 0x2b
 8006adc:	d009      	beq.n	8006af2 <Gps_Process_Byte.constprop.26+0xd6>
 8006ade:	292c      	cmp	r1, #44	; 0x2c
 8006ae0:	d10f      	bne.n	8006b02 <Gps_Process_Byte.constprop.26+0xe6>
 8006ae2:	f8d2 1133 	ldr.w	r1, [r2, #307]	; 0x133
 8006ae6:	f8c2 0133 	str.w	r0, [r2, #307]	; 0x133
 8006aea:	e00a      	b.n	8006b02 <Gps_Process_Byte.constprop.26+0xe6>
 8006aec:	f882 0164 	strb.w	r0, [r2, #356]	; 0x164
 8006af0:	e007      	b.n	8006b02 <Gps_Process_Byte.constprop.26+0xe6>
 8006af2:	f8d2 1133 	ldr.w	r1, [r2, #307]	; 0x133
 8006af6:	f8d2 4133 	ldr.w	r4, [r2, #307]	; 0x133
 8006afa:	ea41 2100 	orr.w	r1, r1, r0, lsl #8
 8006afe:	f8c2 1133 	str.w	r1, [r2, #307]	; 0x133
 8006b02:	f8b3 2130 	ldrh.w	r2, [r3, #304]	; 0x130
 8006b06:	3a01      	subs	r2, #1
 8006b08:	b292      	uxth	r2, r2
 8006b0a:	f8a3 2130 	strh.w	r2, [r3, #304]	; 0x130
 8006b0e:	bbaa      	cbnz	r2, 8006b7c <Gps_Process_Byte.constprop.26+0x160>
 8006b10:	2107      	movs	r1, #7
 8006b12:	e004      	b.n	8006b1e <Gps_Process_Byte.constprop.26+0x102>
 8006b14:	f893 2166 	ldrb.w	r2, [r3, #358]	; 0x166
 8006b18:	4282      	cmp	r2, r0
 8006b1a:	d12c      	bne.n	8006b76 <Gps_Process_Byte.constprop.26+0x15a>
 8006b1c:	2108      	movs	r1, #8
 8006b1e:	4a23      	ldr	r2, [pc, #140]	; (8006bac <Gps_Process_Byte.constprop.26+0x190>)
 8006b20:	f882 112d 	strb.w	r1, [r2, #301]	; 0x12d
 8006b24:	e02a      	b.n	8006b7c <Gps_Process_Byte.constprop.26+0x160>
 8006b26:	f893 1167 	ldrb.w	r1, [r3, #359]	; 0x167
 8006b2a:	4a20      	ldr	r2, [pc, #128]	; (8006bac <Gps_Process_Byte.constprop.26+0x190>)
 8006b2c:	4281      	cmp	r1, r0
 8006b2e:	d122      	bne.n	8006b76 <Gps_Process_Byte.constprop.26+0x15a>
 8006b30:	f892 112e 	ldrb.w	r1, [r2, #302]	; 0x12e
 8006b34:	2901      	cmp	r1, #1
 8006b36:	d11e      	bne.n	8006b76 <Gps_Process_Byte.constprop.26+0x15a>
 8006b38:	f892 112f 	ldrb.w	r1, [r2, #303]	; 0x12f
 8006b3c:	2930      	cmp	r1, #48	; 0x30
 8006b3e:	d104      	bne.n	8006b4a <Gps_Process_Byte.constprop.26+0x12e>
 8006b40:	f892 1163 	ldrb.w	r1, [r2, #355]	; 0x163
 8006b44:	f041 0108 	orr.w	r1, r1, #8
 8006b48:	e013      	b.n	8006b72 <Gps_Process_Byte.constprop.26+0x156>
 8006b4a:	2906      	cmp	r1, #6
 8006b4c:	d104      	bne.n	8006b58 <Gps_Process_Byte.constprop.26+0x13c>
 8006b4e:	f892 1163 	ldrb.w	r1, [r2, #355]	; 0x163
 8006b52:	f041 0104 	orr.w	r1, r1, #4
 8006b56:	e00c      	b.n	8006b72 <Gps_Process_Byte.constprop.26+0x156>
 8006b58:	2902      	cmp	r1, #2
 8006b5a:	d104      	bne.n	8006b66 <Gps_Process_Byte.constprop.26+0x14a>
 8006b5c:	f892 1163 	ldrb.w	r1, [r2, #355]	; 0x163
 8006b60:	f041 0102 	orr.w	r1, r1, #2
 8006b64:	e005      	b.n	8006b72 <Gps_Process_Byte.constprop.26+0x156>
 8006b66:	2912      	cmp	r1, #18
 8006b68:	d105      	bne.n	8006b76 <Gps_Process_Byte.constprop.26+0x15a>
 8006b6a:	f892 1163 	ldrb.w	r1, [r2, #355]	; 0x163
 8006b6e:	f041 0101 	orr.w	r1, r1, #1
 8006b72:	f882 1163 	strb.w	r1, [r2, #355]	; 0x163
 8006b76:	2200      	movs	r2, #0
 8006b78:	f883 212d 	strb.w	r2, [r3, #301]	; 0x12d
 8006b7c:	f893 312d 	ldrb.w	r3, [r3, #301]	; 0x12d
 8006b80:	4a0a      	ldr	r2, [pc, #40]	; (8006bac <Gps_Process_Byte.constprop.26+0x190>)
 8006b82:	1ed9      	subs	r1, r3, #3
 8006b84:	2904      	cmp	r1, #4
 8006b86:	d80b      	bhi.n	8006ba0 <Gps_Process_Byte.constprop.26+0x184>
 8006b88:	f892 3166 	ldrb.w	r3, [r2, #358]	; 0x166
 8006b8c:	4418      	add	r0, r3
 8006b8e:	f892 3167 	ldrb.w	r3, [r2, #359]	; 0x167
 8006b92:	b2c0      	uxtb	r0, r0
 8006b94:	f882 0166 	strb.w	r0, [r2, #358]	; 0x166
 8006b98:	4418      	add	r0, r3
 8006b9a:	f882 0167 	strb.w	r0, [r2, #359]	; 0x167
 8006b9e:	bd10      	pop	{r4, pc}
 8006ba0:	b91b      	cbnz	r3, 8006baa <Gps_Process_Byte.constprop.26+0x18e>
 8006ba2:	f882 3166 	strb.w	r3, [r2, #358]	; 0x166
 8006ba6:	f882 3167 	strb.w	r3, [r2, #359]	; 0x167
 8006baa:	bd10      	pop	{r4, pc}
 8006bac:	200011bc 			; <UNDEFINED> instruction: 0x200011bc

08006bb0 <Get_UBX_Ack.constprop.25>:
 8006bb0:	b530      	push	{r4, r5, lr}
 8006bb2:	23b5      	movs	r3, #181	; 0xb5
 8006bb4:	b085      	sub	sp, #20
 8006bb6:	f88d 3004 	strb.w	r3, [sp, #4]
 8006bba:	2362      	movs	r3, #98	; 0x62
 8006bbc:	f88d 3005 	strb.w	r3, [sp, #5]
 8006bc0:	2305      	movs	r3, #5
 8006bc2:	f88d 3006 	strb.w	r3, [sp, #6]
 8006bc6:	2301      	movs	r3, #1
 8006bc8:	f88d 3007 	strb.w	r3, [sp, #7]
 8006bcc:	2302      	movs	r3, #2
 8006bce:	f88d 3008 	strb.w	r3, [sp, #8]
 8006bd2:	2206      	movs	r2, #6
 8006bd4:	2300      	movs	r3, #0
 8006bd6:	f88d 3009 	strb.w	r3, [sp, #9]
 8006bda:	f88d 200a 	strb.w	r2, [sp, #10]
 8006bde:	f88d 000b 	strb.w	r0, [sp, #11]
 8006be2:	f88d 300c 	strb.w	r3, [sp, #12]
 8006be6:	f88d 300d 	strb.w	r3, [sp, #13]
 8006bea:	aa04      	add	r2, sp, #16
 8006bec:	441a      	add	r2, r3
 8006bee:	f812 1c0a 	ldrb.w	r1, [r2, #-10]
 8006bf2:	f89d 200c 	ldrb.w	r2, [sp, #12]
 8006bf6:	3301      	adds	r3, #1
 8006bf8:	440a      	add	r2, r1
 8006bfa:	f89d 100d 	ldrb.w	r1, [sp, #13]
 8006bfe:	b2d2      	uxtb	r2, r2
 8006c00:	f88d 200c 	strb.w	r2, [sp, #12]
 8006c04:	2b06      	cmp	r3, #6
 8006c06:	440a      	add	r2, r1
 8006c08:	f88d 200d 	strb.w	r2, [sp, #13]
 8006c0c:	d1ed      	bne.n	8006bea <Get_UBX_Ack.constprop.25+0x3a>
 8006c0e:	4d11      	ldr	r5, [pc, #68]	; (8006c54 <Get_UBX_Ack.constprop.25+0xa4>)
 8006c10:	2400      	movs	r4, #0
 8006c12:	3d01      	subs	r5, #1
 8006c14:	d01a      	beq.n	8006c4c <Get_UBX_Ack.constprop.25+0x9c>
 8006c16:	4810      	ldr	r0, [pc, #64]	; (8006c58 <Get_UBX_Ack.constprop.25+0xa8>)
 8006c18:	f8b0 2168 	ldrh.w	r2, [r0, #360]	; 0x168
 8006c1c:	f8b0 316a 	ldrh.w	r3, [r0, #362]	; 0x16a
 8006c20:	b292      	uxth	r2, r2
 8006c22:	b29b      	uxth	r3, r3
 8006c24:	429a      	cmp	r2, r3
 8006c26:	d103      	bne.n	8006c30 <Get_UBX_Ack.constprop.25+0x80>
 8006c28:	2c09      	cmp	r4, #9
 8006c2a:	d9f2      	bls.n	8006c12 <Get_UBX_Ack.constprop.25+0x62>
 8006c2c:	2000      	movs	r0, #0
 8006c2e:	e00e      	b.n	8006c4e <Get_UBX_Ack.constprop.25+0x9e>
 8006c30:	f500 70b4 	add.w	r0, r0, #360	; 0x168
 8006c34:	f000 fbfc 	bl	8007430 <Pop_From_Buffer>
 8006c38:	ab04      	add	r3, sp, #16
 8006c3a:	4423      	add	r3, r4
 8006c3c:	f813 3c0c 	ldrb.w	r3, [r3, #-12]
 8006c40:	b2c0      	uxtb	r0, r0
 8006c42:	4283      	cmp	r3, r0
 8006c44:	d1e4      	bne.n	8006c10 <Get_UBX_Ack.constprop.25+0x60>
 8006c46:	3401      	adds	r4, #1
 8006c48:	b2e4      	uxtb	r4, r4
 8006c4a:	e7ed      	b.n	8006c28 <Get_UBX_Ack.constprop.25+0x78>
 8006c4c:	2001      	movs	r0, #1
 8006c4e:	b005      	add	sp, #20
 8006c50:	bd30      	pop	{r4, r5, pc}
 8006c52:	bf00      	nop
 8006c54:	000186a2 	andeq	r8, r1, r2, lsr #13
 8006c58:	200011bc 			; <UNDEFINED> instruction: 0x200011bc

08006c5c <USART2_reconf.constprop.24>:
 8006c5c:	b51f      	push	{r0, r1, r2, r3, r4, lr}
 8006c5e:	4c13      	ldr	r4, [pc, #76]	; (8006cac <USART2_reconf.constprop.24+0x50>)
 8006c60:	2100      	movs	r1, #0
 8006c62:	4620      	mov	r0, r4
 8006c64:	f002 fae8 	bl	8009238 <USART_Cmd>
 8006c68:	4620      	mov	r0, r4
 8006c6a:	f002 fa55 	bl	8009118 <USART_DeInit>
 8006c6e:	f44f 4361 	mov.w	r3, #57600	; 0xe100
 8006c72:	9300      	str	r3, [sp, #0]
 8006c74:	2300      	movs	r3, #0
 8006c76:	f8ad 3004 	strh.w	r3, [sp, #4]
 8006c7a:	f8ad 3006 	strh.w	r3, [sp, #6]
 8006c7e:	f8ad 3008 	strh.w	r3, [sp, #8]
 8006c82:	f8ad 300c 	strh.w	r3, [sp, #12]
 8006c86:	4620      	mov	r0, r4
 8006c88:	230c      	movs	r3, #12
 8006c8a:	4669      	mov	r1, sp
 8006c8c:	f8ad 300a 	strh.w	r3, [sp, #10]
 8006c90:	f002 fa8e 	bl	80091b0 <USART_Init>
 8006c94:	4620      	mov	r0, r4
 8006c96:	2201      	movs	r2, #1
 8006c98:	2140      	movs	r1, #64	; 0x40
 8006c9a:	f002 faf2 	bl	8009282 <USART_DMACmd>
 8006c9e:	4620      	mov	r0, r4
 8006ca0:	2101      	movs	r1, #1
 8006ca2:	f002 fac9 	bl	8009238 <USART_Cmd>
 8006ca6:	b004      	add	sp, #16
 8006ca8:	bd10      	pop	{r4, pc}
 8006caa:	bf00      	nop
 8006cac:	40004400 	andmi	r4, r0, r0, lsl #8

08006cb0 <f_read.constprop.13>:
 8006cb0:	e92d 4ff7 	stmdb	sp!, {r0, r1, r2, r4, r5, r6, r7, r8, r9, sl, fp, lr}
 8006cb4:	4d6c      	ldr	r5, [pc, #432]	; (8006e68 <f_read.constprop.13+0x1b8>)
 8006cb6:	2300      	movs	r3, #0
 8006cb8:	4680      	mov	r8, r0
 8006cba:	460c      	mov	r4, r1
 8006cbc:	6013      	str	r3, [r2, #0]
 8006cbe:	f8d5 0174 	ldr.w	r0, [r5, #372]	; 0x174
 8006cc2:	f8b5 1178 	ldrh.w	r1, [r5, #376]	; 0x178
 8006cc6:	4691      	mov	r9, r2
 8006cc8:	f7fb fe64 	bl	8002994 <validate.lto_priv.31>
 8006ccc:	2800      	cmp	r0, #0
 8006cce:	f040 80c8 	bne.w	8006e62 <f_read.constprop.13+0x1b2>
 8006cd2:	f895 317a 	ldrb.w	r3, [r5, #378]	; 0x17a
 8006cd6:	061a      	lsls	r2, r3, #24
 8006cd8:	d44c      	bmi.n	8006d74 <f_read.constprop.13+0xc4>
 8006cda:	07db      	lsls	r3, r3, #31
 8006cdc:	f140 80c0 	bpl.w	8006e60 <f_read.constprop.13+0x1b0>
 8006ce0:	f8d5 3180 	ldr.w	r3, [r5, #384]	; 0x180
 8006ce4:	f8d5 017c 	ldr.w	r0, [r5, #380]	; 0x17c
 8006ce8:	1a18      	subs	r0, r3, r0
 8006cea:	4284      	cmp	r4, r0
 8006cec:	bf28      	it	cs
 8006cee:	4604      	movcs	r4, r0
 8006cf0:	e022      	b.n	8006d38 <f_read.constprop.13+0x88>
 8006cf2:	0a67      	lsrs	r7, r4, #9
 8006cf4:	eb00 0a06 	add.w	sl, r0, r6
 8006cf8:	d071      	beq.n	8006dde <f_read.constprop.13+0x12e>
 8006cfa:	789a      	ldrb	r2, [r3, #2]
 8006cfc:	19b9      	adds	r1, r7, r6
 8006cfe:	4291      	cmp	r1, r2
 8006d00:	bf88      	it	hi
 8006d02:	1b97      	subhi	r7, r2, r6
 8006d04:	7858      	ldrb	r0, [r3, #1]
 8006d06:	4641      	mov	r1, r8
 8006d08:	4652      	mov	r2, sl
 8006d0a:	b2fb      	uxtb	r3, r7
 8006d0c:	f7fd feca 	bl	8004aa4 <disk_read>
 8006d10:	2800      	cmp	r0, #0
 8006d12:	d14e      	bne.n	8006db2 <f_read.constprop.13+0x102>
 8006d14:	f895 317a 	ldrb.w	r3, [r5, #378]	; 0x17a
 8006d18:	4953      	ldr	r1, [pc, #332]	; (8006e68 <f_read.constprop.13+0x1b8>)
 8006d1a:	0658      	lsls	r0, r3, #25
 8006d1c:	d450      	bmi.n	8006dc0 <f_read.constprop.13+0x110>
 8006d1e:	027e      	lsls	r6, r7, #9
 8006d20:	f8d5 317c 	ldr.w	r3, [r5, #380]	; 0x17c
 8006d24:	44b0      	add	r8, r6
 8006d26:	4433      	add	r3, r6
 8006d28:	f8c5 317c 	str.w	r3, [r5, #380]	; 0x17c
 8006d2c:	f8d9 3000 	ldr.w	r3, [r9]
 8006d30:	1ba4      	subs	r4, r4, r6
 8006d32:	4433      	add	r3, r6
 8006d34:	f8c9 3000 	str.w	r3, [r9]
 8006d38:	2c00      	cmp	r4, #0
 8006d3a:	f000 808f 	beq.w	8006e5c <f_read.constprop.13+0x1ac>
 8006d3e:	f8d5 217c 	ldr.w	r2, [r5, #380]	; 0x17c
 8006d42:	4b49      	ldr	r3, [pc, #292]	; (8006e68 <f_read.constprop.13+0x1b8>)
 8006d44:	f3c2 0108 	ubfx	r1, r2, #0, #9
 8006d48:	2900      	cmp	r1, #0
 8006d4a:	d177      	bne.n	8006e3c <f_read.constprop.13+0x18c>
 8006d4c:	f8d3 0174 	ldr.w	r0, [r3, #372]	; 0x174
 8006d50:	7886      	ldrb	r6, [r0, #2]
 8006d52:	3e01      	subs	r6, #1
 8006d54:	ea06 2652 	and.w	r6, r6, r2, lsr #9
 8006d58:	f016 06ff 	ands.w	r6, r6, #255	; 0xff
 8006d5c:	d115      	bne.n	8006d8a <f_read.constprop.13+0xda>
 8006d5e:	b95a      	cbnz	r2, 8006d78 <f_read.constprop.13+0xc8>
 8006d60:	f8d3 0184 	ldr.w	r0, [r3, #388]	; 0x184
 8006d64:	2801      	cmp	r0, #1
 8006d66:	d80c      	bhi.n	8006d82 <f_read.constprop.13+0xd2>
 8006d68:	f895 317a 	ldrb.w	r3, [r5, #378]	; 0x17a
 8006d6c:	f063 037f 	orn	r3, r3, #127	; 0x7f
 8006d70:	f885 317a 	strb.w	r3, [r5, #378]	; 0x17a
 8006d74:	2002      	movs	r0, #2
 8006d76:	e074      	b.n	8006e62 <f_read.constprop.13+0x1b2>
 8006d78:	f8d3 1188 	ldr.w	r1, [r3, #392]	; 0x188
 8006d7c:	f7fc f85d 	bl	8002e3a <get_fat>
 8006d80:	e7f0      	b.n	8006d64 <f_read.constprop.13+0xb4>
 8006d82:	1c47      	adds	r7, r0, #1
 8006d84:	d015      	beq.n	8006db2 <f_read.constprop.13+0x102>
 8006d86:	f8c5 0188 	str.w	r0, [r5, #392]	; 0x188
 8006d8a:	f8d5 3174 	ldr.w	r3, [r5, #372]	; 0x174
 8006d8e:	f8d5 1188 	ldr.w	r1, [r5, #392]	; 0x188
 8006d92:	4618      	mov	r0, r3
 8006d94:	9301      	str	r3, [sp, #4]
 8006d96:	f7fb ff91 	bl	8002cbc <clust2sect>
 8006d9a:	f8df b0cc 	ldr.w	fp, [pc, #204]	; 8006e68 <f_read.constprop.13+0x1b8>
 8006d9e:	9b01      	ldr	r3, [sp, #4]
 8006da0:	2800      	cmp	r0, #0
 8006da2:	d1a6      	bne.n	8006cf2 <f_read.constprop.13+0x42>
 8006da4:	f89b 317a 	ldrb.w	r3, [fp, #378]	; 0x17a
 8006da8:	f063 037f 	orn	r3, r3, #127	; 0x7f
 8006dac:	f88b 317a 	strb.w	r3, [fp, #378]	; 0x17a
 8006db0:	e7e0      	b.n	8006d74 <f_read.constprop.13+0xc4>
 8006db2:	f895 317a 	ldrb.w	r3, [r5, #378]	; 0x17a
 8006db6:	f063 037f 	orn	r3, r3, #127	; 0x7f
 8006dba:	f885 317a 	strb.w	r3, [r5, #378]	; 0x17a
 8006dbe:	e039      	b.n	8006e34 <f_read.constprop.13+0x184>
 8006dc0:	f8d1 018c 	ldr.w	r0, [r1, #396]	; 0x18c
 8006dc4:	ebca 0000 	rsb	r0, sl, r0
 8006dc8:	42b8      	cmp	r0, r7
 8006dca:	d2a8      	bcs.n	8006d1e <f_read.constprop.13+0x6e>
 8006dcc:	eb08 2040 	add.w	r0, r8, r0, lsl #9
 8006dd0:	f501 71cc 	add.w	r1, r1, #408	; 0x198
 8006dd4:	f44f 7200 	mov.w	r2, #512	; 0x200
 8006dd8:	f7fc fb1a 	bl	8003410 <mem_cpy.lto_priv.32>
 8006ddc:	e79f      	b.n	8006d1e <f_read.constprop.13+0x6e>
 8006dde:	f8db 218c 	ldr.w	r2, [fp, #396]	; 0x18c
 8006de2:	4552      	cmp	r2, sl
 8006de4:	d028      	beq.n	8006e38 <f_read.constprop.13+0x188>
 8006de6:	f89b 117a 	ldrb.w	r1, [fp, #378]	; 0x17a
 8006dea:	0649      	lsls	r1, r1, #25
 8006dec:	d511      	bpl.n	8006e12 <f_read.constprop.13+0x162>
 8006dee:	7858      	ldrb	r0, [r3, #1]
 8006df0:	f50b 71cc 	add.w	r1, fp, #408	; 0x198
 8006df4:	2301      	movs	r3, #1
 8006df6:	f7fd fdf5 	bl	80049e4 <disk_write>
 8006dfa:	f89b 317a 	ldrb.w	r3, [fp, #378]	; 0x17a
 8006dfe:	b120      	cbz	r0, 8006e0a <f_read.constprop.13+0x15a>
 8006e00:	f063 037f 	orn	r3, r3, #127	; 0x7f
 8006e04:	f88b 317a 	strb.w	r3, [fp, #378]	; 0x17a
 8006e08:	e014      	b.n	8006e34 <f_read.constprop.13+0x184>
 8006e0a:	f023 0340 	bic.w	r3, r3, #64	; 0x40
 8006e0e:	f88b 317a 	strb.w	r3, [fp, #378]	; 0x17a
 8006e12:	f8d5 3174 	ldr.w	r3, [r5, #372]	; 0x174
 8006e16:	4e14      	ldr	r6, [pc, #80]	; (8006e68 <f_read.constprop.13+0x1b8>)
 8006e18:	7858      	ldrb	r0, [r3, #1]
 8006e1a:	f506 71cc 	add.w	r1, r6, #408	; 0x198
 8006e1e:	4652      	mov	r2, sl
 8006e20:	2301      	movs	r3, #1
 8006e22:	f7fd fe3f 	bl	8004aa4 <disk_read>
 8006e26:	b138      	cbz	r0, 8006e38 <f_read.constprop.13+0x188>
 8006e28:	f896 317a 	ldrb.w	r3, [r6, #378]	; 0x17a
 8006e2c:	f063 037f 	orn	r3, r3, #127	; 0x7f
 8006e30:	f886 317a 	strb.w	r3, [r6, #378]	; 0x17a
 8006e34:	2001      	movs	r0, #1
 8006e36:	e014      	b.n	8006e62 <f_read.constprop.13+0x1b2>
 8006e38:	f8c5 a18c 	str.w	sl, [r5, #396]	; 0x18c
 8006e3c:	f8d5 317c 	ldr.w	r3, [r5, #380]	; 0x17c
 8006e40:	490a      	ldr	r1, [pc, #40]	; (8006e6c <f_read.constprop.13+0x1bc>)
 8006e42:	f3c3 0308 	ubfx	r3, r3, #0, #9
 8006e46:	f5c3 7600 	rsb	r6, r3, #512	; 0x200
 8006e4a:	42a6      	cmp	r6, r4
 8006e4c:	bf28      	it	cs
 8006e4e:	4626      	movcs	r6, r4
 8006e50:	4640      	mov	r0, r8
 8006e52:	4419      	add	r1, r3
 8006e54:	4632      	mov	r2, r6
 8006e56:	f7fc fadb 	bl	8003410 <mem_cpy.lto_priv.32>
 8006e5a:	e761      	b.n	8006d20 <f_read.constprop.13+0x70>
 8006e5c:	4620      	mov	r0, r4
 8006e5e:	e000      	b.n	8006e62 <f_read.constprop.13+0x1b2>
 8006e60:	2007      	movs	r0, #7
 8006e62:	b003      	add	sp, #12
 8006e64:	e8bd 8ff0 	ldmia.w	sp!, {r4, r5, r6, r7, r8, r9, sl, fp, pc}
 8006e68:	200011bc 			; <UNDEFINED> instruction: 0x200011bc
 8006e6c:	20001354 	andcs	r1, r0, r4, asr r3

08006e70 <f_stat.constprop.12>:
 8006e70:	b5f0      	push	{r4, r5, r6, r7, lr}
 8006e72:	4b54      	ldr	r3, [pc, #336]	; (8006fc4 <f_stat.constprop.12+0x154>)
 8006e74:	f5ad 7d0f 	sub.w	sp, sp, #572	; 0x23c
 8006e78:	a801      	add	r0, sp, #4
 8006e7a:	a905      	add	r1, sp, #20
 8006e7c:	2200      	movs	r2, #0
 8006e7e:	9301      	str	r3, [sp, #4]
 8006e80:	f7fb fda0 	bl	80029c4 <chk_mounted.lto_priv.33>
 8006e84:	2800      	cmp	r0, #0
 8006e86:	f040 809a 	bne.w	8006fbe <f_stat.constprop.12+0x14e>
 8006e8a:	ab02      	add	r3, sp, #8
 8006e8c:	930b      	str	r3, [sp, #44]	; 0x2c
 8006e8e:	a805      	add	r0, sp, #20
 8006e90:	ab0e      	add	r3, sp, #56	; 0x38
 8006e92:	9901      	ldr	r1, [sp, #4]
 8006e94:	930c      	str	r3, [sp, #48]	; 0x30
 8006e96:	f7fc f877 	bl	8002f88 <follow_path.lto_priv.34>
 8006e9a:	2800      	cmp	r0, #0
 8006e9c:	f040 808f 	bne.w	8006fbe <f_stat.constprop.12+0x14e>
 8006ea0:	9b0a      	ldr	r3, [sp, #40]	; 0x28
 8006ea2:	2b00      	cmp	r3, #0
 8006ea4:	f000 808a 	beq.w	8006fbc <f_stat.constprop.12+0x14c>
 8006ea8:	9d09      	ldr	r5, [sp, #36]	; 0x24
 8006eaa:	2d00      	cmp	r5, #0
 8006eac:	d04e      	beq.n	8006f4c <f_stat.constprop.12+0xdc>
 8006eae:	7b1e      	ldrb	r6, [r3, #12]
 8006eb0:	4a45      	ldr	r2, [pc, #276]	; (8006fc8 <f_stat.constprop.12+0x158>)
 8006eb2:	1e5c      	subs	r4, r3, #1
 8006eb4:	f814 1f01 	ldrb.w	r1, [r4, #1]!
 8006eb8:	2920      	cmp	r1, #32
 8006eba:	d00f      	beq.n	8006edc <f_stat.constprop.12+0x6c>
 8006ebc:	2905      	cmp	r1, #5
 8006ebe:	bf08      	it	eq
 8006ec0:	21e5      	moveq	r1, #229	; 0xe5
 8006ec2:	0737      	lsls	r7, r6, #28
 8006ec4:	d505      	bpl.n	8006ed2 <f_stat.constprop.12+0x62>
 8006ec6:	f1a1 0741 	sub.w	r7, r1, #65	; 0x41
 8006eca:	2f19      	cmp	r7, #25
 8006ecc:	bf9c      	itt	ls
 8006ece:	3120      	addls	r1, #32
 8006ed0:	b2c9      	uxtbls	r1, r1
 8006ed2:	f802 1b01 	strb.w	r1, [r2], #1
 8006ed6:	493d      	ldr	r1, [pc, #244]	; (8006fcc <f_stat.constprop.12+0x15c>)
 8006ed8:	428a      	cmp	r2, r1
 8006eda:	d1eb      	bne.n	8006eb4 <f_stat.constprop.12+0x44>
 8006edc:	7a19      	ldrb	r1, [r3, #8]
 8006ede:	2920      	cmp	r1, #32
 8006ee0:	d017      	beq.n	8006f12 <f_stat.constprop.12+0xa2>
 8006ee2:	4614      	mov	r4, r2
 8006ee4:	212e      	movs	r1, #46	; 0x2e
 8006ee6:	f804 1b04 	strb.w	r1, [r4], #4
 8006eea:	1ddf      	adds	r7, r3, #7
 8006eec:	3201      	adds	r2, #1
 8006eee:	f817 1f01 	ldrb.w	r1, [r7, #1]!
 8006ef2:	2920      	cmp	r1, #32
 8006ef4:	d00d      	beq.n	8006f12 <f_stat.constprop.12+0xa2>
 8006ef6:	f016 0f10 	tst.w	r6, #16
 8006efa:	d006      	beq.n	8006f0a <f_stat.constprop.12+0x9a>
 8006efc:	f1a1 0e41 	sub.w	lr, r1, #65	; 0x41
 8006f00:	f1be 0f19 	cmp.w	lr, #25
 8006f04:	bf9c      	itt	ls
 8006f06:	3120      	addls	r1, #32
 8006f08:	b2c9      	uxtbls	r1, r1
 8006f0a:	f802 1b01 	strb.w	r1, [r2], #1
 8006f0e:	42a2      	cmp	r2, r4
 8006f10:	d1ed      	bne.n	8006eee <f_stat.constprop.12+0x7e>
 8006f12:	4e2f      	ldr	r6, [pc, #188]	; (8006fd0 <f_stat.constprop.12+0x160>)
 8006f14:	7ad9      	ldrb	r1, [r3, #11]
 8006f16:	7fdc      	ldrb	r4, [r3, #31]
 8006f18:	f886 13a0 	strb.w	r1, [r6, #928]	; 0x3a0
 8006f1c:	7f99      	ldrb	r1, [r3, #30]
 8006f1e:	0409      	lsls	r1, r1, #16
 8006f20:	ea41 6104 	orr.w	r1, r1, r4, lsl #24
 8006f24:	7f1c      	ldrb	r4, [r3, #28]
 8006f26:	4321      	orrs	r1, r4
 8006f28:	7f5c      	ldrb	r4, [r3, #29]
 8006f2a:	ea41 2104 	orr.w	r1, r1, r4, lsl #8
 8006f2e:	f8c6 1398 	str.w	r1, [r6, #920]	; 0x398
 8006f32:	7e5c      	ldrb	r4, [r3, #25]
 8006f34:	7e19      	ldrb	r1, [r3, #24]
 8006f36:	ea41 2104 	orr.w	r1, r1, r4, lsl #8
 8006f3a:	f8a6 139c 	strh.w	r1, [r6, #924]	; 0x39c
 8006f3e:	7dd9      	ldrb	r1, [r3, #23]
 8006f40:	7d9b      	ldrb	r3, [r3, #22]
 8006f42:	ea43 2301 	orr.w	r3, r3, r1, lsl #8
 8006f46:	f8a6 339e 	strh.w	r3, [r6, #926]	; 0x39e
 8006f4a:	e000      	b.n	8006f4e <f_stat.constprop.12+0xde>
 8006f4c:	4a1e      	ldr	r2, [pc, #120]	; (8006fc8 <f_stat.constprop.12+0x158>)
 8006f4e:	2300      	movs	r3, #0
 8006f50:	4e1f      	ldr	r6, [pc, #124]	; (8006fd0 <f_stat.constprop.12+0x160>)
 8006f52:	7013      	strb	r3, [r2, #0]
 8006f54:	f8d6 73b0 	ldr.w	r7, [r6, #944]	; 0x3b0
 8006f58:	b38f      	cbz	r7, 8006fbe <f_stat.constprop.12+0x14e>
 8006f5a:	f8d6 23b4 	ldr.w	r2, [r6, #948]	; 0x3b4
 8006f5e:	b372      	cbz	r2, 8006fbe <f_stat.constprop.12+0x14e>
 8006f60:	b90d      	cbnz	r5, 8006f66 <f_stat.constprop.12+0xf6>
 8006f62:	2300      	movs	r3, #0
 8006f64:	e027      	b.n	8006fb6 <f_stat.constprop.12+0x146>
 8006f66:	f64f 72ff 	movw	r2, #65535	; 0xffff
 8006f6a:	f8bd 1034 	ldrh.w	r1, [sp, #52]	; 0x34
 8006f6e:	4291      	cmp	r1, r2
 8006f70:	d0f7      	beq.n	8006f62 <f_stat.constprop.12+0xf2>
 8006f72:	f8dd e030 	ldr.w	lr, [sp, #48]	; 0x30
 8006f76:	1e7d      	subs	r5, r7, #1
 8006f78:	f83e 1013 	ldrh.w	r1, [lr, r3, lsl #1]
 8006f7c:	b1d9      	cbz	r1, 8006fb6 <f_stat.constprop.12+0x146>
 8006f7e:	297f      	cmp	r1, #127	; 0x7f
 8006f80:	d910      	bls.n	8006fa4 <f_stat.constprop.12+0x134>
 8006f82:	2200      	movs	r2, #0
 8006f84:	f8df c04c 	ldr.w	ip, [pc, #76]	; 8006fd4 <f_stat.constprop.12+0x164>
 8006f88:	b294      	uxth	r4, r2
 8006f8a:	f83c c012 	ldrh.w	ip, [ip, r2, lsl #1]
 8006f8e:	458c      	cmp	ip, r1
 8006f90:	d003      	beq.n	8006f9a <f_stat.constprop.12+0x12a>
 8006f92:	3201      	adds	r2, #1
 8006f94:	2a80      	cmp	r2, #128	; 0x80
 8006f96:	d1f5      	bne.n	8006f84 <f_stat.constprop.12+0x114>
 8006f98:	4614      	mov	r4, r2
 8006f9a:	f104 0180 	add.w	r1, r4, #128	; 0x80
 8006f9e:	f011 01ff 	ands.w	r1, r1, #255	; 0xff
 8006fa2:	d0de      	beq.n	8006f62 <f_stat.constprop.12+0xf2>
 8006fa4:	f8d6 23b4 	ldr.w	r2, [r6, #948]	; 0x3b4
 8006fa8:	3a01      	subs	r2, #1
 8006faa:	4293      	cmp	r3, r2
 8006fac:	d2d9      	bcs.n	8006f62 <f_stat.constprop.12+0xf2>
 8006fae:	3301      	adds	r3, #1
 8006fb0:	f805 1f01 	strb.w	r1, [r5, #1]!
 8006fb4:	e7e0      	b.n	8006f78 <f_stat.constprop.12+0x108>
 8006fb6:	2200      	movs	r2, #0
 8006fb8:	54fa      	strb	r2, [r7, r3]
 8006fba:	e000      	b.n	8006fbe <f_stat.constprop.12+0x14e>
 8006fbc:	2006      	movs	r0, #6
 8006fbe:	f50d 7d0f 	add.w	sp, sp, #572	; 0x23c
 8006fc2:	bdf0      	pop	{r4, r5, r6, r7, pc}
 8006fc4:	0800a7e4 	stmdaeq	r0, {r2, r5, r6, r7, r8, r9, sl, sp, pc}
 8006fc8:	2000155d 	andcs	r1, r0, sp, asr r5
 8006fcc:	20001565 	andcs	r1, r0, r5, ror #10
 8006fd0:	200011bc 			; <UNDEFINED> instruction: 0x200011bc
 8006fd4:	0800a64e 	stmdaeq	r0, {r1, r2, r3, r6, r9, sl, sp, pc}

08006fd8 <f_puts.constprop.10>:
 8006fd8:	b537      	push	{r0, r1, r2, r4, r5, lr}
 8006fda:	4605      	mov	r5, r0
 8006fdc:	4604      	mov	r4, r0
 8006fde:	1b60      	subs	r0, r4, r5
 8006fe0:	f814 3b01 	ldrb.w	r3, [r4], #1
 8006fe4:	b163      	cbz	r3, 8007000 <f_puts.constprop.10+0x28>
 8006fe6:	a902      	add	r1, sp, #8
 8006fe8:	f801 3d08 	strb.w	r3, [r1, #-8]!
 8006fec:	4805      	ldr	r0, [pc, #20]	; (8007004 <f_puts.constprop.10+0x2c>)
 8006fee:	ab01      	add	r3, sp, #4
 8006ff0:	2201      	movs	r2, #1
 8006ff2:	f7fc ff34 	bl	8003e5e <f_write>
 8006ff6:	9b01      	ldr	r3, [sp, #4]
 8006ff8:	2b01      	cmp	r3, #1
 8006ffa:	d0f0      	beq.n	8006fde <f_puts.constprop.10+0x6>
 8006ffc:	f04f 30ff 	mov.w	r0, #4294967295
 8007000:	b003      	add	sp, #12
 8007002:	bd30      	pop	{r4, r5, pc}
 8007004:	20001330 	andcs	r1, r0, r0, lsr r3

08007008 <wave_terminate.constprop.6>:
 8007008:	b537      	push	{r0, r1, r2, r4, r5, lr}
 800700a:	4d1d      	ldr	r5, [pc, #116]	; (8007080 <wave_terminate.constprop.6+0x78>)
 800700c:	f505 706e 	add.w	r0, r5, #952	; 0x3b8
 8007010:	f7fc fe5a 	bl	8003cc8 <f_sync>
 8007014:	f505 706e 	add.w	r0, r5, #952	; 0x3b8
 8007018:	f7fc fd71 	bl	8003afe <f_truncate>
 800701c:	f8d5 43c4 	ldr.w	r4, [r5, #964]	; 0x3c4
 8007020:	07e3      	lsls	r3, r4, #31
 8007022:	d50b      	bpl.n	800703c <wave_terminate.constprop.6+0x34>
 8007024:	2300      	movs	r3, #0
 8007026:	f88d 3004 	strb.w	r3, [sp, #4]
 800702a:	f505 706e 	add.w	r0, r5, #952	; 0x3b8
 800702e:	a901      	add	r1, sp, #4
 8007030:	2201      	movs	r2, #1
 8007032:	466b      	mov	r3, sp
 8007034:	f7fc ff13 	bl	8003e5e <f_write>
 8007038:	1c65      	adds	r5, r4, #1
 800703a:	e000      	b.n	800703e <wave_terminate.constprop.6+0x36>
 800703c:	4625      	mov	r5, r4
 800703e:	2104      	movs	r1, #4
 8007040:	4810      	ldr	r0, [pc, #64]	; (8007084 <wave_terminate.constprop.6+0x7c>)
 8007042:	f7fc fda2 	bl	8003b8a <f_lseek>
 8007046:	3d08      	subs	r5, #8
 8007048:	466b      	mov	r3, sp
 800704a:	a901      	add	r1, sp, #4
 800704c:	2204      	movs	r2, #4
 800704e:	480d      	ldr	r0, [pc, #52]	; (8007084 <wave_terminate.constprop.6+0x7c>)
 8007050:	9501      	str	r5, [sp, #4]
 8007052:	f7fc ff04 	bl	8003e5e <f_write>
 8007056:	2128      	movs	r1, #40	; 0x28
 8007058:	480a      	ldr	r0, [pc, #40]	; (8007084 <wave_terminate.constprop.6+0x7c>)
 800705a:	f7fc fd96 	bl	8003b8a <f_lseek>
 800705e:	3c2c      	subs	r4, #44	; 0x2c
 8007060:	a901      	add	r1, sp, #4
 8007062:	2204      	movs	r2, #4
 8007064:	466b      	mov	r3, sp
 8007066:	4807      	ldr	r0, [pc, #28]	; (8007084 <wave_terminate.constprop.6+0x7c>)
 8007068:	9401      	str	r4, [sp, #4]
 800706a:	f7fc fef8 	bl	8003e5e <f_write>
 800706e:	4805      	ldr	r0, [pc, #20]	; (8007084 <wave_terminate.constprop.6+0x7c>)
 8007070:	f7fc fe2a 	bl	8003cc8 <f_sync>
 8007074:	4803      	ldr	r0, [pc, #12]	; (8007084 <wave_terminate.constprop.6+0x7c>)
 8007076:	f7fc feeb 	bl	8003e50 <f_close>
 800707a:	b003      	add	sp, #12
 800707c:	bd30      	pop	{r4, r5, pc}
 800707e:	bf00      	nop
 8007080:	200011bc 			; <UNDEFINED> instruction: 0x200011bc
 8007084:	20001574 	andcs	r1, r0, r4, ror r5

08007088 <Bytes_In_DMA_Buffer.constprop.3>:
 8007088:	b538      	push	{r3, r4, r5, lr}
 800708a:	4d0b      	ldr	r5, [pc, #44]	; (80070b8 <Bytes_In_DMA_Buffer.constprop.3+0x30>)
 800708c:	480b      	ldr	r0, [pc, #44]	; (80070bc <Bytes_In_DMA_Buffer.constprop.3+0x34>)
 800708e:	f8b5 416c 	ldrh.w	r4, [r5, #364]	; 0x16c
 8007092:	f8b5 316a 	ldrh.w	r3, [r5, #362]	; 0x16a
 8007096:	b2a2      	uxth	r2, r4
 8007098:	b29b      	uxth	r3, r3
 800709a:	1ad4      	subs	r4, r2, r3
 800709c:	f001 fc07 	bl	80088ae <DMA_GetCurrDataCounter>
 80070a0:	f8b5 216c 	ldrh.w	r2, [r5, #364]	; 0x16c
 80070a4:	b200      	sxth	r0, r0
 80070a6:	1a23      	subs	r3, r4, r0
 80070a8:	b292      	uxth	r2, r2
 80070aa:	fb93 f0f2 	sdiv	r0, r3, r2
 80070ae:	fb02 3010 	mls	r0, r2, r0, r3
 80070b2:	b200      	sxth	r0, r0
 80070b4:	bd38      	pop	{r3, r4, r5, pc}
 80070b6:	bf00      	nop
 80070b8:	200011bc 			; <UNDEFINED> instruction: 0x200011bc
 80070bc:	4002006c 	andmi	r0, r2, ip, rrx

080070c0 <__gps_send_char>:
 80070c0:	4601      	mov	r1, r0
 80070c2:	b508      	push	{r3, lr}
 80070c4:	4804      	ldr	r0, [pc, #16]	; (80070d8 <__gps_send_char+0x18>)
 80070c6:	f002 f8e5 	bl	8009294 <USART_SendData>
 80070ca:	4803      	ldr	r0, [pc, #12]	; (80070d8 <__gps_send_char+0x18>)
 80070cc:	2180      	movs	r1, #128	; 0x80
 80070ce:	f002 f8e9 	bl	80092a4 <USART_GetFlagStatus>
 80070d2:	2800      	cmp	r0, #0
 80070d4:	d0f9      	beq.n	80070ca <__gps_send_char+0xa>
 80070d6:	bd08      	pop	{r3, pc}
 80070d8:	40004400 	andmi	r4, r0, r0, lsl #8

080070dc <USART1_IRQHandler>:
 80070dc:	b508      	push	{r3, lr}
 80070de:	480a      	ldr	r0, [pc, #40]	; (8007108 <USART1_IRQHandler+0x2c>)
 80070e0:	f240 5125 	movw	r1, #1317	; 0x525
 80070e4:	f002 f8e4 	bl	80092b0 <USART_GetITStatus>
 80070e8:	b120      	cbz	r0, 80070f4 <USART1_IRQHandler+0x18>
 80070ea:	4807      	ldr	r0, [pc, #28]	; (8007108 <USART1_IRQHandler+0x2c>)
 80070ec:	f240 5125 	movw	r1, #1317	; 0x525
 80070f0:	f002 f8fd 	bl	80092ee <USART_ClearITPendingBit>
 80070f4:	4804      	ldr	r0, [pc, #16]	; (8007108 <USART1_IRQHandler+0x2c>)
 80070f6:	f002 f8d1 	bl	800929c <USART_ReceiveData>
 80070fa:	e8bd 4008 	ldmia.w	sp!, {r3, lr}
 80070fe:	b2c0      	uxtb	r0, r0
 8007100:	4902      	ldr	r1, [pc, #8]	; (800710c <USART1_IRQHandler+0x30>)
 8007102:	f000 b9a3 	b.w	800744c <Add_To_Buffer>
 8007106:	bf00      	nop
 8007108:	40013800 	andmi	r3, r1, r0, lsl #16
 800710c:	20001798 	mulcs	r0, r8, r7

08007110 <Resume_Init>:
 8007110:	f64f 72fb 	movw	r2, #65531	; 0xfffb
 8007114:	4b07      	ldr	r3, [pc, #28]	; (8007134 <Resume_Init+0x24>)
 8007116:	6819      	ldr	r1, [r3, #0]
 8007118:	400a      	ands	r2, r1
 800711a:	601a      	str	r2, [r3, #0]
 800711c:	4a06      	ldr	r2, [pc, #24]	; (8007138 <Resume_Init+0x28>)
 800711e:	7a91      	ldrb	r1, [r2, #10]
 8007120:	4a06      	ldr	r2, [pc, #24]	; (800713c <Resume_Init+0x2c>)
 8007122:	b109      	cbz	r1, 8007128 <Resume_Init+0x18>
 8007124:	2105      	movs	r1, #5
 8007126:	e000      	b.n	800712a <Resume_Init+0x1a>
 8007128:	2101      	movs	r1, #1
 800712a:	6011      	str	r1, [r2, #0]
 800712c:	f44f 421f 	mov.w	r2, #40704	; 0x9f00
 8007130:	601a      	str	r2, [r3, #0]
 8007132:	4770      	bx	lr
 8007134:	40005c40 	andmi	r5, r0, r0, asr #24
 8007138:	200018b4 			; <UNDEFINED> instruction: 0x200018b4
 800713c:	20001850 	andcs	r1, r0, r0, asr r8

08007140 <Get_Max_Lun>:
 8007140:	b920      	cbnz	r0, 800714c <Get_Max_Lun+0xc>
 8007142:	4b03      	ldr	r3, [pc, #12]	; (8007150 <Get_Max_Lun+0x10>)
 8007144:	2201      	movs	r2, #1
 8007146:	681b      	ldr	r3, [r3, #0]
 8007148:	821a      	strh	r2, [r3, #16]
 800714a:	4770      	bx	lr
 800714c:	4801      	ldr	r0, [pc, #4]	; (8007154 <Get_Max_Lun+0x14>)
 800714e:	4770      	bx	lr
 8007150:	200018d4 	ldrdcs	r1, [r0], -r4
 8007154:	20001860 	andcs	r1, r0, r0, ror #16

08007158 <MASS_Get_Interface_Setting>:
 8007158:	b921      	cbnz	r1, 8007164 <MASS_Get_Interface_Setting+0xc>
 800715a:	2800      	cmp	r0, #0
 800715c:	bf14      	ite	ne
 800715e:	2002      	movne	r0, #2
 8007160:	2000      	moveq	r0, #0
 8007162:	4770      	bx	lr
 8007164:	2002      	movs	r0, #2
 8007166:	4770      	bx	lr

08007168 <MASS_Data_Setup>:
 8007168:	4b0b      	ldr	r3, [pc, #44]	; (8007198 <MASS_Data_Setup+0x30>)
 800716a:	681b      	ldr	r3, [r3, #0]
 800716c:	781a      	ldrb	r2, [r3, #0]
 800716e:	f002 027f 	and.w	r2, r2, #127	; 0x7f
 8007172:	2a21      	cmp	r2, #33	; 0x21
 8007174:	d10d      	bne.n	8007192 <MASS_Data_Setup+0x2a>
 8007176:	28fe      	cmp	r0, #254	; 0xfe
 8007178:	d10b      	bne.n	8007192 <MASS_Data_Setup+0x2a>
 800717a:	8858      	ldrh	r0, [r3, #2]
 800717c:	b948      	cbnz	r0, 8007192 <MASS_Data_Setup+0x2a>
 800717e:	685a      	ldr	r2, [r3, #4]
 8007180:	f5b2 3f80 	cmp.w	r2, #65536	; 0x10000
 8007184:	d105      	bne.n	8007192 <MASS_Data_Setup+0x2a>
 8007186:	4a05      	ldr	r2, [pc, #20]	; (800719c <MASS_Data_Setup+0x34>)
 8007188:	8258      	strh	r0, [r3, #18]
 800718a:	619a      	str	r2, [r3, #24]
 800718c:	2201      	movs	r2, #1
 800718e:	821a      	strh	r2, [r3, #16]
 8007190:	4770      	bx	lr
 8007192:	2002      	movs	r0, #2
 8007194:	4770      	bx	lr
 8007196:	bf00      	nop
 8007198:	200018d4 	ldrdcs	r1, [r0], -r4
 800719c:	08007141 	stmdaeq	r0, {r0, r6, r8, ip, sp, lr}

080071a0 <MASS_Status_Out>:
 80071a0:	4770      	bx	lr

080071a2 <MASS_Status_In>:
 80071a2:	4770      	bx	lr

080071a4 <Mass_Storage_SetDeviceAddress>:
 80071a4:	4b01      	ldr	r3, [pc, #4]	; (80071ac <Mass_Storage_SetDeviceAddress+0x8>)
 80071a6:	2204      	movs	r2, #4
 80071a8:	601a      	str	r2, [r3, #0]
 80071aa:	4770      	bx	lr
 80071ac:	20001850 	andcs	r1, r0, r0, asr r8

080071b0 <SCSI_Address_Management>:
 80071b0:	b538      	push	{r3, r4, r5, lr}
 80071b2:	4c18      	ldr	r4, [pc, #96]	; (8007214 <SCSI_Address_Management+0x64>)
 80071b4:	441a      	add	r2, r3
 80071b6:	f854 5020 	ldr.w	r5, [r4, r0, lsl #2]
 80071ba:	42aa      	cmp	r2, r5
 80071bc:	d90c      	bls.n	80071d8 <SCSI_Address_Management+0x28>
 80071be:	292a      	cmp	r1, #42	; 0x2a
 80071c0:	d101      	bne.n	80071c6 <SCSI_Address_Management+0x16>
 80071c2:	f7fc f9db 	bl	800357c <Bot_Abort.part.2.lto_priv.54>
 80071c6:	2001      	movs	r0, #1
 80071c8:	2110      	movs	r1, #16
 80071ca:	f002 fdfd 	bl	8009dc8 <SetEPTxStatus>
 80071ce:	4b12      	ldr	r3, [pc, #72]	; (8007218 <SCSI_Address_Management+0x68>)
 80071d0:	2205      	movs	r2, #5
 80071d2:	709a      	strb	r2, [r3, #2]
 80071d4:	2221      	movs	r2, #33	; 0x21
 80071d6:	e013      	b.n	8007200 <SCSI_Address_Management+0x50>
 80071d8:	eb04 0080 	add.w	r0, r4, r0, lsl #2
 80071dc:	6a82      	ldr	r2, [r0, #40]	; 0x28
 80071de:	4353      	muls	r3, r2
 80071e0:	6922      	ldr	r2, [r4, #16]
 80071e2:	429a      	cmp	r2, r3
 80071e4:	d013      	beq.n	800720e <SCSI_Address_Management+0x5e>
 80071e6:	292a      	cmp	r1, #42	; 0x2a
 80071e8:	d102      	bne.n	80071f0 <SCSI_Address_Management+0x40>
 80071ea:	f7fc f9c7 	bl	800357c <Bot_Abort.part.2.lto_priv.54>
 80071ee:	e003      	b.n	80071f8 <SCSI_Address_Management+0x48>
 80071f0:	2001      	movs	r0, #1
 80071f2:	2110      	movs	r1, #16
 80071f4:	f002 fde8 	bl	8009dc8 <SetEPTxStatus>
 80071f8:	4b07      	ldr	r3, [pc, #28]	; (8007218 <SCSI_Address_Management+0x68>)
 80071fa:	2205      	movs	r2, #5
 80071fc:	709a      	strb	r2, [r3, #2]
 80071fe:	2224      	movs	r2, #36	; 0x24
 8007200:	2001      	movs	r0, #1
 8007202:	2100      	movs	r1, #0
 8007204:	731a      	strb	r2, [r3, #12]
 8007206:	f7fc f9c5 	bl	8003594 <Set_CSW>
 800720a:	2000      	movs	r0, #0
 800720c:	bd38      	pop	{r3, r4, r5, pc}
 800720e:	2001      	movs	r0, #1
 8007210:	bd38      	pop	{r3, r4, r5, pc}
 8007212:	bf00      	nop
 8007214:	200017a4 	andcs	r1, r0, r4, lsr #15
 8007218:	200000f8 	strdcs	r0, [r0], -r8

0800721c <Mass_Storage_ClearFeature>:
 800721c:	4b03      	ldr	r3, [pc, #12]	; (800722c <Mass_Storage_ClearFeature+0x10>)
 800721e:	689a      	ldr	r2, [r3, #8]
 8007220:	4b03      	ldr	r3, [pc, #12]	; (8007230 <Mass_Storage_ClearFeature+0x14>)
 8007222:	429a      	cmp	r2, r3
 8007224:	d001      	beq.n	800722a <Mass_Storage_ClearFeature+0xe>
 8007226:	f7fc b9a9 	b.w	800357c <Bot_Abort.part.2.lto_priv.54>
 800722a:	4770      	bx	lr
 800722c:	200017a4 	andcs	r1, r0, r4, lsr #15
 8007230:	43425355 	movtmi	r5, #9045	; 0x2355

08007234 <MASS_GetStringDescriptor>:
 8007234:	4b05      	ldr	r3, [pc, #20]	; (800724c <MASS_GetStringDescriptor+0x18>)
 8007236:	681b      	ldr	r3, [r3, #0]
 8007238:	78db      	ldrb	r3, [r3, #3]
 800723a:	2b05      	cmp	r3, #5
 800723c:	d804      	bhi.n	8007248 <MASS_GetStringDescriptor+0x14>
 800723e:	4904      	ldr	r1, [pc, #16]	; (8007250 <MASS_GetStringDescriptor+0x1c>)
 8007240:	eb01 01c3 	add.w	r1, r1, r3, lsl #3
 8007244:	f002 ba20 	b.w	8009688 <Standard_GetDescriptorData>
 8007248:	2000      	movs	r0, #0
 800724a:	4770      	bx	lr
 800724c:	200018d4 	ldrdcs	r1, [r0], -r4
 8007250:	2000010c 	andcs	r0, r0, ip, lsl #2

08007254 <MASS_GetConfigDescriptor>:
 8007254:	4901      	ldr	r1, [pc, #4]	; (800725c <MASS_GetConfigDescriptor+0x8>)
 8007256:	f002 ba17 	b.w	8009688 <Standard_GetDescriptorData>
 800725a:	bf00      	nop
 800725c:	20000134 	andcs	r0, r0, r4, lsr r1

08007260 <MASS_GetDeviceDescriptor>:
 8007260:	4901      	ldr	r1, [pc, #4]	; (8007268 <MASS_GetDeviceDescriptor+0x8>)
 8007262:	f002 ba11 	b.w	8009688 <Standard_GetDescriptorData>
 8007266:	bf00      	nop
 8007268:	2000013c 	andcs	r0, r0, ip, lsr r1

0800726c <MASS_NoData_Setup>:
 800726c:	b510      	push	{r4, lr}
 800726e:	4b0e      	ldr	r3, [pc, #56]	; (80072a8 <MASS_NoData_Setup+0x3c>)
 8007270:	681b      	ldr	r3, [r3, #0]
 8007272:	781a      	ldrb	r2, [r3, #0]
 8007274:	f002 027f 	and.w	r2, r2, #127	; 0x7f
 8007278:	2a21      	cmp	r2, #33	; 0x21
 800727a:	d112      	bne.n	80072a2 <MASS_NoData_Setup+0x36>
 800727c:	28ff      	cmp	r0, #255	; 0xff
 800727e:	d110      	bne.n	80072a2 <MASS_NoData_Setup+0x36>
 8007280:	885a      	ldrh	r2, [r3, #2]
 8007282:	b972      	cbnz	r2, 80072a2 <MASS_NoData_Setup+0x36>
 8007284:	685c      	ldr	r4, [r3, #4]
 8007286:	b964      	cbnz	r4, 80072a2 <MASS_NoData_Setup+0x36>
 8007288:	2001      	movs	r0, #1
 800728a:	f002 fe05 	bl	8009e98 <ClearDTOG_TX>
 800728e:	2002      	movs	r0, #2
 8007290:	f002 fdef 	bl	8009e72 <ClearDTOG_RX>
 8007294:	4b05      	ldr	r3, [pc, #20]	; (80072ac <MASS_NoData_Setup+0x40>)
 8007296:	4a06      	ldr	r2, [pc, #24]	; (80072b0 <MASS_NoData_Setup+0x44>)
 8007298:	f883 4030 	strb.w	r4, [r3, #48]	; 0x30
 800729c:	609a      	str	r2, [r3, #8]
 800729e:	4620      	mov	r0, r4
 80072a0:	bd10      	pop	{r4, pc}
 80072a2:	2002      	movs	r0, #2
 80072a4:	bd10      	pop	{r4, pc}
 80072a6:	bf00      	nop
 80072a8:	200018d4 	ldrdcs	r1, [r0], -r4
 80072ac:	200017a4 	andcs	r1, r0, r4, lsr #15
 80072b0:	43425355 	movtmi	r5, #9045	; 0x2355

080072b4 <Mass_Storage_SetConfiguration>:
 80072b4:	b508      	push	{r3, lr}
 80072b6:	4b09      	ldr	r3, [pc, #36]	; (80072dc <Mass_Storage_SetConfiguration+0x28>)
 80072b8:	681b      	ldr	r3, [r3, #0]
 80072ba:	7a9b      	ldrb	r3, [r3, #10]
 80072bc:	b163      	cbz	r3, 80072d8 <Mass_Storage_SetConfiguration+0x24>
 80072be:	4b08      	ldr	r3, [pc, #32]	; (80072e0 <Mass_Storage_SetConfiguration+0x2c>)
 80072c0:	2205      	movs	r2, #5
 80072c2:	2001      	movs	r0, #1
 80072c4:	601a      	str	r2, [r3, #0]
 80072c6:	f002 fde7 	bl	8009e98 <ClearDTOG_TX>
 80072ca:	2002      	movs	r0, #2
 80072cc:	f002 fdd1 	bl	8009e72 <ClearDTOG_RX>
 80072d0:	4b04      	ldr	r3, [pc, #16]	; (80072e4 <Mass_Storage_SetConfiguration+0x30>)
 80072d2:	2200      	movs	r2, #0
 80072d4:	f883 2030 	strb.w	r2, [r3, #48]	; 0x30
 80072d8:	bd08      	pop	{r3, pc}
 80072da:	bf00      	nop
 80072dc:	200018d4 	ldrdcs	r1, [r0], -r4
 80072e0:	20001850 	andcs	r1, r0, r0, asr r8
 80072e4:	200017a4 	andcs	r1, r0, r4, lsr #15

080072e8 <MASS_Reset>:
 80072e8:	b538      	push	{r3, r4, r5, lr}
 80072ea:	4b30      	ldr	r3, [pc, #192]	; (80073ac <MASS_Reset+0xc4>)
 80072ec:	2400      	movs	r4, #0
 80072ee:	729c      	strb	r4, [r3, #10]
 80072f0:	4b2f      	ldr	r3, [pc, #188]	; (80073b0 <MASS_Reset+0xc8>)
 80072f2:	22c0      	movs	r2, #192	; 0xc0
 80072f4:	681b      	ldr	r3, [r3, #0]
 80072f6:	4620      	mov	r0, r4
 80072f8:	725a      	strb	r2, [r3, #9]
 80072fa:	f002 fd4f 	bl	8009d9c <SetBTABLE>
 80072fe:	4620      	mov	r0, r4
 8007300:	f44f 7100 	mov.w	r1, #512	; 0x200
 8007304:	f002 fd52 	bl	8009dac <SetEPType>
 8007308:	4d2a      	ldr	r5, [pc, #168]	; (80073b4 <MASS_Reset+0xcc>)
 800730a:	4620      	mov	r0, r4
 800730c:	2120      	movs	r1, #32
 800730e:	f002 fd5b 	bl	8009dc8 <SetEPTxStatus>
 8007312:	4620      	mov	r0, r4
 8007314:	2118      	movs	r1, #24
 8007316:	f002 fde3 	bl	8009ee0 <SetEPRxAddr>
 800731a:	4620      	mov	r0, r4
 800731c:	f895 102c 	ldrb.w	r1, [r5, #44]	; 0x2c
 8007320:	f002 fe1c 	bl	8009f5c <SetEPRxCount>
 8007324:	2158      	movs	r1, #88	; 0x58
 8007326:	4620      	mov	r0, r4
 8007328:	f002 fdca 	bl	8009ec0 <SetEPTxAddr>
 800732c:	4620      	mov	r0, r4
 800732e:	f002 fd90 	bl	8009e52 <Clear_Status_Out>
 8007332:	4620      	mov	r0, r4
 8007334:	f002 fd7a 	bl	8009e2c <SetEPRxValid>
 8007338:	2001      	movs	r0, #1
 800733a:	4621      	mov	r1, r4
 800733c:	f002 fd36 	bl	8009dac <SetEPType>
 8007340:	2001      	movs	r0, #1
 8007342:	2198      	movs	r1, #152	; 0x98
 8007344:	f002 fdbc 	bl	8009ec0 <SetEPTxAddr>
 8007348:	2001      	movs	r0, #1
 800734a:	2120      	movs	r1, #32
 800734c:	f002 fd3c 	bl	8009dc8 <SetEPTxStatus>
 8007350:	2001      	movs	r0, #1
 8007352:	4621      	mov	r1, r4
 8007354:	f002 fd51 	bl	8009dfa <SetEPRxStatus>
 8007358:	2002      	movs	r0, #2
 800735a:	4621      	mov	r1, r4
 800735c:	f002 fd26 	bl	8009dac <SetEPType>
 8007360:	2002      	movs	r0, #2
 8007362:	21d8      	movs	r1, #216	; 0xd8
 8007364:	f002 fdbc 	bl	8009ee0 <SetEPRxAddr>
 8007368:	2002      	movs	r0, #2
 800736a:	f895 102c 	ldrb.w	r1, [r5, #44]	; 0x2c
 800736e:	f002 fdf5 	bl	8009f5c <SetEPRxCount>
 8007372:	2002      	movs	r0, #2
 8007374:	f44f 5140 	mov.w	r1, #12288	; 0x3000
 8007378:	f002 fd3f 	bl	8009dfa <SetEPRxStatus>
 800737c:	2002      	movs	r0, #2
 800737e:	4621      	mov	r1, r4
 8007380:	f002 fd22 	bl	8009dc8 <SetEPTxStatus>
 8007384:	f895 102c 	ldrb.w	r1, [r5, #44]	; 0x2c
 8007388:	4620      	mov	r0, r4
 800738a:	f002 fde7 	bl	8009f5c <SetEPRxCount>
 800738e:	4620      	mov	r0, r4
 8007390:	f002 fd4c 	bl	8009e2c <SetEPRxValid>
 8007394:	4620      	mov	r0, r4
 8007396:	f002 fb7b 	bl	8009a90 <SetDeviceAddress>
 800739a:	4b07      	ldr	r3, [pc, #28]	; (80073b8 <MASS_Reset+0xd0>)
 800739c:	2201      	movs	r2, #1
 800739e:	601a      	str	r2, [r3, #0]
 80073a0:	4b06      	ldr	r3, [pc, #24]	; (80073bc <MASS_Reset+0xd4>)
 80073a2:	4a07      	ldr	r2, [pc, #28]	; (80073c0 <MASS_Reset+0xd8>)
 80073a4:	f883 4030 	strb.w	r4, [r3, #48]	; 0x30
 80073a8:	609a      	str	r2, [r3, #8]
 80073aa:	bd38      	pop	{r3, r4, r5, pc}
 80073ac:	200018b4 			; <UNDEFINED> instruction: 0x200018b4
 80073b0:	200018d4 	ldrdcs	r1, [r0], -r4
 80073b4:	2000009c 	mulcs	r0, ip, r0
 80073b8:	20001850 	andcs	r1, r0, r0, asr r8
 80073bc:	200017a4 	andcs	r1, r0, r4, lsr #15
 80073c0:	43425355 	movtmi	r5, #9045	; 0x2355

080073c4 <MASS_init>:
 80073c4:	4b12      	ldr	r3, [pc, #72]	; (8007410 <MASS_init+0x4c>)
 80073c6:	b510      	push	{r4, lr}
 80073c8:	6818      	ldr	r0, [r3, #0]
 80073ca:	685c      	ldr	r4, [r3, #4]
 80073cc:	3308      	adds	r3, #8
 80073ce:	681b      	ldr	r3, [r3, #0]
 80073d0:	1818      	adds	r0, r3, r0
 80073d2:	d008      	beq.n	80073e6 <MASS_init+0x22>
 80073d4:	490f      	ldr	r1, [pc, #60]	; (8007414 <MASS_init+0x50>)
 80073d6:	2208      	movs	r2, #8
 80073d8:	f7fc fb36 	bl	8003a48 <IntToUnicode.lto_priv.55>
 80073dc:	4620      	mov	r0, r4
 80073de:	490e      	ldr	r1, [pc, #56]	; (8007418 <MASS_init+0x54>)
 80073e0:	2204      	movs	r2, #4
 80073e2:	f7fc fb31 	bl	8003a48 <IntToUnicode.lto_priv.55>
 80073e6:	4b0d      	ldr	r3, [pc, #52]	; (800741c <MASS_init+0x58>)
 80073e8:	2400      	movs	r4, #0
 80073ea:	681b      	ldr	r3, [r3, #0]
 80073ec:	2201      	movs	r2, #1
 80073ee:	729c      	strb	r4, [r3, #10]
 80073f0:	4b0b      	ldr	r3, [pc, #44]	; (8007420 <MASS_init+0x5c>)
 80073f2:	490c      	ldr	r1, [pc, #48]	; (8007424 <MASS_init+0x60>)
 80073f4:	601a      	str	r2, [r3, #0]
 80073f6:	4a0c      	ldr	r2, [pc, #48]	; (8007428 <MASS_init+0x64>)
 80073f8:	601c      	str	r4, [r3, #0]
 80073fa:	6014      	str	r4, [r2, #0]
 80073fc:	f44f 52e0 	mov.w	r2, #7168	; 0x1c00
 8007400:	800a      	strh	r2, [r1, #0]
 8007402:	601a      	str	r2, [r3, #0]
 8007404:	f002 fde0 	bl	8009fc8 <USB_SIL_Init>
 8007408:	4b08      	ldr	r3, [pc, #32]	; (800742c <MASS_init+0x68>)
 800740a:	601c      	str	r4, [r3, #0]
 800740c:	bd10      	pop	{r4, pc}
 800740e:	bf00      	nop
 8007410:	1ffff7e8 	svcne	0x00fff7e8
 8007414:	20000146 	andcs	r0, r0, r6, asr #2
 8007418:	20000156 	andcs	r0, r0, r6, asr r1
 800741c:	200018d4 	ldrdcs	r1, [r0], -r4
 8007420:	40005c40 	andmi	r5, r0, r0, asr #24
 8007424:	200018d8 	ldrdcs	r1, [r0], -r8
 8007428:	40005c44 	andmi	r5, r0, r4, asr #24
 800742c:	20001850 	andcs	r1, r0, r0, asr r8

08007430 <Pop_From_Buffer>:
 8007430:	4602      	mov	r2, r0
 8007432:	8843      	ldrh	r3, [r0, #2]
 8007434:	6881      	ldr	r1, [r0, #8]
 8007436:	b510      	push	{r4, lr}
 8007438:	8894      	ldrh	r4, [r2, #4]
 800743a:	f851 0023 	ldr.w	r0, [r1, r3, lsl #2]
 800743e:	3301      	adds	r3, #1
 8007440:	fb93 f1f4 	sdiv	r1, r3, r4
 8007444:	fb04 3311 	mls	r3, r4, r1, r3
 8007448:	8053      	strh	r3, [r2, #2]
 800744a:	bd10      	pop	{r4, pc}

0800744c <Add_To_Buffer>:
 800744c:	b510      	push	{r4, lr}
 800744e:	688c      	ldr	r4, [r1, #8]
 8007450:	880b      	ldrh	r3, [r1, #0]
 8007452:	b29b      	uxth	r3, r3
 8007454:	1c5a      	adds	r2, r3, #1
 8007456:	b292      	uxth	r2, r2
 8007458:	800a      	strh	r2, [r1, #0]
 800745a:	f844 0023 	str.w	r0, [r4, r3, lsl #2]
 800745e:	888b      	ldrh	r3, [r1, #4]
 8007460:	b298      	uxth	r0, r3
 8007462:	880b      	ldrh	r3, [r1, #0]
 8007464:	b29b      	uxth	r3, r3
 8007466:	fbb3 f2f0 	udiv	r2, r3, r0
 800746a:	fb00 3312 	mls	r3, r0, r2, r3
 800746e:	b29b      	uxth	r3, r3
 8007470:	800b      	strh	r3, [r1, #0]
 8007472:	880a      	ldrh	r2, [r1, #0]
 8007474:	884b      	ldrh	r3, [r1, #2]
 8007476:	b292      	uxth	r2, r2
 8007478:	b29b      	uxth	r3, r3
 800747a:	429a      	cmp	r2, r3
 800747c:	d10a      	bne.n	8007494 <Add_To_Buffer+0x48>
 800747e:	884b      	ldrh	r3, [r1, #2]
 8007480:	8888      	ldrh	r0, [r1, #4]
 8007482:	b29b      	uxth	r3, r3
 8007484:	b280      	uxth	r0, r0
 8007486:	3301      	adds	r3, #1
 8007488:	fb93 f2f0 	sdiv	r2, r3, r0
 800748c:	fb00 3312 	mls	r3, r0, r2, r3
 8007490:	b29b      	uxth	r3, r3
 8007492:	804b      	strh	r3, [r1, #2]
 8007494:	bd10      	pop	{r4, pc}
	...

08007498 <SCSI_Invalid_Cmd>:
 8007498:	b508      	push	{r3, lr}
 800749a:	4b0c      	ldr	r3, [pc, #48]	; (80074cc <SCSI_Invalid_Cmd+0x34>)
 800749c:	691a      	ldr	r2, [r3, #16]
 800749e:	b11a      	cbz	r2, 80074a8 <SCSI_Invalid_Cmd+0x10>
 80074a0:	f993 3014 	ldrsb.w	r3, [r3, #20]
 80074a4:	2b00      	cmp	r3, #0
 80074a6:	da04      	bge.n	80074b2 <SCSI_Invalid_Cmd+0x1a>
 80074a8:	2001      	movs	r0, #1
 80074aa:	2110      	movs	r1, #16
 80074ac:	f002 fc8c 	bl	8009dc8 <SetEPTxStatus>
 80074b0:	e001      	b.n	80074b6 <SCSI_Invalid_Cmd+0x1e>
 80074b2:	f7fc f863 	bl	800357c <Bot_Abort.part.2.lto_priv.54>
 80074b6:	4b06      	ldr	r3, [pc, #24]	; (80074d0 <SCSI_Invalid_Cmd+0x38>)
 80074b8:	2205      	movs	r2, #5
 80074ba:	709a      	strb	r2, [r3, #2]
 80074bc:	2220      	movs	r2, #32
 80074be:	731a      	strb	r2, [r3, #12]
 80074c0:	2001      	movs	r0, #1
 80074c2:	2100      	movs	r1, #0
 80074c4:	e8bd 4008 	ldmia.w	sp!, {r3, lr}
 80074c8:	f7fc b864 	b.w	8003594 <Set_CSW>
 80074cc:	200017a4 	andcs	r1, r0, r4, lsr #15
 80074d0:	200000f8 	strdcs	r0, [r0], -r8

080074d4 <SCSI_Write10_Cmd>:
 80074d4:	b5f8      	push	{r3, r4, r5, r6, r7, lr}
 80074d6:	4d4b      	ldr	r5, [pc, #300]	; (8007604 <SCSI_Write10_Cmd+0x130>)
 80074d8:	460e      	mov	r6, r1
 80074da:	f895 7030 	ldrb.w	r7, [r5, #48]	; 0x30
 80074de:	4613      	mov	r3, r2
 80074e0:	462c      	mov	r4, r5
 80074e2:	bb27      	cbnz	r7, 800752e <SCSI_Write10_Cmd+0x5a>
 80074e4:	7d68      	ldrb	r0, [r5, #21]
 80074e6:	212a      	movs	r1, #42	; 0x2a
 80074e8:	4632      	mov	r2, r6
 80074ea:	f7ff fe61 	bl	80071b0 <SCSI_Address_Management>
 80074ee:	2800      	cmp	r0, #0
 80074f0:	f000 8087 	beq.w	8007602 <SCSI_Write10_Cmd+0x12e>
 80074f4:	f995 3014 	ldrsb.w	r3, [r5, #20]
 80074f8:	2b00      	cmp	r3, #0
 80074fa:	db09      	blt.n	8007510 <SCSI_Write10_Cmd+0x3c>
 80074fc:	2301      	movs	r3, #1
 80074fe:	f885 3030 	strb.w	r3, [r5, #48]	; 0x30
 8007502:	2002      	movs	r0, #2
 8007504:	f44f 5140 	mov.w	r1, #12288	; 0x3000
 8007508:	e8bd 40f8 	ldmia.w	sp!, {r3, r4, r5, r6, r7, lr}
 800750c:	f002 bc75 	b.w	8009dfa <SetEPRxStatus>
 8007510:	2001      	movs	r0, #1
 8007512:	2110      	movs	r1, #16
 8007514:	f002 fc58 	bl	8009dc8 <SetEPTxStatus>
 8007518:	4b3b      	ldr	r3, [pc, #236]	; (8007608 <SCSI_Write10_Cmd+0x134>)
 800751a:	2205      	movs	r2, #5
 800751c:	709a      	strb	r2, [r3, #2]
 800751e:	2224      	movs	r2, #36	; 0x24
 8007520:	731a      	strb	r2, [r3, #12]
 8007522:	4639      	mov	r1, r7
 8007524:	e8bd 40f8 	ldmia.w	sp!, {r3, r4, r5, r6, r7, lr}
 8007528:	2001      	movs	r0, #1
 800752a:	f7fc b833 	b.w	8003594 <Set_CSW>
 800752e:	2f01      	cmp	r7, #1
 8007530:	d167      	bne.n	8007602 <SCSI_Write10_Cmd+0x12e>
 8007532:	f894 203a 	ldrb.w	r2, [r4, #58]	; 0x3a
 8007536:	6b6d      	ldr	r5, [r5, #52]	; 0x34
 8007538:	f8b4 e038 	ldrh.w	lr, [r4, #56]	; 0x38
 800753c:	b942      	cbnz	r2, 8007550 <SCSI_Write10_Cmd+0x7c>
 800753e:	eb04 0280 	add.w	r2, r4, r0, lsl #2
 8007542:	6a92      	ldr	r2, [r2, #40]	; 0x28
 8007544:	f884 703a 	strb.w	r7, [r4, #58]	; 0x3a
 8007548:	4356      	muls	r6, r2
 800754a:	4353      	muls	r3, r2
 800754c:	63e6      	str	r6, [r4, #60]	; 0x3c
 800754e:	6423      	str	r3, [r4, #64]	; 0x40
 8007550:	f894 303a 	ldrb.w	r3, [r4, #58]	; 0x3a
 8007554:	4a2b      	ldr	r2, [pc, #172]	; (8007604 <SCSI_Write10_Cmd+0x130>)
 8007556:	2b01      	cmp	r3, #1
 8007558:	d144      	bne.n	80075e4 <SCSI_Write10_Cmd+0x110>
 800755a:	2300      	movs	r3, #0
 800755c:	6453      	str	r3, [r2, #68]	; 0x44
 800755e:	3248      	adds	r2, #72	; 0x48
 8007560:	4616      	mov	r6, r2
 8007562:	f8d4 c034 	ldr.w	ip, [r4, #52]	; 0x34
 8007566:	eb0e 0705 	add.w	r7, lr, r5
 800756a:	45bc      	cmp	ip, r7
 800756c:	eba6 0102 	sub.w	r1, r6, r2
 8007570:	4b24      	ldr	r3, [pc, #144]	; (8007604 <SCSI_Write10_Cmd+0x130>)
 8007572:	d20a      	bcs.n	800758a <SCSI_Write10_Cmd+0xb6>
 8007574:	4f25      	ldr	r7, [pc, #148]	; (800760c <SCSI_Write10_Cmd+0x138>)
 8007576:	6b59      	ldr	r1, [r3, #52]	; 0x34
 8007578:	f816 cb01 	ldrb.w	ip, [r6], #1
 800757c:	683f      	ldr	r7, [r7, #0]
 800757e:	f807 c001 	strb.w	ip, [r7, r1]
 8007582:	6b59      	ldr	r1, [r3, #52]	; 0x34
 8007584:	3101      	adds	r1, #1
 8007586:	6359      	str	r1, [r3, #52]	; 0x34
 8007588:	e7eb      	b.n	8007562 <SCSI_Write10_Cmd+0x8e>
 800758a:	6c1a      	ldr	r2, [r3, #64]	; 0x40
 800758c:	6459      	str	r1, [r3, #68]	; 0x44
 800758e:	8f19      	ldrh	r1, [r3, #56]	; 0x38
 8007590:	1a52      	subs	r2, r2, r1
 8007592:	641a      	str	r2, [r3, #64]	; 0x40
 8007594:	6b5b      	ldr	r3, [r3, #52]	; 0x34
 8007596:	f5b3 5fa0 	cmp.w	r3, #5120	; 0x1400
 800759a:	d200      	bcs.n	800759e <SCSI_Write10_Cmd+0xca>
 800759c:	b9ba      	cbnz	r2, 80075ce <SCSI_Write10_Cmd+0xfa>
 800759e:	4b1b      	ldr	r3, [pc, #108]	; (800760c <SCSI_Write10_Cmd+0x138>)
 80075a0:	6be2      	ldr	r2, [r4, #60]	; 0x3c
 80075a2:	6819      	ldr	r1, [r3, #0]
 80075a4:	6b63      	ldr	r3, [r4, #52]	; 0x34
 80075a6:	b960      	cbnz	r0, 80075c2 <SCSI_Write10_Cmd+0xee>
 80075a8:	4819      	ldr	r0, [pc, #100]	; (8007610 <SCSI_Write10_Cmd+0x13c>)
 80075aa:	7805      	ldrb	r5, [r0, #0]
 80075ac:	f005 00ff 	and.w	r0, r5, #255	; 0xff
 80075b0:	2d00      	cmp	r5, #0
 80075b2:	d1f9      	bne.n	80075a8 <SCSI_Write10_Cmd+0xd4>
 80075b4:	f3c3 2347 	ubfx	r3, r3, #9, #8
 80075b8:	0a52      	lsrs	r2, r2, #9
 80075ba:	f7fd fa13 	bl	80049e4 <disk_write>
 80075be:	4b15      	ldr	r3, [pc, #84]	; (8007614 <SCSI_Write10_Cmd+0x140>)
 80075c0:	6018      	str	r0, [r3, #0]
 80075c2:	2300      	movs	r3, #0
 80075c4:	6363      	str	r3, [r4, #52]	; 0x34
 80075c6:	6be3      	ldr	r3, [r4, #60]	; 0x3c
 80075c8:	f503 53a0 	add.w	r3, r3, #5120	; 0x1400
 80075cc:	63e3      	str	r3, [r4, #60]	; 0x3c
 80075ce:	f8d4 3090 	ldr.w	r3, [r4, #144]	; 0x90
 80075d2:	8f22      	ldrh	r2, [r4, #56]	; 0x38
 80075d4:	2002      	movs	r0, #2
 80075d6:	1a9b      	subs	r3, r3, r2
 80075d8:	f44f 5140 	mov.w	r1, #12288	; 0x3000
 80075dc:	f8c4 3090 	str.w	r3, [r4, #144]	; 0x90
 80075e0:	f002 fc0b 	bl	8009dfa <SetEPRxStatus>
 80075e4:	6c23      	ldr	r3, [r4, #64]	; 0x40
 80075e6:	b123      	cbz	r3, 80075f2 <SCSI_Write10_Cmd+0x11e>
 80075e8:	4b06      	ldr	r3, [pc, #24]	; (8007604 <SCSI_Write10_Cmd+0x130>)
 80075ea:	f893 3030 	ldrb.w	r3, [r3, #48]	; 0x30
 80075ee:	2b04      	cmp	r3, #4
 80075f0:	d107      	bne.n	8007602 <SCSI_Write10_Cmd+0x12e>
 80075f2:	2500      	movs	r5, #0
 80075f4:	4628      	mov	r0, r5
 80075f6:	2101      	movs	r1, #1
 80075f8:	6365      	str	r5, [r4, #52]	; 0x34
 80075fa:	f7fb ffcb 	bl	8003594 <Set_CSW>
 80075fe:	f884 503a 	strb.w	r5, [r4, #58]	; 0x3a
 8007602:	bdf8      	pop	{r3, r4, r5, r6, r7, pc}
 8007604:	200017a4 	andcs	r1, r0, r4, lsr #15
 8007608:	200000f8 	strdcs	r0, [r0], -r8
 800760c:	20000e08 	andcs	r0, r0, r8, lsl #28
 8007610:	200010e0 	andcs	r1, r0, r0, ror #1
 8007614:	20001854 	andcs	r1, r0, r4, asr r8

08007618 <SCSI_Read10_Cmd>:
 8007618:	b5f8      	push	{r3, r4, r5, r6, r7, lr}
 800761a:	4c16      	ldr	r4, [pc, #88]	; (8007674 <SCSI_Read10_Cmd+0x5c>)
 800761c:	4607      	mov	r7, r0
 800761e:	f894 3030 	ldrb.w	r3, [r4, #48]	; 0x30
 8007622:	460e      	mov	r6, r1
 8007624:	4615      	mov	r5, r2
 8007626:	b9f3      	cbnz	r3, 8007666 <SCSI_Read10_Cmd+0x4e>
 8007628:	7d60      	ldrb	r0, [r4, #21]
 800762a:	2128      	movs	r1, #40	; 0x28
 800762c:	4632      	mov	r2, r6
 800762e:	462b      	mov	r3, r5
 8007630:	f7ff fdbe 	bl	80071b0 <SCSI_Address_Management>
 8007634:	b1e8      	cbz	r0, 8007672 <SCSI_Read10_Cmd+0x5a>
 8007636:	f994 3014 	ldrsb.w	r3, [r4, #20]
 800763a:	2b00      	cmp	r3, #0
 800763c:	da06      	bge.n	800764c <SCSI_Read10_Cmd+0x34>
 800763e:	2302      	movs	r3, #2
 8007640:	f884 3030 	strb.w	r3, [r4, #48]	; 0x30
 8007644:	4638      	mov	r0, r7
 8007646:	4631      	mov	r1, r6
 8007648:	462a      	mov	r2, r5
 800764a:	e00e      	b.n	800766a <SCSI_Read10_Cmd+0x52>
 800764c:	f7fb ff96 	bl	800357c <Bot_Abort.part.2.lto_priv.54>
 8007650:	4b09      	ldr	r3, [pc, #36]	; (8007678 <SCSI_Read10_Cmd+0x60>)
 8007652:	2205      	movs	r2, #5
 8007654:	709a      	strb	r2, [r3, #2]
 8007656:	2224      	movs	r2, #36	; 0x24
 8007658:	731a      	strb	r2, [r3, #12]
 800765a:	2001      	movs	r0, #1
 800765c:	4601      	mov	r1, r0
 800765e:	e8bd 40f8 	ldmia.w	sp!, {r3, r4, r5, r6, r7, lr}
 8007662:	f7fb bf97 	b.w	8003594 <Set_CSW>
 8007666:	2b02      	cmp	r3, #2
 8007668:	d103      	bne.n	8007672 <SCSI_Read10_Cmd+0x5a>
 800766a:	e8bd 40f8 	ldmia.w	sp!, {r3, r4, r5, r6, r7, lr}
 800766e:	f7fc b94d 	b.w	800390c <Read_Memory>
 8007672:	bdf8      	pop	{r3, r4, r5, r6, r7, pc}
 8007674:	200017a4 	andcs	r1, r0, r4, lsr #15
 8007678:	200000f8 	strdcs	r0, [r0], -r8

0800767c <Resume>:
 800767c:	b510      	push	{r4, lr}
 800767e:	4c25      	ldr	r4, [pc, #148]	; (8007714 <Resume+0x98>)
 8007680:	2807      	cmp	r0, #7
 8007682:	bf18      	it	ne
 8007684:	f884 0098 	strbne.w	r0, [r4, #152]	; 0x98
 8007688:	f894 3098 	ldrb.w	r3, [r4, #152]	; 0x98
 800768c:	2b05      	cmp	r3, #5
 800768e:	d83c      	bhi.n	800770a <Resume+0x8e>
 8007690:	e8df f003 	tbb	[pc, r3]
 8007694:	0f0a0603 	svceq	0x000a0603
 8007698:	f7ff271a 			; <UNDEFINED> instruction: 0xf7ff271a
 800769c:	fd39 e034 	ldc2	0, cr14, [r9, #-208]!	; 0xffffff30
 80076a0:	f7ff fd36 	bl	8007110 <Resume_Init>
 80076a4:	2304      	movs	r3, #4
 80076a6:	e031      	b.n	800770c <Resume+0x90>
 80076a8:	2302      	movs	r3, #2
 80076aa:	f884 3099 	strb.w	r3, [r4, #153]	; 0x99
 80076ae:	2303      	movs	r3, #3
 80076b0:	e02c      	b.n	800770c <Resume+0x90>
 80076b2:	f894 3099 	ldrb.w	r3, [r4, #153]	; 0x99
 80076b6:	3b01      	subs	r3, #1
 80076b8:	b2db      	uxtb	r3, r3
 80076ba:	f884 3099 	strb.w	r3, [r4, #153]	; 0x99
 80076be:	f894 3099 	ldrb.w	r3, [r4, #153]	; 0x99
 80076c2:	bb2b      	cbnz	r3, 8007710 <Resume+0x94>
 80076c4:	2204      	movs	r2, #4
 80076c6:	e01c      	b.n	8007702 <Resume+0x86>
 80076c8:	4a13      	ldr	r2, [pc, #76]	; (8007718 <Resume+0x9c>)
 80076ca:	6813      	ldr	r3, [r2, #0]
 80076cc:	b29b      	uxth	r3, r3
 80076ce:	f043 0310 	orr.w	r3, r3, #16
 80076d2:	6013      	str	r3, [r2, #0]
 80076d4:	2305      	movs	r3, #5
 80076d6:	f884 3098 	strb.w	r3, [r4, #152]	; 0x98
 80076da:	230a      	movs	r3, #10
 80076dc:	f884 3099 	strb.w	r3, [r4, #153]	; 0x99
 80076e0:	bd10      	pop	{r4, pc}
 80076e2:	f894 3099 	ldrb.w	r3, [r4, #153]	; 0x99
 80076e6:	3b01      	subs	r3, #1
 80076e8:	b2db      	uxtb	r3, r3
 80076ea:	f884 3099 	strb.w	r3, [r4, #153]	; 0x99
 80076ee:	f894 3099 	ldrb.w	r3, [r4, #153]	; 0x99
 80076f2:	b96b      	cbnz	r3, 8007710 <Resume+0x94>
 80076f4:	f64f 73ef 	movw	r3, #65519	; 0xffef
 80076f8:	4a07      	ldr	r2, [pc, #28]	; (8007718 <Resume+0x9c>)
 80076fa:	6811      	ldr	r1, [r2, #0]
 80076fc:	400b      	ands	r3, r1
 80076fe:	6013      	str	r3, [r2, #0]
 8007700:	2206      	movs	r2, #6
 8007702:	4b04      	ldr	r3, [pc, #16]	; (8007714 <Resume+0x98>)
 8007704:	f883 2098 	strb.w	r2, [r3, #152]	; 0x98
 8007708:	bd10      	pop	{r4, pc}
 800770a:	2306      	movs	r3, #6
 800770c:	f884 3098 	strb.w	r3, [r4, #152]	; 0x98
 8007710:	bd10      	pop	{r4, pc}
 8007712:	bf00      	nop
 8007714:	200017a4 	andcs	r1, r0, r4, lsr #15
 8007718:	40005c40 	andmi	r5, r0, r0, asr #24

0800771c <__str_print_char>:
 800771c:	b538      	push	{r3, r4, r5, lr}
 800771e:	4c0a      	ldr	r4, [pc, #40]	; (8007748 <__str_print_char+0x2c>)
 8007720:	4605      	mov	r5, r0
 8007722:	4620      	mov	r0, r4
 8007724:	f000 fc66 	bl	8007ff4 <strlen>
 8007728:	23ff      	movs	r3, #255	; 0xff
 800772a:	fbb0 f3f3 	udiv	r3, r0, r3
 800772e:	ebc3 2303 	rsb	r3, r3, r3, lsl #8
 8007732:	1ac0      	subs	r0, r0, r3
 8007734:	5425      	strb	r5, [r4, r0]
 8007736:	2300      	movs	r3, #0
 8007738:	4420      	add	r0, r4
 800773a:	7043      	strb	r3, [r0, #1]
 800773c:	4628      	mov	r0, r5
 800773e:	e8bd 4038 	ldmia.w	sp!, {r3, r4, r5, lr}
 8007742:	f7ff b849 	b.w	80067d8 <__usart_send_char>
 8007746:	bf00      	nop
 8007748:	200011bc 			; <UNDEFINED> instruction: 0x200011bc

0800774c <__fat_print_char>:
 800774c:	b507      	push	{r0, r1, r2, lr}
 800774e:	a902      	add	r1, sp, #8
 8007750:	f801 0d01 	strb.w	r0, [r1, #-1]!
 8007754:	2201      	movs	r2, #1
 8007756:	4b03      	ldr	r3, [pc, #12]	; (8007764 <__fat_print_char+0x18>)
 8007758:	4803      	ldr	r0, [pc, #12]	; (8007768 <__fat_print_char+0x1c>)
 800775a:	f7fc fb80 	bl	8003e5e <f_write>
 800775e:	b003      	add	sp, #12
 8007760:	f85d fb04 	ldr.w	pc, [sp], #4
 8007764:	20001840 	andcs	r1, r0, r0, asr #16
 8007768:	20001330 	andcs	r1, r0, r0, lsr r3

0800776c <Gps_Send_Str>:
 800776c:	b538      	push	{r3, r4, r5, lr}
 800776e:	4605      	mov	r5, r0
 8007770:	2400      	movs	r4, #0
 8007772:	b2e3      	uxtb	r3, r4
 8007774:	5ce8      	ldrb	r0, [r5, r3]
 8007776:	3401      	adds	r4, #1
 8007778:	b110      	cbz	r0, 8007780 <Gps_Send_Str+0x14>
 800777a:	f7ff fca1 	bl	80070c0 <__gps_send_char>
 800777e:	e7f8      	b.n	8007772 <Gps_Send_Str+0x6>
 8007780:	bd38      	pop	{r3, r4, r5, pc}

08007782 <Gps_Send_Utf8>:
 8007782:	b538      	push	{r3, r4, r5, lr}
 8007784:	4605      	mov	r5, r0
 8007786:	2400      	movs	r4, #0
 8007788:	782a      	ldrb	r2, [r5, #0]
 800778a:	b2a3      	uxth	r3, r4
 800778c:	429a      	cmp	r2, r3
 800778e:	f104 0401 	add.w	r4, r4, #1
 8007792:	d904      	bls.n	800779e <Gps_Send_Utf8+0x1c>
 8007794:	b2a3      	uxth	r3, r4
 8007796:	5ce8      	ldrb	r0, [r5, r3]
 8007798:	f7ff fc92 	bl	80070c0 <__gps_send_char>
 800779c:	e7f4      	b.n	8007788 <Gps_Send_Utf8+0x6>
 800779e:	bd38      	pop	{r3, r4, r5, pc}

080077a0 <Usart_Send_Str>:
 80077a0:	b538      	push	{r3, r4, r5, lr}
 80077a2:	4605      	mov	r5, r0
 80077a4:	2400      	movs	r4, #0
 80077a6:	b2a3      	uxth	r3, r4
 80077a8:	5ce8      	ldrb	r0, [r5, r3]
 80077aa:	3401      	adds	r4, #1
 80077ac:	b110      	cbz	r0, 80077b4 <Usart_Send_Str+0x14>
 80077ae:	f7ff f813 	bl	80067d8 <__usart_send_char>
 80077b2:	e7f8      	b.n	80077a6 <Usart_Send_Str+0x6>
 80077b4:	bd38      	pop	{r3, r4, r5, pc}

080077b6 <shutdown>:
 80077b6:	b508      	push	{r3, lr}
 80077b8:	2001      	movs	r0, #1
 80077ba:	f001 fa93 	bl	8008ce4 <PWR_WakeUpPinCmd>
 80077be:	e8bd 4008 	ldmia.w	sp!, {r3, lr}
 80077c2:	f001 ba95 	b.w	8008cf0 <PWR_EnterSTANDBYMode>
	...

080077c8 <Timer_GPIO_Disable>:
 80077c8:	b507      	push	{r0, r1, r2, lr}
 80077ca:	f44f 7380 	mov.w	r3, #256	; 0x100
 80077ce:	f8ad 3004 	strh.w	r3, [sp, #4]
 80077d2:	2304      	movs	r3, #4
 80077d4:	f88d 3007 	strb.w	r3, [sp, #7]
 80077d8:	4804      	ldr	r0, [pc, #16]	; (80077ec <Timer_GPIO_Disable+0x24>)
 80077da:	2303      	movs	r3, #3
 80077dc:	a901      	add	r1, sp, #4
 80077de:	f88d 3006 	strb.w	r3, [sp, #6]
 80077e2:	f001 f905 	bl	80089f0 <GPIO_Init>
 80077e6:	b003      	add	sp, #12
 80077e8:	f85d fb04 	ldr.w	pc, [sp], #4
 80077ec:	40010800 	andmi	r0, r1, r0, lsl #16

080077f0 <Timer_GPIO_Enable>:
 80077f0:	b507      	push	{r0, r1, r2, lr}
 80077f2:	f44f 7380 	mov.w	r3, #256	; 0x100
 80077f6:	f8ad 3004 	strh.w	r3, [sp, #4]
 80077fa:	2318      	movs	r3, #24
 80077fc:	f88d 3007 	strb.w	r3, [sp, #7]
 8007800:	4804      	ldr	r0, [pc, #16]	; (8007814 <Timer_GPIO_Enable+0x24>)
 8007802:	2303      	movs	r3, #3
 8007804:	a901      	add	r1, sp, #4
 8007806:	f88d 3006 	strb.w	r3, [sp, #6]
 800780a:	f001 f8f1 	bl	80089f0 <GPIO_Init>
 800780e:	b003      	add	sp, #12
 8007810:	f85d fb04 	ldr.w	pc, [sp], #4
 8007814:	40010800 	andmi	r0, r1, r0, lsl #16

08007818 <file_preallocation_control>:
 8007818:	b538      	push	{r3, r4, r5, lr}
 800781a:	6882      	ldr	r2, [r0, #8]
 800781c:	68c3      	ldr	r3, [r0, #12]
 800781e:	4604      	mov	r4, r0
 8007820:	1a9b      	subs	r3, r3, r2
 8007822:	4a0a      	ldr	r2, [pc, #40]	; (800784c <file_preallocation_control+0x34>)
 8007824:	4293      	cmp	r3, r2
 8007826:	d810      	bhi.n	800784a <file_preallocation_control+0x32>
 8007828:	f7fc fa4e 	bl	8003cc8 <f_sync>
 800782c:	68e1      	ldr	r1, [r4, #12]
 800782e:	68a5      	ldr	r5, [r4, #8]
 8007830:	f501 2174 	add.w	r1, r1, #999424	; 0xf4000
 8007834:	4620      	mov	r0, r4
 8007836:	f501 7110 	add.w	r1, r1, #576	; 0x240
 800783a:	f7fc f9a6 	bl	8003b8a <f_lseek>
 800783e:	4620      	mov	r0, r4
 8007840:	4629      	mov	r1, r5
 8007842:	e8bd 4038 	ldmia.w	sp!, {r3, r4, r5, lr}
 8007846:	f7fc b9a0 	b.w	8003b8a <f_lseek>
 800784a:	bd38      	pop	{r3, r4, r5, pc}
 800784c:	0007a11f 	andeq	sl, r7, pc, lsl r1

08007850 <detect_sensors>:
 8007850:	b538      	push	{r3, r4, r5, lr}
 8007852:	4c0b      	ldr	r4, [pc, #44]	; (8007880 <detect_sensors+0x30>)
 8007854:	2001      	movs	r0, #1
 8007856:	6825      	ldr	r5, [r4, #0]
 8007858:	f7fd fd22 	bl	80052a0 <I2C1_Request_Job>
 800785c:	4b09      	ldr	r3, [pc, #36]	; (8007884 <detect_sensors+0x34>)
 800785e:	685a      	ldr	r2, [r3, #4]
 8007860:	f042 0208 	orr.w	r2, r2, #8
 8007864:	605a      	str	r2, [r3, #4]
 8007866:	685a      	ldr	r2, [r3, #4]
 8007868:	b132      	cbz	r2, 8007878 <detect_sensors+0x28>
 800786a:	6821      	ldr	r1, [r4, #0]
 800786c:	f105 0214 	add.w	r2, r5, #20
 8007870:	4291      	cmp	r1, r2
 8007872:	d9f8      	bls.n	8007866 <detect_sensors+0x16>
 8007874:	2000      	movs	r0, #0
 8007876:	bd38      	pop	{r3, r4, r5, pc}
 8007878:	4b02      	ldr	r3, [pc, #8]	; (8007884 <detect_sensors+0x34>)
 800787a:	6898      	ldr	r0, [r3, #8]
 800787c:	b2c0      	uxtb	r0, r0
 800787e:	bd38      	pop	{r3, r4, r5, pc}
 8007880:	200012e0 	andcs	r1, r0, r0, ror #5
 8007884:	20001840 	andcs	r1, r0, r0, asr #16

08007888 <malloc>:
 8007888:	4b02      	ldr	r3, [pc, #8]	; (8007894 <malloc+0xc>)
 800788a:	4601      	mov	r1, r0
 800788c:	6818      	ldr	r0, [r3, #0]
 800788e:	f000 b803 	b.w	8007898 <_malloc_r>
 8007892:	bf00      	nop
 8007894:	200009d0 	ldrdcs	r0, [r0], -r0	; <UNPREDICTABLE>

08007898 <_malloc_r>:
 8007898:	e92d 4ff0 	stmdb	sp!, {r4, r5, r6, r7, r8, r9, sl, fp, lr}
 800789c:	f101 050b 	add.w	r5, r1, #11
 80078a0:	2d16      	cmp	r5, #22
 80078a2:	b083      	sub	sp, #12
 80078a4:	4606      	mov	r6, r0
 80078a6:	d927      	bls.n	80078f8 <_malloc_r+0x60>
 80078a8:	f035 0507 	bics.w	r5, r5, #7
 80078ac:	f100 80b6 	bmi.w	8007a1c <_malloc_r+0x184>
 80078b0:	42a9      	cmp	r1, r5
 80078b2:	f200 80b3 	bhi.w	8007a1c <_malloc_r+0x184>
 80078b6:	f000 faa3 	bl	8007e00 <__malloc_lock>
 80078ba:	f5b5 7ffc 	cmp.w	r5, #504	; 0x1f8
 80078be:	d222      	bcs.n	8007906 <_malloc_r+0x6e>
 80078c0:	4fbc      	ldr	r7, [pc, #752]	; (8007bb4 <_malloc_r+0x31c>)
 80078c2:	08e8      	lsrs	r0, r5, #3
 80078c4:	eb07 03c0 	add.w	r3, r7, r0, lsl #3
 80078c8:	68dc      	ldr	r4, [r3, #12]
 80078ca:	429c      	cmp	r4, r3
 80078cc:	f000 81bd 	beq.w	8007c4a <_malloc_r+0x3b2>
 80078d0:	6863      	ldr	r3, [r4, #4]
 80078d2:	68e1      	ldr	r1, [r4, #12]
 80078d4:	f023 0303 	bic.w	r3, r3, #3
 80078d8:	4423      	add	r3, r4
 80078da:	685a      	ldr	r2, [r3, #4]
 80078dc:	68a5      	ldr	r5, [r4, #8]
 80078de:	f042 0201 	orr.w	r2, r2, #1
 80078e2:	60e9      	str	r1, [r5, #12]
 80078e4:	4630      	mov	r0, r6
 80078e6:	608d      	str	r5, [r1, #8]
 80078e8:	605a      	str	r2, [r3, #4]
 80078ea:	f000 fa8b 	bl	8007e04 <__malloc_unlock>
 80078ee:	3408      	adds	r4, #8
 80078f0:	4620      	mov	r0, r4
 80078f2:	b003      	add	sp, #12
 80078f4:	e8bd 8ff0 	ldmia.w	sp!, {r4, r5, r6, r7, r8, r9, sl, fp, pc}
 80078f8:	2910      	cmp	r1, #16
 80078fa:	f200 808f 	bhi.w	8007a1c <_malloc_r+0x184>
 80078fe:	f000 fa7f 	bl	8007e00 <__malloc_lock>
 8007902:	2510      	movs	r5, #16
 8007904:	e7dc      	b.n	80078c0 <_malloc_r+0x28>
 8007906:	0a68      	lsrs	r0, r5, #9
 8007908:	f000 808f 	beq.w	8007a2a <_malloc_r+0x192>
 800790c:	2804      	cmp	r0, #4
 800790e:	f200 8147 	bhi.w	8007ba0 <_malloc_r+0x308>
 8007912:	09a8      	lsrs	r0, r5, #6
 8007914:	3038      	adds	r0, #56	; 0x38
 8007916:	0041      	lsls	r1, r0, #1
 8007918:	4fa6      	ldr	r7, [pc, #664]	; (8007bb4 <_malloc_r+0x31c>)
 800791a:	eb07 0181 	add.w	r1, r7, r1, lsl #2
 800791e:	68cc      	ldr	r4, [r1, #12]
 8007920:	42a1      	cmp	r1, r4
 8007922:	d106      	bne.n	8007932 <_malloc_r+0x9a>
 8007924:	e00c      	b.n	8007940 <_malloc_r+0xa8>
 8007926:	2a00      	cmp	r2, #0
 8007928:	f280 8082 	bge.w	8007a30 <_malloc_r+0x198>
 800792c:	68e4      	ldr	r4, [r4, #12]
 800792e:	42a1      	cmp	r1, r4
 8007930:	d006      	beq.n	8007940 <_malloc_r+0xa8>
 8007932:	6863      	ldr	r3, [r4, #4]
 8007934:	f023 0303 	bic.w	r3, r3, #3
 8007938:	1b5a      	subs	r2, r3, r5
 800793a:	2a0f      	cmp	r2, #15
 800793c:	ddf3      	ble.n	8007926 <_malloc_r+0x8e>
 800793e:	3801      	subs	r0, #1
 8007940:	3001      	adds	r0, #1
 8007942:	499c      	ldr	r1, [pc, #624]	; (8007bb4 <_malloc_r+0x31c>)
 8007944:	693c      	ldr	r4, [r7, #16]
 8007946:	f101 0e08 	add.w	lr, r1, #8
 800794a:	4574      	cmp	r4, lr
 800794c:	f000 8172 	beq.w	8007c34 <_malloc_r+0x39c>
 8007950:	6863      	ldr	r3, [r4, #4]
 8007952:	f023 0303 	bic.w	r3, r3, #3
 8007956:	1b5a      	subs	r2, r3, r5
 8007958:	2a0f      	cmp	r2, #15
 800795a:	f300 8158 	bgt.w	8007c0e <_malloc_r+0x376>
 800795e:	2a00      	cmp	r2, #0
 8007960:	f8c1 e014 	str.w	lr, [r1, #20]
 8007964:	f8c1 e010 	str.w	lr, [r1, #16]
 8007968:	da66      	bge.n	8007a38 <_malloc_r+0x1a0>
 800796a:	f5b3 7f00 	cmp.w	r3, #512	; 0x200
 800796e:	f080 812d 	bcs.w	8007bcc <_malloc_r+0x334>
 8007972:	08db      	lsrs	r3, r3, #3
 8007974:	eb01 08c3 	add.w	r8, r1, r3, lsl #3
 8007978:	ea4f 0ca3 	mov.w	ip, r3, asr #2
 800797c:	684a      	ldr	r2, [r1, #4]
 800797e:	2301      	movs	r3, #1
 8007980:	fa03 f30c 	lsl.w	r3, r3, ip
 8007984:	f8d8 c008 	ldr.w	ip, [r8, #8]
 8007988:	4313      	orrs	r3, r2
 800798a:	f8c4 c008 	str.w	ip, [r4, #8]
 800798e:	f8c4 800c 	str.w	r8, [r4, #12]
 8007992:	604b      	str	r3, [r1, #4]
 8007994:	f8c8 4008 	str.w	r4, [r8, #8]
 8007998:	f8cc 400c 	str.w	r4, [ip, #12]
 800799c:	1082      	asrs	r2, r0, #2
 800799e:	2401      	movs	r4, #1
 80079a0:	4094      	lsls	r4, r2
 80079a2:	429c      	cmp	r4, r3
 80079a4:	d855      	bhi.n	8007a52 <_malloc_r+0x1ba>
 80079a6:	4223      	tst	r3, r4
 80079a8:	d106      	bne.n	80079b8 <_malloc_r+0x120>
 80079aa:	f020 0003 	bic.w	r0, r0, #3
 80079ae:	0064      	lsls	r4, r4, #1
 80079b0:	4223      	tst	r3, r4
 80079b2:	f100 0004 	add.w	r0, r0, #4
 80079b6:	d0fa      	beq.n	80079ae <_malloc_r+0x116>
 80079b8:	eb07 08c0 	add.w	r8, r7, r0, lsl #3
 80079bc:	46c4      	mov	ip, r8
 80079be:	4681      	mov	r9, r0
 80079c0:	f8dc 300c 	ldr.w	r3, [ip, #12]
 80079c4:	459c      	cmp	ip, r3
 80079c6:	d107      	bne.n	80079d8 <_malloc_r+0x140>
 80079c8:	e136      	b.n	8007c38 <_malloc_r+0x3a0>
 80079ca:	2900      	cmp	r1, #0
 80079cc:	f280 8146 	bge.w	8007c5c <_malloc_r+0x3c4>
 80079d0:	68db      	ldr	r3, [r3, #12]
 80079d2:	459c      	cmp	ip, r3
 80079d4:	f000 8130 	beq.w	8007c38 <_malloc_r+0x3a0>
 80079d8:	685a      	ldr	r2, [r3, #4]
 80079da:	f022 0203 	bic.w	r2, r2, #3
 80079de:	1b51      	subs	r1, r2, r5
 80079e0:	290f      	cmp	r1, #15
 80079e2:	ddf2      	ble.n	80079ca <_malloc_r+0x132>
 80079e4:	461c      	mov	r4, r3
 80079e6:	68da      	ldr	r2, [r3, #12]
 80079e8:	f854 cf08 	ldr.w	ip, [r4, #8]!
 80079ec:	f045 0901 	orr.w	r9, r5, #1
 80079f0:	f041 0801 	orr.w	r8, r1, #1
 80079f4:	441d      	add	r5, r3
 80079f6:	f8c3 9004 	str.w	r9, [r3, #4]
 80079fa:	4630      	mov	r0, r6
 80079fc:	f8cc 200c 	str.w	r2, [ip, #12]
 8007a00:	f8c2 c008 	str.w	ip, [r2, #8]
 8007a04:	617d      	str	r5, [r7, #20]
 8007a06:	613d      	str	r5, [r7, #16]
 8007a08:	f8c5 e00c 	str.w	lr, [r5, #12]
 8007a0c:	f8c5 e008 	str.w	lr, [r5, #8]
 8007a10:	f8c5 8004 	str.w	r8, [r5, #4]
 8007a14:	5069      	str	r1, [r5, r1]
 8007a16:	f000 f9f5 	bl	8007e04 <__malloc_unlock>
 8007a1a:	e769      	b.n	80078f0 <_malloc_r+0x58>
 8007a1c:	2400      	movs	r4, #0
 8007a1e:	4620      	mov	r0, r4
 8007a20:	230c      	movs	r3, #12
 8007a22:	6033      	str	r3, [r6, #0]
 8007a24:	b003      	add	sp, #12
 8007a26:	e8bd 8ff0 	ldmia.w	sp!, {r4, r5, r6, r7, r8, r9, sl, fp, pc}
 8007a2a:	217e      	movs	r1, #126	; 0x7e
 8007a2c:	203f      	movs	r0, #63	; 0x3f
 8007a2e:	e773      	b.n	8007918 <_malloc_r+0x80>
 8007a30:	4423      	add	r3, r4
 8007a32:	685a      	ldr	r2, [r3, #4]
 8007a34:	68e1      	ldr	r1, [r4, #12]
 8007a36:	e751      	b.n	80078dc <_malloc_r+0x44>
 8007a38:	4423      	add	r3, r4
 8007a3a:	685a      	ldr	r2, [r3, #4]
 8007a3c:	4630      	mov	r0, r6
 8007a3e:	f042 0201 	orr.w	r2, r2, #1
 8007a42:	605a      	str	r2, [r3, #4]
 8007a44:	3408      	adds	r4, #8
 8007a46:	f000 f9dd 	bl	8007e04 <__malloc_unlock>
 8007a4a:	4620      	mov	r0, r4
 8007a4c:	b003      	add	sp, #12
 8007a4e:	e8bd 8ff0 	ldmia.w	sp!, {r4, r5, r6, r7, r8, r9, sl, fp, pc}
 8007a52:	68bc      	ldr	r4, [r7, #8]
 8007a54:	6863      	ldr	r3, [r4, #4]
 8007a56:	f023 0803 	bic.w	r8, r3, #3
 8007a5a:	4545      	cmp	r5, r8
 8007a5c:	d804      	bhi.n	8007a68 <_malloc_r+0x1d0>
 8007a5e:	ebc5 0308 	rsb	r3, r5, r8
 8007a62:	2b0f      	cmp	r3, #15
 8007a64:	f300 808c 	bgt.w	8007b80 <_malloc_r+0x2e8>
 8007a68:	4b53      	ldr	r3, [pc, #332]	; (8007bb8 <_malloc_r+0x320>)
 8007a6a:	f8df a15c 	ldr.w	sl, [pc, #348]	; 8007bc8 <_malloc_r+0x330>
 8007a6e:	681a      	ldr	r2, [r3, #0]
 8007a70:	f8da 3000 	ldr.w	r3, [sl]
 8007a74:	442a      	add	r2, r5
 8007a76:	3301      	adds	r3, #1
 8007a78:	eb04 0b08 	add.w	fp, r4, r8
 8007a7c:	f000 8151 	beq.w	8007d22 <_malloc_r+0x48a>
 8007a80:	f502 5280 	add.w	r2, r2, #4096	; 0x1000
 8007a84:	320f      	adds	r2, #15
 8007a86:	f422 627f 	bic.w	r2, r2, #4080	; 0xff0
 8007a8a:	f022 020f 	bic.w	r2, r2, #15
 8007a8e:	4611      	mov	r1, r2
 8007a90:	4630      	mov	r0, r6
 8007a92:	9201      	str	r2, [sp, #4]
 8007a94:	f000 f9b8 	bl	8007e08 <_sbrk_r>
 8007a98:	f1b0 3fff 	cmp.w	r0, #4294967295
 8007a9c:	4681      	mov	r9, r0
 8007a9e:	9a01      	ldr	r2, [sp, #4]
 8007aa0:	f000 80f6 	beq.w	8007c90 <_malloc_r+0x3f8>
 8007aa4:	4583      	cmp	fp, r0
 8007aa6:	f200 80f0 	bhi.w	8007c8a <_malloc_r+0x3f2>
 8007aaa:	4b44      	ldr	r3, [pc, #272]	; (8007bbc <_malloc_r+0x324>)
 8007aac:	45cb      	cmp	fp, r9
 8007aae:	6819      	ldr	r1, [r3, #0]
 8007ab0:	4411      	add	r1, r2
 8007ab2:	6019      	str	r1, [r3, #0]
 8007ab4:	f000 813e 	beq.w	8007d34 <_malloc_r+0x49c>
 8007ab8:	f8da 0000 	ldr.w	r0, [sl]
 8007abc:	f8df e108 	ldr.w	lr, [pc, #264]	; 8007bc8 <_malloc_r+0x330>
 8007ac0:	3001      	adds	r0, #1
 8007ac2:	bf1b      	ittet	ne
 8007ac4:	ebcb 0b09 	rsbne	fp, fp, r9
 8007ac8:	4459      	addne	r1, fp
 8007aca:	f8ce 9000 	streq.w	r9, [lr]
 8007ace:	6019      	strne	r1, [r3, #0]
 8007ad0:	f019 0107 	ands.w	r1, r9, #7
 8007ad4:	f000 8108 	beq.w	8007ce8 <_malloc_r+0x450>
 8007ad8:	f1c1 0008 	rsb	r0, r1, #8
 8007adc:	f5c1 5180 	rsb	r1, r1, #4096	; 0x1000
 8007ae0:	4481      	add	r9, r0
 8007ae2:	3108      	adds	r1, #8
 8007ae4:	444a      	add	r2, r9
 8007ae6:	f3c2 020b 	ubfx	r2, r2, #0, #12
 8007aea:	ebc2 0a01 	rsb	sl, r2, r1
 8007aee:	4651      	mov	r1, sl
 8007af0:	4630      	mov	r0, r6
 8007af2:	9301      	str	r3, [sp, #4]
 8007af4:	f000 f988 	bl	8007e08 <_sbrk_r>
 8007af8:	1c43      	adds	r3, r0, #1
 8007afa:	9b01      	ldr	r3, [sp, #4]
 8007afc:	f000 8128 	beq.w	8007d50 <_malloc_r+0x4b8>
 8007b00:	ebc9 0200 	rsb	r2, r9, r0
 8007b04:	4452      	add	r2, sl
 8007b06:	f042 0201 	orr.w	r2, r2, #1
 8007b0a:	6819      	ldr	r1, [r3, #0]
 8007b0c:	42bc      	cmp	r4, r7
 8007b0e:	4451      	add	r1, sl
 8007b10:	f8c7 9008 	str.w	r9, [r7, #8]
 8007b14:	6019      	str	r1, [r3, #0]
 8007b16:	f8c9 2004 	str.w	r2, [r9, #4]
 8007b1a:	f8df a0a0 	ldr.w	sl, [pc, #160]	; 8007bbc <_malloc_r+0x324>
 8007b1e:	d016      	beq.n	8007b4e <_malloc_r+0x2b6>
 8007b20:	f1b8 0f0f 	cmp.w	r8, #15
 8007b24:	f240 80e3 	bls.w	8007cee <_malloc_r+0x456>
 8007b28:	6862      	ldr	r2, [r4, #4]
 8007b2a:	f1a8 030c 	sub.w	r3, r8, #12
 8007b2e:	f023 0307 	bic.w	r3, r3, #7
 8007b32:	f002 0201 	and.w	r2, r2, #1
 8007b36:	18e0      	adds	r0, r4, r3
 8007b38:	f04f 0e05 	mov.w	lr, #5
 8007b3c:	431a      	orrs	r2, r3
 8007b3e:	2b0f      	cmp	r3, #15
 8007b40:	6062      	str	r2, [r4, #4]
 8007b42:	f8c0 e004 	str.w	lr, [r0, #4]
 8007b46:	f8c0 e008 	str.w	lr, [r0, #8]
 8007b4a:	f200 8105 	bhi.w	8007d58 <_malloc_r+0x4c0>
 8007b4e:	4b1c      	ldr	r3, [pc, #112]	; (8007bc0 <_malloc_r+0x328>)
 8007b50:	68bc      	ldr	r4, [r7, #8]
 8007b52:	681a      	ldr	r2, [r3, #0]
 8007b54:	4291      	cmp	r1, r2
 8007b56:	bf88      	it	hi
 8007b58:	6019      	strhi	r1, [r3, #0]
 8007b5a:	4b1a      	ldr	r3, [pc, #104]	; (8007bc4 <_malloc_r+0x32c>)
 8007b5c:	681a      	ldr	r2, [r3, #0]
 8007b5e:	4291      	cmp	r1, r2
 8007b60:	6862      	ldr	r2, [r4, #4]
 8007b62:	bf88      	it	hi
 8007b64:	6019      	strhi	r1, [r3, #0]
 8007b66:	f022 0203 	bic.w	r2, r2, #3
 8007b6a:	4295      	cmp	r5, r2
 8007b6c:	eba2 0305 	sub.w	r3, r2, r5
 8007b70:	d801      	bhi.n	8007b76 <_malloc_r+0x2de>
 8007b72:	2b0f      	cmp	r3, #15
 8007b74:	dc04      	bgt.n	8007b80 <_malloc_r+0x2e8>
 8007b76:	4630      	mov	r0, r6
 8007b78:	f000 f944 	bl	8007e04 <__malloc_unlock>
 8007b7c:	2400      	movs	r4, #0
 8007b7e:	e6b7      	b.n	80078f0 <_malloc_r+0x58>
 8007b80:	f045 0201 	orr.w	r2, r5, #1
 8007b84:	f043 0301 	orr.w	r3, r3, #1
 8007b88:	4425      	add	r5, r4
 8007b8a:	6062      	str	r2, [r4, #4]
 8007b8c:	4630      	mov	r0, r6
 8007b8e:	60bd      	str	r5, [r7, #8]
 8007b90:	3408      	adds	r4, #8
 8007b92:	606b      	str	r3, [r5, #4]
 8007b94:	f000 f936 	bl	8007e04 <__malloc_unlock>
 8007b98:	4620      	mov	r0, r4
 8007b9a:	b003      	add	sp, #12
 8007b9c:	e8bd 8ff0 	ldmia.w	sp!, {r4, r5, r6, r7, r8, r9, sl, fp, pc}
 8007ba0:	2814      	cmp	r0, #20
 8007ba2:	d96a      	bls.n	8007c7a <_malloc_r+0x3e2>
 8007ba4:	2854      	cmp	r0, #84	; 0x54
 8007ba6:	f200 8098 	bhi.w	8007cda <_malloc_r+0x442>
 8007baa:	0b28      	lsrs	r0, r5, #12
 8007bac:	306e      	adds	r0, #110	; 0x6e
 8007bae:	0041      	lsls	r1, r0, #1
 8007bb0:	e6b2      	b.n	8007918 <_malloc_r+0x80>
 8007bb2:	bf00      	nop
 8007bb4:	20000184 	andcs	r0, r0, r4, lsl #3
 8007bb8:	2000186c 	andcs	r1, r0, ip, ror #16
 8007bbc:	20001870 	andcs	r1, r0, r0, ror r8
 8007bc0:	20001868 	andcs	r1, r0, r8, ror #16
 8007bc4:	20001864 	andcs	r1, r0, r4, ror #16
 8007bc8:	20000590 	mulcs	r0, r0, r5
 8007bcc:	0a5a      	lsrs	r2, r3, #9
 8007bce:	2a04      	cmp	r2, #4
 8007bd0:	d956      	bls.n	8007c80 <_malloc_r+0x3e8>
 8007bd2:	2a14      	cmp	r2, #20
 8007bd4:	f200 80a7 	bhi.w	8007d26 <_malloc_r+0x48e>
 8007bd8:	325b      	adds	r2, #91	; 0x5b
 8007bda:	ea4f 0c42 	mov.w	ip, r2, lsl #1
 8007bde:	eb07 0c8c 	add.w	ip, r7, ip, lsl #2
 8007be2:	f8dc 1008 	ldr.w	r1, [ip, #8]
 8007be6:	f8df 81b0 	ldr.w	r8, [pc, #432]	; 8007d98 <_malloc_r+0x500>
 8007bea:	4561      	cmp	r1, ip
 8007bec:	f000 8085 	beq.w	8007cfa <_malloc_r+0x462>
 8007bf0:	684a      	ldr	r2, [r1, #4]
 8007bf2:	f022 0203 	bic.w	r2, r2, #3
 8007bf6:	4293      	cmp	r3, r2
 8007bf8:	d202      	bcs.n	8007c00 <_malloc_r+0x368>
 8007bfa:	6889      	ldr	r1, [r1, #8]
 8007bfc:	458c      	cmp	ip, r1
 8007bfe:	d1f7      	bne.n	8007bf0 <_malloc_r+0x358>
 8007c00:	68ca      	ldr	r2, [r1, #12]
 8007c02:	687b      	ldr	r3, [r7, #4]
 8007c04:	60e2      	str	r2, [r4, #12]
 8007c06:	60a1      	str	r1, [r4, #8]
 8007c08:	6094      	str	r4, [r2, #8]
 8007c0a:	60cc      	str	r4, [r1, #12]
 8007c0c:	e6c6      	b.n	800799c <_malloc_r+0x104>
 8007c0e:	f045 0701 	orr.w	r7, r5, #1
 8007c12:	f042 0301 	orr.w	r3, r2, #1
 8007c16:	4425      	add	r5, r4
 8007c18:	6067      	str	r7, [r4, #4]
 8007c1a:	4630      	mov	r0, r6
 8007c1c:	614d      	str	r5, [r1, #20]
 8007c1e:	610d      	str	r5, [r1, #16]
 8007c20:	f8c5 e00c 	str.w	lr, [r5, #12]
 8007c24:	f8c5 e008 	str.w	lr, [r5, #8]
 8007c28:	606b      	str	r3, [r5, #4]
 8007c2a:	50aa      	str	r2, [r5, r2]
 8007c2c:	3408      	adds	r4, #8
 8007c2e:	f000 f8e9 	bl	8007e04 <__malloc_unlock>
 8007c32:	e65d      	b.n	80078f0 <_malloc_r+0x58>
 8007c34:	684b      	ldr	r3, [r1, #4]
 8007c36:	e6b1      	b.n	800799c <_malloc_r+0x104>
 8007c38:	f109 0901 	add.w	r9, r9, #1
 8007c3c:	f019 0f03 	tst.w	r9, #3
 8007c40:	f10c 0c08 	add.w	ip, ip, #8
 8007c44:	f47f aebc 	bne.w	80079c0 <_malloc_r+0x128>
 8007c48:	e02b      	b.n	8007ca2 <_malloc_r+0x40a>
 8007c4a:	f104 0308 	add.w	r3, r4, #8
 8007c4e:	6964      	ldr	r4, [r4, #20]
 8007c50:	42a3      	cmp	r3, r4
 8007c52:	bf08      	it	eq
 8007c54:	3002      	addeq	r0, #2
 8007c56:	f43f ae74 	beq.w	8007942 <_malloc_r+0xaa>
 8007c5a:	e639      	b.n	80078d0 <_malloc_r+0x38>
 8007c5c:	461c      	mov	r4, r3
 8007c5e:	441a      	add	r2, r3
 8007c60:	6851      	ldr	r1, [r2, #4]
 8007c62:	68db      	ldr	r3, [r3, #12]
 8007c64:	f854 5f08 	ldr.w	r5, [r4, #8]!
 8007c68:	f041 0101 	orr.w	r1, r1, #1
 8007c6c:	6051      	str	r1, [r2, #4]
 8007c6e:	4630      	mov	r0, r6
 8007c70:	60eb      	str	r3, [r5, #12]
 8007c72:	609d      	str	r5, [r3, #8]
 8007c74:	f000 f8c6 	bl	8007e04 <__malloc_unlock>
 8007c78:	e63a      	b.n	80078f0 <_malloc_r+0x58>
 8007c7a:	305b      	adds	r0, #91	; 0x5b
 8007c7c:	0041      	lsls	r1, r0, #1
 8007c7e:	e64b      	b.n	8007918 <_malloc_r+0x80>
 8007c80:	099a      	lsrs	r2, r3, #6
 8007c82:	3238      	adds	r2, #56	; 0x38
 8007c84:	ea4f 0c42 	mov.w	ip, r2, lsl #1
 8007c88:	e7a9      	b.n	8007bde <_malloc_r+0x346>
 8007c8a:	42bc      	cmp	r4, r7
 8007c8c:	f43f af0d 	beq.w	8007aaa <_malloc_r+0x212>
 8007c90:	68bc      	ldr	r4, [r7, #8]
 8007c92:	6862      	ldr	r2, [r4, #4]
 8007c94:	f022 0203 	bic.w	r2, r2, #3
 8007c98:	e767      	b.n	8007b6a <_malloc_r+0x2d2>
 8007c9a:	f8d8 8000 	ldr.w	r8, [r8]
 8007c9e:	4598      	cmp	r8, r3
 8007ca0:	d177      	bne.n	8007d92 <_malloc_r+0x4fa>
 8007ca2:	f010 0f03 	tst.w	r0, #3
 8007ca6:	f1a8 0308 	sub.w	r3, r8, #8
 8007caa:	f100 30ff 	add.w	r0, r0, #4294967295
 8007cae:	d1f4      	bne.n	8007c9a <_malloc_r+0x402>
 8007cb0:	687b      	ldr	r3, [r7, #4]
 8007cb2:	ea23 0304 	bic.w	r3, r3, r4
 8007cb6:	607b      	str	r3, [r7, #4]
 8007cb8:	0064      	lsls	r4, r4, #1
 8007cba:	429c      	cmp	r4, r3
 8007cbc:	f63f aec9 	bhi.w	8007a52 <_malloc_r+0x1ba>
 8007cc0:	2c00      	cmp	r4, #0
 8007cc2:	f43f aec6 	beq.w	8007a52 <_malloc_r+0x1ba>
 8007cc6:	4223      	tst	r3, r4
 8007cc8:	4648      	mov	r0, r9
 8007cca:	f47f ae75 	bne.w	80079b8 <_malloc_r+0x120>
 8007cce:	0064      	lsls	r4, r4, #1
 8007cd0:	4223      	tst	r3, r4
 8007cd2:	f100 0004 	add.w	r0, r0, #4
 8007cd6:	d0fa      	beq.n	8007cce <_malloc_r+0x436>
 8007cd8:	e66e      	b.n	80079b8 <_malloc_r+0x120>
 8007cda:	f5b0 7faa 	cmp.w	r0, #340	; 0x154
 8007cde:	d818      	bhi.n	8007d12 <_malloc_r+0x47a>
 8007ce0:	0be8      	lsrs	r0, r5, #15
 8007ce2:	3077      	adds	r0, #119	; 0x77
 8007ce4:	0041      	lsls	r1, r0, #1
 8007ce6:	e617      	b.n	8007918 <_malloc_r+0x80>
 8007ce8:	f44f 5180 	mov.w	r1, #4096	; 0x1000
 8007cec:	e6fa      	b.n	8007ae4 <_malloc_r+0x24c>
 8007cee:	2301      	movs	r3, #1
 8007cf0:	f8c9 3004 	str.w	r3, [r9, #4]
 8007cf4:	464c      	mov	r4, r9
 8007cf6:	2200      	movs	r2, #0
 8007cf8:	e737      	b.n	8007b6a <_malloc_r+0x2d2>
 8007cfa:	f8d8 3004 	ldr.w	r3, [r8, #4]
 8007cfe:	1092      	asrs	r2, r2, #2
 8007d00:	f04f 0c01 	mov.w	ip, #1
 8007d04:	fa0c f202 	lsl.w	r2, ip, r2
 8007d08:	4313      	orrs	r3, r2
 8007d0a:	f8c8 3004 	str.w	r3, [r8, #4]
 8007d0e:	460a      	mov	r2, r1
 8007d10:	e778      	b.n	8007c04 <_malloc_r+0x36c>
 8007d12:	f240 5354 	movw	r3, #1364	; 0x554
 8007d16:	4298      	cmp	r0, r3
 8007d18:	d817      	bhi.n	8007d4a <_malloc_r+0x4b2>
 8007d1a:	0ca8      	lsrs	r0, r5, #18
 8007d1c:	307c      	adds	r0, #124	; 0x7c
 8007d1e:	0041      	lsls	r1, r0, #1
 8007d20:	e5fa      	b.n	8007918 <_malloc_r+0x80>
 8007d22:	3210      	adds	r2, #16
 8007d24:	e6b3      	b.n	8007a8e <_malloc_r+0x1f6>
 8007d26:	2a54      	cmp	r2, #84	; 0x54
 8007d28:	d81e      	bhi.n	8007d68 <_malloc_r+0x4d0>
 8007d2a:	0b1a      	lsrs	r2, r3, #12
 8007d2c:	326e      	adds	r2, #110	; 0x6e
 8007d2e:	ea4f 0c42 	mov.w	ip, r2, lsl #1
 8007d32:	e754      	b.n	8007bde <_malloc_r+0x346>
 8007d34:	f3cb 000b 	ubfx	r0, fp, #0, #12
 8007d38:	2800      	cmp	r0, #0
 8007d3a:	f47f aebd 	bne.w	8007ab8 <_malloc_r+0x220>
 8007d3e:	4442      	add	r2, r8
 8007d40:	68bb      	ldr	r3, [r7, #8]
 8007d42:	f042 0201 	orr.w	r2, r2, #1
 8007d46:	605a      	str	r2, [r3, #4]
 8007d48:	e701      	b.n	8007b4e <_malloc_r+0x2b6>
 8007d4a:	21fc      	movs	r1, #252	; 0xfc
 8007d4c:	207e      	movs	r0, #126	; 0x7e
 8007d4e:	e5e3      	b.n	8007918 <_malloc_r+0x80>
 8007d50:	2201      	movs	r2, #1
 8007d52:	f04f 0a00 	mov.w	sl, #0
 8007d56:	e6d8      	b.n	8007b0a <_malloc_r+0x272>
 8007d58:	f104 0108 	add.w	r1, r4, #8
 8007d5c:	4630      	mov	r0, r6
 8007d5e:	f000 fa43 	bl	80081e8 <_free_r>
 8007d62:	f8da 1000 	ldr.w	r1, [sl]
 8007d66:	e6f2      	b.n	8007b4e <_malloc_r+0x2b6>
 8007d68:	f5b2 7faa 	cmp.w	r2, #340	; 0x154
 8007d6c:	d804      	bhi.n	8007d78 <_malloc_r+0x4e0>
 8007d6e:	0bda      	lsrs	r2, r3, #15
 8007d70:	3277      	adds	r2, #119	; 0x77
 8007d72:	ea4f 0c42 	mov.w	ip, r2, lsl #1
 8007d76:	e732      	b.n	8007bde <_malloc_r+0x346>
 8007d78:	f240 5154 	movw	r1, #1364	; 0x554
 8007d7c:	428a      	cmp	r2, r1
 8007d7e:	d804      	bhi.n	8007d8a <_malloc_r+0x4f2>
 8007d80:	0c9a      	lsrs	r2, r3, #18
 8007d82:	327c      	adds	r2, #124	; 0x7c
 8007d84:	ea4f 0c42 	mov.w	ip, r2, lsl #1
 8007d88:	e729      	b.n	8007bde <_malloc_r+0x346>
 8007d8a:	f04f 0cfc 	mov.w	ip, #252	; 0xfc
 8007d8e:	227e      	movs	r2, #126	; 0x7e
 8007d90:	e725      	b.n	8007bde <_malloc_r+0x346>
 8007d92:	687b      	ldr	r3, [r7, #4]
 8007d94:	e790      	b.n	8007cb8 <_malloc_r+0x420>
 8007d96:	bf00      	nop
 8007d98:	20000184 	andcs	r0, r0, r4, lsl #3

08007d9c <memcmp>:
 8007d9c:	2a03      	cmp	r2, #3
 8007d9e:	b470      	push	{r4, r5, r6}
 8007da0:	d926      	bls.n	8007df0 <memcmp+0x54>
 8007da2:	ea40 0301 	orr.w	r3, r0, r1
 8007da6:	079b      	lsls	r3, r3, #30
 8007da8:	d011      	beq.n	8007dce <memcmp+0x32>
 8007daa:	7804      	ldrb	r4, [r0, #0]
 8007dac:	780d      	ldrb	r5, [r1, #0]
 8007dae:	42ac      	cmp	r4, r5
 8007db0:	d122      	bne.n	8007df8 <memcmp+0x5c>
 8007db2:	4402      	add	r2, r0
 8007db4:	1c43      	adds	r3, r0, #1
 8007db6:	e005      	b.n	8007dc4 <memcmp+0x28>
 8007db8:	f813 4b01 	ldrb.w	r4, [r3], #1
 8007dbc:	f811 5f01 	ldrb.w	r5, [r1, #1]!
 8007dc0:	42ac      	cmp	r4, r5
 8007dc2:	d119      	bne.n	8007df8 <memcmp+0x5c>
 8007dc4:	4293      	cmp	r3, r2
 8007dc6:	d1f7      	bne.n	8007db8 <memcmp+0x1c>
 8007dc8:	2000      	movs	r0, #0
 8007dca:	bc70      	pop	{r4, r5, r6}
 8007dcc:	4770      	bx	lr
 8007dce:	460c      	mov	r4, r1
 8007dd0:	4603      	mov	r3, r0
 8007dd2:	681e      	ldr	r6, [r3, #0]
 8007dd4:	6825      	ldr	r5, [r4, #0]
 8007dd6:	4618      	mov	r0, r3
 8007dd8:	42ae      	cmp	r6, r5
 8007dda:	4621      	mov	r1, r4
 8007ddc:	f103 0304 	add.w	r3, r3, #4
 8007de0:	f104 0404 	add.w	r4, r4, #4
 8007de4:	d104      	bne.n	8007df0 <memcmp+0x54>
 8007de6:	3a04      	subs	r2, #4
 8007de8:	2a03      	cmp	r2, #3
 8007dea:	4618      	mov	r0, r3
 8007dec:	4621      	mov	r1, r4
 8007dee:	d8f0      	bhi.n	8007dd2 <memcmp+0x36>
 8007df0:	2a00      	cmp	r2, #0
 8007df2:	d1da      	bne.n	8007daa <memcmp+0xe>
 8007df4:	4610      	mov	r0, r2
 8007df6:	e7e8      	b.n	8007dca <memcmp+0x2e>
 8007df8:	1b60      	subs	r0, r4, r5
 8007dfa:	bc70      	pop	{r4, r5, r6}
 8007dfc:	4770      	bx	lr
 8007dfe:	bf00      	nop

08007e00 <__malloc_lock>:
 8007e00:	4770      	bx	lr
 8007e02:	bf00      	nop

08007e04 <__malloc_unlock>:
 8007e04:	4770      	bx	lr
 8007e06:	bf00      	nop

08007e08 <_sbrk_r>:
 8007e08:	b538      	push	{r3, r4, r5, lr}
 8007e0a:	4c07      	ldr	r4, [pc, #28]	; (8007e28 <_sbrk_r+0x20>)
 8007e0c:	2300      	movs	r3, #0
 8007e0e:	4605      	mov	r5, r0
 8007e10:	4608      	mov	r0, r1
 8007e12:	6023      	str	r3, [r4, #0]
 8007e14:	f002 f95c 	bl	800a0d0 <_sbrk>
 8007e18:	1c43      	adds	r3, r0, #1
 8007e1a:	d000      	beq.n	8007e1e <_sbrk_r+0x16>
 8007e1c:	bd38      	pop	{r3, r4, r5, pc}
 8007e1e:	6823      	ldr	r3, [r4, #0]
 8007e20:	2b00      	cmp	r3, #0
 8007e22:	d0fb      	beq.n	8007e1c <_sbrk_r+0x14>
 8007e24:	602b      	str	r3, [r5, #0]
 8007e26:	bd38      	pop	{r3, r4, r5, pc}
 8007e28:	200018a0 	andcs	r1, r0, r0, lsr #17

08007e2c <strcat>:
 8007e2c:	0783      	lsls	r3, r0, #30
 8007e2e:	b510      	push	{r4, lr}
 8007e30:	4604      	mov	r4, r0
 8007e32:	d110      	bne.n	8007e56 <strcat+0x2a>
 8007e34:	6802      	ldr	r2, [r0, #0]
 8007e36:	f1a2 3301 	sub.w	r3, r2, #16843009	; 0x1010101
 8007e3a:	ea23 0302 	bic.w	r3, r3, r2
 8007e3e:	f013 3f80 	tst.w	r3, #2155905152	; 0x80808080
 8007e42:	d108      	bne.n	8007e56 <strcat+0x2a>
 8007e44:	f850 2f04 	ldr.w	r2, [r0, #4]!
 8007e48:	f1a2 3301 	sub.w	r3, r2, #16843009	; 0x1010101
 8007e4c:	ea23 0302 	bic.w	r3, r3, r2
 8007e50:	f013 3f80 	tst.w	r3, #2155905152	; 0x80808080
 8007e54:	d0f6      	beq.n	8007e44 <strcat+0x18>
 8007e56:	7803      	ldrb	r3, [r0, #0]
 8007e58:	b11b      	cbz	r3, 8007e62 <strcat+0x36>
 8007e5a:	f810 3f01 	ldrb.w	r3, [r0, #1]!
 8007e5e:	2b00      	cmp	r3, #0
 8007e60:	d1fb      	bne.n	8007e5a <strcat+0x2e>
 8007e62:	f000 f869 	bl	8007f38 <strcpy>
 8007e66:	4620      	mov	r0, r4
 8007e68:	bd10      	pop	{r4, pc}
 8007e6a:	bf00      	nop

08007e6c <strchr>:
 8007e6c:	b2c9      	uxtb	r1, r1
 8007e6e:	b470      	push	{r4, r5, r6}
 8007e70:	2900      	cmp	r1, #0
 8007e72:	d033      	beq.n	8007edc <strchr+0x70>
 8007e74:	0785      	lsls	r5, r0, #30
 8007e76:	d010      	beq.n	8007e9a <strchr+0x2e>
 8007e78:	7803      	ldrb	r3, [r0, #0]
 8007e7a:	2b00      	cmp	r3, #0
 8007e7c:	d059      	beq.n	8007f32 <strchr+0xc6>
 8007e7e:	4299      	cmp	r1, r3
 8007e80:	bf18      	it	ne
 8007e82:	1c43      	addne	r3, r0, #1
 8007e84:	d106      	bne.n	8007e94 <strchr+0x28>
 8007e86:	e027      	b.n	8007ed8 <strchr+0x6c>
 8007e88:	f813 2b01 	ldrb.w	r2, [r3], #1
 8007e8c:	2a00      	cmp	r2, #0
 8007e8e:	d04d      	beq.n	8007f2c <strchr+0xc0>
 8007e90:	4291      	cmp	r1, r2
 8007e92:	d021      	beq.n	8007ed8 <strchr+0x6c>
 8007e94:	079a      	lsls	r2, r3, #30
 8007e96:	4618      	mov	r0, r3
 8007e98:	d1f6      	bne.n	8007e88 <strchr+0x1c>
 8007e9a:	ea41 2601 	orr.w	r6, r1, r1, lsl #8
 8007e9e:	6803      	ldr	r3, [r0, #0]
 8007ea0:	ea46 4606 	orr.w	r6, r6, r6, lsl #16
 8007ea4:	e001      	b.n	8007eaa <strchr+0x3e>
 8007ea6:	f850 3f04 	ldr.w	r3, [r0, #4]!
 8007eaa:	ea83 0506 	eor.w	r5, r3, r6
 8007eae:	f1a5 3401 	sub.w	r4, r5, #16843009	; 0x1010101
 8007eb2:	f1a3 3201 	sub.w	r2, r3, #16843009	; 0x1010101
 8007eb6:	ea24 0405 	bic.w	r4, r4, r5
 8007eba:	ea22 0303 	bic.w	r3, r2, r3
 8007ebe:	4323      	orrs	r3, r4
 8007ec0:	f013 3f80 	tst.w	r3, #2155905152	; 0x80808080
 8007ec4:	d0ef      	beq.n	8007ea6 <strchr+0x3a>
 8007ec6:	7803      	ldrb	r3, [r0, #0]
 8007ec8:	b923      	cbnz	r3, 8007ed4 <strchr+0x68>
 8007eca:	e032      	b.n	8007f32 <strchr+0xc6>
 8007ecc:	f810 3f01 	ldrb.w	r3, [r0, #1]!
 8007ed0:	2b00      	cmp	r3, #0
 8007ed2:	d02e      	beq.n	8007f32 <strchr+0xc6>
 8007ed4:	4299      	cmp	r1, r3
 8007ed6:	d1f9      	bne.n	8007ecc <strchr+0x60>
 8007ed8:	bc70      	pop	{r4, r5, r6}
 8007eda:	4770      	bx	lr
 8007edc:	0784      	lsls	r4, r0, #30
 8007ede:	d00b      	beq.n	8007ef8 <strchr+0x8c>
 8007ee0:	7803      	ldrb	r3, [r0, #0]
 8007ee2:	2b00      	cmp	r3, #0
 8007ee4:	d0f8      	beq.n	8007ed8 <strchr+0x6c>
 8007ee6:	1c43      	adds	r3, r0, #1
 8007ee8:	e003      	b.n	8007ef2 <strchr+0x86>
 8007eea:	7802      	ldrb	r2, [r0, #0]
 8007eec:	3301      	adds	r3, #1
 8007eee:	2a00      	cmp	r2, #0
 8007ef0:	d0f2      	beq.n	8007ed8 <strchr+0x6c>
 8007ef2:	0799      	lsls	r1, r3, #30
 8007ef4:	4618      	mov	r0, r3
 8007ef6:	d1f8      	bne.n	8007eea <strchr+0x7e>
 8007ef8:	6802      	ldr	r2, [r0, #0]
 8007efa:	f1a2 3301 	sub.w	r3, r2, #16843009	; 0x1010101
 8007efe:	ea23 0302 	bic.w	r3, r3, r2
 8007f02:	f013 3f80 	tst.w	r3, #2155905152	; 0x80808080
 8007f06:	d108      	bne.n	8007f1a <strchr+0xae>
 8007f08:	f850 2f04 	ldr.w	r2, [r0, #4]!
 8007f0c:	f1a2 3301 	sub.w	r3, r2, #16843009	; 0x1010101
 8007f10:	ea23 0302 	bic.w	r3, r3, r2
 8007f14:	f013 3f80 	tst.w	r3, #2155905152	; 0x80808080
 8007f18:	d0f6      	beq.n	8007f08 <strchr+0x9c>
 8007f1a:	7803      	ldrb	r3, [r0, #0]
 8007f1c:	2b00      	cmp	r3, #0
 8007f1e:	d0db      	beq.n	8007ed8 <strchr+0x6c>
 8007f20:	f810 3f01 	ldrb.w	r3, [r0, #1]!
 8007f24:	2b00      	cmp	r3, #0
 8007f26:	d1fb      	bne.n	8007f20 <strchr+0xb4>
 8007f28:	bc70      	pop	{r4, r5, r6}
 8007f2a:	4770      	bx	lr
 8007f2c:	4610      	mov	r0, r2
 8007f2e:	bc70      	pop	{r4, r5, r6}
 8007f30:	4770      	bx	lr
 8007f32:	4618      	mov	r0, r3
 8007f34:	bc70      	pop	{r4, r5, r6}
 8007f36:	4770      	bx	lr

08007f38 <strcpy>:
 8007f38:	ea80 0201 	eor.w	r2, r0, r1
 8007f3c:	4684      	mov	ip, r0
 8007f3e:	f012 0f03 	tst.w	r2, #3
 8007f42:	d14f      	bne.n	8007fe4 <strcpy+0xac>
 8007f44:	f011 0f03 	tst.w	r1, #3
 8007f48:	d132      	bne.n	8007fb0 <strcpy+0x78>
 8007f4a:	f84d 4d04 	str.w	r4, [sp, #-4]!
 8007f4e:	f011 0f04 	tst.w	r1, #4
 8007f52:	f851 3b04 	ldr.w	r3, [r1], #4
 8007f56:	d00b      	beq.n	8007f70 <strcpy+0x38>
 8007f58:	f1a3 3201 	sub.w	r2, r3, #16843009	; 0x1010101
 8007f5c:	439a      	bics	r2, r3
 8007f5e:	f012 3f80 	tst.w	r2, #2155905152	; 0x80808080
 8007f62:	bf04      	itt	eq
 8007f64:	f84c 3b04 	streq.w	r3, [ip], #4
 8007f68:	f851 3b04 	ldreq.w	r3, [r1], #4
 8007f6c:	d116      	bne.n	8007f9c <strcpy+0x64>
 8007f6e:	bf00      	nop
 8007f70:	f851 4b04 	ldr.w	r4, [r1], #4
 8007f74:	f1a3 3201 	sub.w	r2, r3, #16843009	; 0x1010101
 8007f78:	439a      	bics	r2, r3
 8007f7a:	f012 3f80 	tst.w	r2, #2155905152	; 0x80808080
 8007f7e:	f1a4 3201 	sub.w	r2, r4, #16843009	; 0x1010101
 8007f82:	d10b      	bne.n	8007f9c <strcpy+0x64>
 8007f84:	f84c 3b04 	str.w	r3, [ip], #4
 8007f88:	43a2      	bics	r2, r4
 8007f8a:	f012 3f80 	tst.w	r2, #2155905152	; 0x80808080
 8007f8e:	bf04      	itt	eq
 8007f90:	f851 3b04 	ldreq.w	r3, [r1], #4
 8007f94:	f84c 4b04 	streq.w	r4, [ip], #4
 8007f98:	d0ea      	beq.n	8007f70 <strcpy+0x38>
 8007f9a:	4623      	mov	r3, r4
 8007f9c:	f80c 3b01 	strb.w	r3, [ip], #1
 8007fa0:	f013 0fff 	tst.w	r3, #255	; 0xff
 8007fa4:	ea4f 2333 	mov.w	r3, r3, ror #8
 8007fa8:	d1f8      	bne.n	8007f9c <strcpy+0x64>
 8007faa:	f85d 4b04 	ldr.w	r4, [sp], #4
 8007fae:	4770      	bx	lr
 8007fb0:	f011 0f01 	tst.w	r1, #1
 8007fb4:	d006      	beq.n	8007fc4 <strcpy+0x8c>
 8007fb6:	f811 2b01 	ldrb.w	r2, [r1], #1
 8007fba:	f80c 2b01 	strb.w	r2, [ip], #1
 8007fbe:	2a00      	cmp	r2, #0
 8007fc0:	bf08      	it	eq
 8007fc2:	4770      	bxeq	lr
 8007fc4:	f011 0f02 	tst.w	r1, #2
 8007fc8:	d0bf      	beq.n	8007f4a <strcpy+0x12>
 8007fca:	f831 2b02 	ldrh.w	r2, [r1], #2
 8007fce:	f012 0fff 	tst.w	r2, #255	; 0xff
 8007fd2:	bf16      	itet	ne
 8007fd4:	f82c 2b02 	strhne.w	r2, [ip], #2
 8007fd8:	f88c 2000 	strbeq.w	r2, [ip]
 8007fdc:	f412 4f7f 	tstne.w	r2, #65280	; 0xff00
 8007fe0:	d1b3      	bne.n	8007f4a <strcpy+0x12>
 8007fe2:	4770      	bx	lr
 8007fe4:	f811 2b01 	ldrb.w	r2, [r1], #1
 8007fe8:	f80c 2b01 	strb.w	r2, [ip], #1
 8007fec:	2a00      	cmp	r2, #0
 8007fee:	d1f9      	bne.n	8007fe4 <strcpy+0xac>
 8007ff0:	4770      	bx	lr
 8007ff2:	bf00      	nop

08007ff4 <strlen>:
 8007ff4:	f020 0103 	bic.w	r1, r0, #3
 8007ff8:	f010 0003 	ands.w	r0, r0, #3
 8007ffc:	f1c0 0000 	rsb	r0, r0, #0
 8008000:	f851 3b04 	ldr.w	r3, [r1], #4
 8008004:	f100 0c04 	add.w	ip, r0, #4
 8008008:	ea4f 0ccc 	mov.w	ip, ip, lsl #3
 800800c:	f06f 0200 	mvn.w	r2, #0
 8008010:	bf1c      	itt	ne
 8008012:	fa22 f20c 	lsrne.w	r2, r2, ip
 8008016:	4313      	orrne	r3, r2
 8008018:	f04f 0c01 	mov.w	ip, #1
 800801c:	ea4c 2c0c 	orr.w	ip, ip, ip, lsl #8
 8008020:	ea4c 4c0c 	orr.w	ip, ip, ip, lsl #16
 8008024:	eba3 020c 	sub.w	r2, r3, ip
 8008028:	ea22 0203 	bic.w	r2, r2, r3
 800802c:	ea12 12cc 	ands.w	r2, r2, ip, lsl #7
 8008030:	bf04      	itt	eq
 8008032:	f851 3b04 	ldreq.w	r3, [r1], #4
 8008036:	3004      	addeq	r0, #4
 8008038:	d0f4      	beq.n	8008024 <strlen+0x30>
 800803a:	f1c2 0100 	rsb	r1, r2, #0
 800803e:	ea02 0201 	and.w	r2, r2, r1
 8008042:	fab2 f282 	clz	r2, r2
 8008046:	f1c2 021f 	rsb	r2, r2, #31
 800804a:	eb00 00d2 	add.w	r0, r0, r2, lsr #3
 800804e:	4770      	bx	lr

08008050 <strncmp>:
 8008050:	2a00      	cmp	r2, #0
 8008052:	d03c      	beq.n	80080ce <strncmp+0x7e>
 8008054:	ea40 0301 	orr.w	r3, r0, r1
 8008058:	f013 0303 	ands.w	r3, r3, #3
 800805c:	b4f0      	push	{r4, r5, r6, r7}
 800805e:	d125      	bne.n	80080ac <strncmp+0x5c>
 8008060:	2a03      	cmp	r2, #3
 8008062:	d923      	bls.n	80080ac <strncmp+0x5c>
 8008064:	6804      	ldr	r4, [r0, #0]
 8008066:	680d      	ldr	r5, [r1, #0]
 8008068:	42ac      	cmp	r4, r5
 800806a:	d11f      	bne.n	80080ac <strncmp+0x5c>
 800806c:	3a04      	subs	r2, #4
 800806e:	d030      	beq.n	80080d2 <strncmp+0x82>
 8008070:	f1a4 3501 	sub.w	r5, r4, #16843009	; 0x1010101
 8008074:	ea25 0404 	bic.w	r4, r5, r4
 8008078:	f014 3f80 	tst.w	r4, #2155905152	; 0x80808080
 800807c:	d12c      	bne.n	80080d8 <strncmp+0x88>
 800807e:	1d07      	adds	r7, r0, #4
 8008080:	1d0d      	adds	r5, r1, #4
 8008082:	e00d      	b.n	80080a0 <strncmp+0x50>
 8008084:	f857 3b04 	ldr.w	r3, [r7], #4
 8008088:	680e      	ldr	r6, [r1, #0]
 800808a:	f1a3 3401 	sub.w	r4, r3, #16843009	; 0x1010101
 800808e:	42b3      	cmp	r3, r6
 8008090:	ea24 0403 	bic.w	r4, r4, r3
 8008094:	d10a      	bne.n	80080ac <strncmp+0x5c>
 8008096:	3a04      	subs	r2, #4
 8008098:	d01b      	beq.n	80080d2 <strncmp+0x82>
 800809a:	f014 3f80 	tst.w	r4, #2155905152	; 0x80808080
 800809e:	d11e      	bne.n	80080de <strncmp+0x8e>
 80080a0:	2a03      	cmp	r2, #3
 80080a2:	4629      	mov	r1, r5
 80080a4:	4638      	mov	r0, r7
 80080a6:	f105 0504 	add.w	r5, r5, #4
 80080aa:	d8eb      	bhi.n	8008084 <strncmp+0x34>
 80080ac:	7803      	ldrb	r3, [r0, #0]
 80080ae:	780c      	ldrb	r4, [r1, #0]
 80080b0:	3a01      	subs	r2, #1
 80080b2:	42a3      	cmp	r3, r4
 80080b4:	d108      	bne.n	80080c8 <strncmp+0x78>
 80080b6:	b162      	cbz	r2, 80080d2 <strncmp+0x82>
 80080b8:	b173      	cbz	r3, 80080d8 <strncmp+0x88>
 80080ba:	f810 3f01 	ldrb.w	r3, [r0, #1]!
 80080be:	f811 4f01 	ldrb.w	r4, [r1, #1]!
 80080c2:	3a01      	subs	r2, #1
 80080c4:	42a3      	cmp	r3, r4
 80080c6:	d0f6      	beq.n	80080b6 <strncmp+0x66>
 80080c8:	1b18      	subs	r0, r3, r4
 80080ca:	bcf0      	pop	{r4, r5, r6, r7}
 80080cc:	4770      	bx	lr
 80080ce:	4610      	mov	r0, r2
 80080d0:	4770      	bx	lr
 80080d2:	4610      	mov	r0, r2
 80080d4:	bcf0      	pop	{r4, r5, r6, r7}
 80080d6:	4770      	bx	lr
 80080d8:	4618      	mov	r0, r3
 80080da:	bcf0      	pop	{r4, r5, r6, r7}
 80080dc:	4770      	bx	lr
 80080de:	2000      	movs	r0, #0
 80080e0:	e7f3      	b.n	80080ca <strncmp+0x7a>
 80080e2:	bf00      	nop

080080e4 <strncpy>:
 80080e4:	ea40 0301 	orr.w	r3, r0, r1
 80080e8:	079b      	lsls	r3, r3, #30
 80080ea:	b470      	push	{r4, r5, r6}
 80080ec:	d12b      	bne.n	8008146 <strncpy+0x62>
 80080ee:	2a03      	cmp	r2, #3
 80080f0:	d929      	bls.n	8008146 <strncpy+0x62>
 80080f2:	460c      	mov	r4, r1
 80080f4:	4603      	mov	r3, r0
 80080f6:	4621      	mov	r1, r4
 80080f8:	f854 6b04 	ldr.w	r6, [r4], #4
 80080fc:	f1a6 3501 	sub.w	r5, r6, #16843009	; 0x1010101
 8008100:	ea25 0506 	bic.w	r5, r5, r6
 8008104:	f015 3f80 	tst.w	r5, #2155905152	; 0x80808080
 8008108:	d105      	bne.n	8008116 <strncpy+0x32>
 800810a:	3a04      	subs	r2, #4
 800810c:	2a03      	cmp	r2, #3
 800810e:	f843 6b04 	str.w	r6, [r3], #4
 8008112:	4621      	mov	r1, r4
 8008114:	d8ef      	bhi.n	80080f6 <strncpy+0x12>
 8008116:	b1a2      	cbz	r2, 8008142 <strncpy+0x5e>
 8008118:	780c      	ldrb	r4, [r1, #0]
 800811a:	3a01      	subs	r2, #1
 800811c:	701c      	strb	r4, [r3, #0]
 800811e:	3101      	adds	r1, #1
 8008120:	3301      	adds	r3, #1
 8008122:	b13c      	cbz	r4, 8008134 <strncpy+0x50>
 8008124:	b16a      	cbz	r2, 8008142 <strncpy+0x5e>
 8008126:	f811 4b01 	ldrb.w	r4, [r1], #1
 800812a:	3a01      	subs	r2, #1
 800812c:	f803 4b01 	strb.w	r4, [r3], #1
 8008130:	2c00      	cmp	r4, #0
 8008132:	d1f7      	bne.n	8008124 <strncpy+0x40>
 8008134:	b12a      	cbz	r2, 8008142 <strncpy+0x5e>
 8008136:	441a      	add	r2, r3
 8008138:	2100      	movs	r1, #0
 800813a:	f803 1b01 	strb.w	r1, [r3], #1
 800813e:	4293      	cmp	r3, r2
 8008140:	d1fb      	bne.n	800813a <strncpy+0x56>
 8008142:	bc70      	pop	{r4, r5, r6}
 8008144:	4770      	bx	lr
 8008146:	4603      	mov	r3, r0
 8008148:	e7e5      	b.n	8008116 <strncpy+0x32>
 800814a:	bf00      	nop

0800814c <_malloc_trim_r>:
 800814c:	b5f8      	push	{r3, r4, r5, r6, r7, lr}
 800814e:	460c      	mov	r4, r1
 8008150:	4f22      	ldr	r7, [pc, #136]	; (80081dc <_malloc_trim_r+0x90>)
 8008152:	4606      	mov	r6, r0
 8008154:	f7ff fe54 	bl	8007e00 <__malloc_lock>
 8008158:	68bb      	ldr	r3, [r7, #8]
 800815a:	685d      	ldr	r5, [r3, #4]
 800815c:	f025 0503 	bic.w	r5, r5, #3
 8008160:	1b29      	subs	r1, r5, r4
 8008162:	f601 71ef 	addw	r1, r1, #4079	; 0xfef
 8008166:	f421 617f 	bic.w	r1, r1, #4080	; 0xff0
 800816a:	f021 010f 	bic.w	r1, r1, #15
 800816e:	f5a1 5480 	sub.w	r4, r1, #4096	; 0x1000
 8008172:	f5b4 5f80 	cmp.w	r4, #4096	; 0x1000
 8008176:	db07      	blt.n	8008188 <_malloc_trim_r+0x3c>
 8008178:	4630      	mov	r0, r6
 800817a:	2100      	movs	r1, #0
 800817c:	f7ff fe44 	bl	8007e08 <_sbrk_r>
 8008180:	68bb      	ldr	r3, [r7, #8]
 8008182:	442b      	add	r3, r5
 8008184:	4298      	cmp	r0, r3
 8008186:	d004      	beq.n	8008192 <_malloc_trim_r+0x46>
 8008188:	4630      	mov	r0, r6
 800818a:	f7ff fe3b 	bl	8007e04 <__malloc_unlock>
 800818e:	2000      	movs	r0, #0
 8008190:	bdf8      	pop	{r3, r4, r5, r6, r7, pc}
 8008192:	4630      	mov	r0, r6
 8008194:	4261      	negs	r1, r4
 8008196:	f7ff fe37 	bl	8007e08 <_sbrk_r>
 800819a:	3001      	adds	r0, #1
 800819c:	d00d      	beq.n	80081ba <_malloc_trim_r+0x6e>
 800819e:	4b10      	ldr	r3, [pc, #64]	; (80081e0 <_malloc_trim_r+0x94>)
 80081a0:	68ba      	ldr	r2, [r7, #8]
 80081a2:	6819      	ldr	r1, [r3, #0]
 80081a4:	1b2d      	subs	r5, r5, r4
 80081a6:	f045 0501 	orr.w	r5, r5, #1
 80081aa:	4630      	mov	r0, r6
 80081ac:	1b09      	subs	r1, r1, r4
 80081ae:	6055      	str	r5, [r2, #4]
 80081b0:	6019      	str	r1, [r3, #0]
 80081b2:	f7ff fe27 	bl	8007e04 <__malloc_unlock>
 80081b6:	2001      	movs	r0, #1
 80081b8:	bdf8      	pop	{r3, r4, r5, r6, r7, pc}
 80081ba:	4630      	mov	r0, r6
 80081bc:	2100      	movs	r1, #0
 80081be:	f7ff fe23 	bl	8007e08 <_sbrk_r>
 80081c2:	68ba      	ldr	r2, [r7, #8]
 80081c4:	1a83      	subs	r3, r0, r2
 80081c6:	2b0f      	cmp	r3, #15
 80081c8:	ddde      	ble.n	8008188 <_malloc_trim_r+0x3c>
 80081ca:	4c06      	ldr	r4, [pc, #24]	; (80081e4 <_malloc_trim_r+0x98>)
 80081cc:	4904      	ldr	r1, [pc, #16]	; (80081e0 <_malloc_trim_r+0x94>)
 80081ce:	6824      	ldr	r4, [r4, #0]
 80081d0:	f043 0301 	orr.w	r3, r3, #1
 80081d4:	1b00      	subs	r0, r0, r4
 80081d6:	6053      	str	r3, [r2, #4]
 80081d8:	6008      	str	r0, [r1, #0]
 80081da:	e7d5      	b.n	8008188 <_malloc_trim_r+0x3c>
 80081dc:	20000184 	andcs	r0, r0, r4, lsl #3
 80081e0:	20001870 	andcs	r1, r0, r0, ror r8
 80081e4:	20000590 	mulcs	r0, r0, r5

080081e8 <_free_r>:
 80081e8:	2900      	cmp	r1, #0
 80081ea:	d04e      	beq.n	800828a <_free_r+0xa2>
 80081ec:	e92d 41f0 	stmdb	sp!, {r4, r5, r6, r7, r8, lr}
 80081f0:	460c      	mov	r4, r1
 80081f2:	4680      	mov	r8, r0
 80081f4:	f7ff fe04 	bl	8007e00 <__malloc_lock>
 80081f8:	f854 7c04 	ldr.w	r7, [r4, #-4]
 80081fc:	4962      	ldr	r1, [pc, #392]	; (8008388 <_free_r+0x1a0>)
 80081fe:	f1a4 0508 	sub.w	r5, r4, #8
 8008202:	f027 0201 	bic.w	r2, r7, #1
 8008206:	18ab      	adds	r3, r5, r2
 8008208:	688e      	ldr	r6, [r1, #8]
 800820a:	6858      	ldr	r0, [r3, #4]
 800820c:	429e      	cmp	r6, r3
 800820e:	f020 0003 	bic.w	r0, r0, #3
 8008212:	d05a      	beq.n	80082ca <_free_r+0xe2>
 8008214:	07fe      	lsls	r6, r7, #31
 8008216:	6058      	str	r0, [r3, #4]
 8008218:	d40b      	bmi.n	8008232 <_free_r+0x4a>
 800821a:	f854 7c08 	ldr.w	r7, [r4, #-8]
 800821e:	f101 0e08 	add.w	lr, r1, #8
 8008222:	1bed      	subs	r5, r5, r7
 8008224:	68ac      	ldr	r4, [r5, #8]
 8008226:	443a      	add	r2, r7
 8008228:	4574      	cmp	r4, lr
 800822a:	d067      	beq.n	80082fc <_free_r+0x114>
 800822c:	68ef      	ldr	r7, [r5, #12]
 800822e:	60e7      	str	r7, [r4, #12]
 8008230:	60bc      	str	r4, [r7, #8]
 8008232:	181c      	adds	r4, r3, r0
 8008234:	6864      	ldr	r4, [r4, #4]
 8008236:	07e4      	lsls	r4, r4, #31
 8008238:	d40c      	bmi.n	8008254 <_free_r+0x6c>
 800823a:	4f54      	ldr	r7, [pc, #336]	; (800838c <_free_r+0x1a4>)
 800823c:	689c      	ldr	r4, [r3, #8]
 800823e:	4402      	add	r2, r0
 8008240:	42bc      	cmp	r4, r7
 8008242:	d07c      	beq.n	800833e <_free_r+0x156>
 8008244:	68d8      	ldr	r0, [r3, #12]
 8008246:	f042 0301 	orr.w	r3, r2, #1
 800824a:	60e0      	str	r0, [r4, #12]
 800824c:	6084      	str	r4, [r0, #8]
 800824e:	606b      	str	r3, [r5, #4]
 8008250:	50aa      	str	r2, [r5, r2]
 8008252:	e003      	b.n	800825c <_free_r+0x74>
 8008254:	f042 0301 	orr.w	r3, r2, #1
 8008258:	606b      	str	r3, [r5, #4]
 800825a:	50aa      	str	r2, [r5, r2]
 800825c:	f5b2 7f00 	cmp.w	r2, #512	; 0x200
 8008260:	d214      	bcs.n	800828c <_free_r+0xa4>
 8008262:	08d2      	lsrs	r2, r2, #3
 8008264:	eb01 03c2 	add.w	r3, r1, r2, lsl #3
 8008268:	2401      	movs	r4, #1
 800826a:	6848      	ldr	r0, [r1, #4]
 800826c:	1092      	asrs	r2, r2, #2
 800826e:	fa04 f202 	lsl.w	r2, r4, r2
 8008272:	689c      	ldr	r4, [r3, #8]
 8008274:	4310      	orrs	r0, r2
 8008276:	60ac      	str	r4, [r5, #8]
 8008278:	60eb      	str	r3, [r5, #12]
 800827a:	6048      	str	r0, [r1, #4]
 800827c:	609d      	str	r5, [r3, #8]
 800827e:	60e5      	str	r5, [r4, #12]
 8008280:	4640      	mov	r0, r8
 8008282:	e8bd 41f0 	ldmia.w	sp!, {r4, r5, r6, r7, r8, lr}
 8008286:	f7ff bdbd 	b.w	8007e04 <__malloc_unlock>
 800828a:	4770      	bx	lr
 800828c:	0a53      	lsrs	r3, r2, #9
 800828e:	2b04      	cmp	r3, #4
 8008290:	d847      	bhi.n	8008322 <_free_r+0x13a>
 8008292:	0993      	lsrs	r3, r2, #6
 8008294:	f103 0438 	add.w	r4, r3, #56	; 0x38
 8008298:	0060      	lsls	r0, r4, #1
 800829a:	eb01 0080 	add.w	r0, r1, r0, lsl #2
 800829e:	6883      	ldr	r3, [r0, #8]
 80082a0:	4939      	ldr	r1, [pc, #228]	; (8008388 <_free_r+0x1a0>)
 80082a2:	4283      	cmp	r3, r0
 80082a4:	d043      	beq.n	800832e <_free_r+0x146>
 80082a6:	6859      	ldr	r1, [r3, #4]
 80082a8:	f021 0103 	bic.w	r1, r1, #3
 80082ac:	4291      	cmp	r1, r2
 80082ae:	d902      	bls.n	80082b6 <_free_r+0xce>
 80082b0:	689b      	ldr	r3, [r3, #8]
 80082b2:	4298      	cmp	r0, r3
 80082b4:	d1f7      	bne.n	80082a6 <_free_r+0xbe>
 80082b6:	68da      	ldr	r2, [r3, #12]
 80082b8:	60ea      	str	r2, [r5, #12]
 80082ba:	60ab      	str	r3, [r5, #8]
 80082bc:	4640      	mov	r0, r8
 80082be:	6095      	str	r5, [r2, #8]
 80082c0:	60dd      	str	r5, [r3, #12]
 80082c2:	e8bd 41f0 	ldmia.w	sp!, {r4, r5, r6, r7, r8, lr}
 80082c6:	f7ff bd9d 	b.w	8007e04 <__malloc_unlock>
 80082ca:	07ff      	lsls	r7, r7, #31
 80082cc:	4402      	add	r2, r0
 80082ce:	d407      	bmi.n	80082e0 <_free_r+0xf8>
 80082d0:	f854 4c08 	ldr.w	r4, [r4, #-8]
 80082d4:	1b2d      	subs	r5, r5, r4
 80082d6:	68eb      	ldr	r3, [r5, #12]
 80082d8:	68a8      	ldr	r0, [r5, #8]
 80082da:	4422      	add	r2, r4
 80082dc:	60c3      	str	r3, [r0, #12]
 80082de:	6098      	str	r0, [r3, #8]
 80082e0:	4b2b      	ldr	r3, [pc, #172]	; (8008390 <_free_r+0x1a8>)
 80082e2:	f042 0001 	orr.w	r0, r2, #1
 80082e6:	681b      	ldr	r3, [r3, #0]
 80082e8:	6068      	str	r0, [r5, #4]
 80082ea:	429a      	cmp	r2, r3
 80082ec:	608d      	str	r5, [r1, #8]
 80082ee:	d3c7      	bcc.n	8008280 <_free_r+0x98>
 80082f0:	4b28      	ldr	r3, [pc, #160]	; (8008394 <_free_r+0x1ac>)
 80082f2:	4640      	mov	r0, r8
 80082f4:	6819      	ldr	r1, [r3, #0]
 80082f6:	f7ff ff29 	bl	800814c <_malloc_trim_r>
 80082fa:	e7c1      	b.n	8008280 <_free_r+0x98>
 80082fc:	1819      	adds	r1, r3, r0
 80082fe:	6849      	ldr	r1, [r1, #4]
 8008300:	07c9      	lsls	r1, r1, #31
 8008302:	d409      	bmi.n	8008318 <_free_r+0x130>
 8008304:	68d9      	ldr	r1, [r3, #12]
 8008306:	4402      	add	r2, r0
 8008308:	689b      	ldr	r3, [r3, #8]
 800830a:	f042 0001 	orr.w	r0, r2, #1
 800830e:	60d9      	str	r1, [r3, #12]
 8008310:	608b      	str	r3, [r1, #8]
 8008312:	6068      	str	r0, [r5, #4]
 8008314:	50aa      	str	r2, [r5, r2]
 8008316:	e7b3      	b.n	8008280 <_free_r+0x98>
 8008318:	f042 0301 	orr.w	r3, r2, #1
 800831c:	606b      	str	r3, [r5, #4]
 800831e:	50aa      	str	r2, [r5, r2]
 8008320:	e7ae      	b.n	8008280 <_free_r+0x98>
 8008322:	2b14      	cmp	r3, #20
 8008324:	d814      	bhi.n	8008350 <_free_r+0x168>
 8008326:	f103 045b 	add.w	r4, r3, #91	; 0x5b
 800832a:	0060      	lsls	r0, r4, #1
 800832c:	e7b5      	b.n	800829a <_free_r+0xb2>
 800832e:	684a      	ldr	r2, [r1, #4]
 8008330:	10a4      	asrs	r4, r4, #2
 8008332:	2001      	movs	r0, #1
 8008334:	40a0      	lsls	r0, r4
 8008336:	4302      	orrs	r2, r0
 8008338:	604a      	str	r2, [r1, #4]
 800833a:	461a      	mov	r2, r3
 800833c:	e7bc      	b.n	80082b8 <_free_r+0xd0>
 800833e:	f042 0301 	orr.w	r3, r2, #1
 8008342:	614d      	str	r5, [r1, #20]
 8008344:	610d      	str	r5, [r1, #16]
 8008346:	60ec      	str	r4, [r5, #12]
 8008348:	60ac      	str	r4, [r5, #8]
 800834a:	606b      	str	r3, [r5, #4]
 800834c:	50aa      	str	r2, [r5, r2]
 800834e:	e797      	b.n	8008280 <_free_r+0x98>
 8008350:	2b54      	cmp	r3, #84	; 0x54
 8008352:	d804      	bhi.n	800835e <_free_r+0x176>
 8008354:	0b13      	lsrs	r3, r2, #12
 8008356:	f103 046e 	add.w	r4, r3, #110	; 0x6e
 800835a:	0060      	lsls	r0, r4, #1
 800835c:	e79d      	b.n	800829a <_free_r+0xb2>
 800835e:	f5b3 7faa 	cmp.w	r3, #340	; 0x154
 8008362:	d804      	bhi.n	800836e <_free_r+0x186>
 8008364:	0bd3      	lsrs	r3, r2, #15
 8008366:	f103 0477 	add.w	r4, r3, #119	; 0x77
 800836a:	0060      	lsls	r0, r4, #1
 800836c:	e795      	b.n	800829a <_free_r+0xb2>
 800836e:	f240 5054 	movw	r0, #1364	; 0x554
 8008372:	4283      	cmp	r3, r0
 8008374:	d804      	bhi.n	8008380 <_free_r+0x198>
 8008376:	0c93      	lsrs	r3, r2, #18
 8008378:	f103 047c 	add.w	r4, r3, #124	; 0x7c
 800837c:	0060      	lsls	r0, r4, #1
 800837e:	e78c      	b.n	800829a <_free_r+0xb2>
 8008380:	20fc      	movs	r0, #252	; 0xfc
 8008382:	247e      	movs	r4, #126	; 0x7e
 8008384:	e789      	b.n	800829a <_free_r+0xb2>
 8008386:	bf00      	nop
 8008388:	20000184 	andcs	r0, r0, r4, lsl #3
 800838c:	2000018c 	andcs	r0, r0, ip, lsl #3
 8008390:	2000058c 	andcs	r0, r0, ip, lsl #11
 8008394:	2000186c 	andcs	r1, r0, ip, ror #16

08008398 <Reset_Handler>:
 8008398:	2100      	movs	r1, #0
 800839a:	e003      	b.n	80083a4 <LoopCopyDataInit>

0800839c <CopyDataInit>:
 800839c:	4b09      	ldr	r3, [pc, #36]	; (80083c4 <LoopFillZerobss+0xc>)
 800839e:	585b      	ldr	r3, [r3, r1]
 80083a0:	5043      	str	r3, [r0, r1]
 80083a2:	3104      	adds	r1, #4

080083a4 <LoopCopyDataInit>:
 80083a4:	4808      	ldr	r0, [pc, #32]	; (80083c8 <LoopFillZerobss+0x10>)
 80083a6:	4b09      	ldr	r3, [pc, #36]	; (80083cc <LoopFillZerobss+0x14>)
 80083a8:	1842      	adds	r2, r0, r1
 80083aa:	429a      	cmp	r2, r3
 80083ac:	d3f6      	bcc.n	800839c <CopyDataInit>
 80083ae:	4a08      	ldr	r2, [pc, #32]	; (80083d0 <LoopFillZerobss+0x18>)
 80083b0:	e002      	b.n	80083b8 <LoopFillZerobss>

080083b2 <FillZerobss>:
 80083b2:	2300      	movs	r3, #0
 80083b4:	f842 3b04 	str.w	r3, [r2], #4

080083b8 <LoopFillZerobss>:
 80083b8:	4b06      	ldr	r3, [pc, #24]	; (80083d4 <LoopFillZerobss+0x1c>)
 80083ba:	429a      	cmp	r2, r3
 80083bc:	d3f9      	bcc.n	80083b2 <FillZerobss>
 80083be:	f7f8 fed3 	bl	8001168 <main>
 80083c2:	4770      	bx	lr
 80083c4:	0800ac68 	stmdaeq	r0, {r3, r5, r6, sl, fp, sp, pc}
 80083c8:	20000000 	andcs	r0, r0, r0
 80083cc:	200009d4 	ldrdcs	r0, [r0], -r4
 80083d0:	200009d8 	ldrdcs	r0, [r0], -r8
 80083d4:	200018e0 	andcs	r1, r0, r0, ror #17

080083d8 <BusFault_Handler>:
 80083d8:	e7fe      	b.n	80083d8 <BusFault_Handler>
	...

080083dc <NVIC_PriorityGroupConfig>:
 80083dc:	f040 60bf 	orr.w	r0, r0, #100139008	; 0x5f80000
 80083e0:	4b02      	ldr	r3, [pc, #8]	; (80083ec <NVIC_PriorityGroupConfig+0x10>)
 80083e2:	f440 3000 	orr.w	r0, r0, #131072	; 0x20000
 80083e6:	60d8      	str	r0, [r3, #12]
 80083e8:	4770      	bx	lr
 80083ea:	bf00      	nop
 80083ec:	e000ed00 	and	lr, r0, r0, lsl #26

080083f0 <NVIC_Init>:
 80083f0:	78c2      	ldrb	r2, [r0, #3]
 80083f2:	b510      	push	{r4, lr}
 80083f4:	7803      	ldrb	r3, [r0, #0]
 80083f6:	b30a      	cbz	r2, 800843c <NVIC_Init+0x4c>
 80083f8:	4a16      	ldr	r2, [pc, #88]	; (8008454 <NVIC_Init+0x64>)
 80083fa:	f103 4360 	add.w	r3, r3, #3758096384	; 0xe0000000
 80083fe:	68d4      	ldr	r4, [r2, #12]
 8008400:	7842      	ldrb	r2, [r0, #1]
 8008402:	43e4      	mvns	r4, r4
 8008404:	f3c4 2402 	ubfx	r4, r4, #8, #3
 8008408:	f1c4 0104 	rsb	r1, r4, #4
 800840c:	fa02 f101 	lsl.w	r1, r2, r1
 8008410:	220f      	movs	r2, #15
 8008412:	40e2      	lsrs	r2, r4
 8008414:	7884      	ldrb	r4, [r0, #2]
 8008416:	f503 4361 	add.w	r3, r3, #57600	; 0xe100
 800841a:	4022      	ands	r2, r4
 800841c:	430a      	orrs	r2, r1
 800841e:	0112      	lsls	r2, r2, #4
 8008420:	b2d2      	uxtb	r2, r2
 8008422:	f883 2300 	strb.w	r2, [r3, #768]	; 0x300
 8008426:	7803      	ldrb	r3, [r0, #0]
 8008428:	2201      	movs	r2, #1
 800842a:	0959      	lsrs	r1, r3, #5
 800842c:	f003 031f 	and.w	r3, r3, #31
 8008430:	fa02 f303 	lsl.w	r3, r2, r3
 8008434:	4a08      	ldr	r2, [pc, #32]	; (8008458 <NVIC_Init+0x68>)
 8008436:	f842 3021 	str.w	r3, [r2, r1, lsl #2]
 800843a:	bd10      	pop	{r4, pc}
 800843c:	095a      	lsrs	r2, r3, #5
 800843e:	2101      	movs	r1, #1
 8008440:	f003 031f 	and.w	r3, r3, #31
 8008444:	4099      	lsls	r1, r3
 8008446:	f102 0320 	add.w	r3, r2, #32
 800844a:	4a03      	ldr	r2, [pc, #12]	; (8008458 <NVIC_Init+0x68>)
 800844c:	f842 1023 	str.w	r1, [r2, r3, lsl #2]
 8008450:	bd10      	pop	{r4, pc}
 8008452:	bf00      	nop
 8008454:	e000ed00 	and	lr, r0, r0, lsl #26
 8008458:	e000e100 	and	lr, r0, r0, lsl #2

0800845c <NVIC_SetVectorTable>:
 800845c:	f021 4160 	bic.w	r1, r1, #3758096384	; 0xe0000000
 8008460:	f021 017f 	bic.w	r1, r1, #127	; 0x7f
 8008464:	4b01      	ldr	r3, [pc, #4]	; (800846c <NVIC_SetVectorTable+0x10>)
 8008466:	4308      	orrs	r0, r1
 8008468:	6098      	str	r0, [r3, #8]
 800846a:	4770      	bx	lr
 800846c:	e000ed00 	and	lr, r0, r0, lsl #26

08008470 <SysTick_CLKSourceConfig>:
 8008470:	4b04      	ldr	r3, [pc, #16]	; (8008484 <SysTick_CLKSourceConfig+0x14>)
 8008472:	2804      	cmp	r0, #4
 8008474:	681a      	ldr	r2, [r3, #0]
 8008476:	bf0c      	ite	eq
 8008478:	f042 0204 	orreq.w	r2, r2, #4
 800847c:	f022 0204 	bicne.w	r2, r2, #4
 8008480:	601a      	str	r2, [r3, #0]
 8008482:	4770      	bx	lr
 8008484:	e000e010 	and	lr, r0, r0, lsl r0

08008488 <ADC_DeInit>:
 8008488:	b508      	push	{r3, lr}
 800848a:	4b13      	ldr	r3, [pc, #76]	; (80084d8 <ADC_DeInit+0x50>)
 800848c:	4298      	cmp	r0, r3
 800848e:	d107      	bne.n	80084a0 <ADC_DeInit+0x18>
 8008490:	f44f 7000 	mov.w	r0, #512	; 0x200
 8008494:	2101      	movs	r1, #1
 8008496:	f000 fce5 	bl	8008e64 <RCC_APB2PeriphResetCmd>
 800849a:	f44f 7000 	mov.w	r0, #512	; 0x200
 800849e:	e014      	b.n	80084ca <ADC_DeInit+0x42>
 80084a0:	4b0e      	ldr	r3, [pc, #56]	; (80084dc <ADC_DeInit+0x54>)
 80084a2:	4298      	cmp	r0, r3
 80084a4:	d107      	bne.n	80084b6 <ADC_DeInit+0x2e>
 80084a6:	f44f 6080 	mov.w	r0, #1024	; 0x400
 80084aa:	2101      	movs	r1, #1
 80084ac:	f000 fcda 	bl	8008e64 <RCC_APB2PeriphResetCmd>
 80084b0:	f44f 6080 	mov.w	r0, #1024	; 0x400
 80084b4:	e009      	b.n	80084ca <ADC_DeInit+0x42>
 80084b6:	4b0a      	ldr	r3, [pc, #40]	; (80084e0 <ADC_DeInit+0x58>)
 80084b8:	4298      	cmp	r0, r3
 80084ba:	d10b      	bne.n	80084d4 <ADC_DeInit+0x4c>
 80084bc:	f44f 4000 	mov.w	r0, #32768	; 0x8000
 80084c0:	2101      	movs	r1, #1
 80084c2:	f000 fccf 	bl	8008e64 <RCC_APB2PeriphResetCmd>
 80084c6:	f44f 4000 	mov.w	r0, #32768	; 0x8000
 80084ca:	2100      	movs	r1, #0
 80084cc:	e8bd 4008 	ldmia.w	sp!, {r3, lr}
 80084d0:	f000 bcc8 	b.w	8008e64 <RCC_APB2PeriphResetCmd>
 80084d4:	bd08      	pop	{r3, pc}
 80084d6:	bf00      	nop
 80084d8:	40012400 	andmi	r2, r1, r0, lsl #8
 80084dc:	40012800 	andmi	r2, r1, r0, lsl #16
 80084e0:	40013c00 	andmi	r3, r1, r0, lsl #24

080084e4 <ADC_Init>:
 80084e4:	6843      	ldr	r3, [r0, #4]
 80084e6:	b510      	push	{r4, lr}
 80084e8:	f423 2270 	bic.w	r2, r3, #983040	; 0xf0000
 80084ec:	680b      	ldr	r3, [r1, #0]
 80084ee:	f422 7280 	bic.w	r2, r2, #256	; 0x100
 80084f2:	4313      	orrs	r3, r2
 80084f4:	790a      	ldrb	r2, [r1, #4]
 80084f6:	ea43 2302 	orr.w	r3, r3, r2, lsl #8
 80084fa:	6043      	str	r3, [r0, #4]
 80084fc:	68cb      	ldr	r3, [r1, #12]
 80084fe:	688a      	ldr	r2, [r1, #8]
 8008500:	6884      	ldr	r4, [r0, #8]
 8008502:	431a      	orrs	r2, r3
 8008504:	4b08      	ldr	r3, [pc, #32]	; (8008528 <ADC_Init+0x44>)
 8008506:	4023      	ands	r3, r4
 8008508:	4313      	orrs	r3, r2
 800850a:	794a      	ldrb	r2, [r1, #5]
 800850c:	ea43 0342 	orr.w	r3, r3, r2, lsl #1
 8008510:	6083      	str	r3, [r0, #8]
 8008512:	6ac3      	ldr	r3, [r0, #44]	; 0x2c
 8008514:	f423 0270 	bic.w	r2, r3, #15728640	; 0xf00000
 8008518:	7c0b      	ldrb	r3, [r1, #16]
 800851a:	3b01      	subs	r3, #1
 800851c:	b2db      	uxtb	r3, r3
 800851e:	ea42 5303 	orr.w	r3, r2, r3, lsl #20
 8008522:	62c3      	str	r3, [r0, #44]	; 0x2c
 8008524:	bd10      	pop	{r4, pc}
 8008526:	bf00      	nop
 8008528:	fff1f7fd 			; <UNDEFINED> instruction: 0xfff1f7fd

0800852c <ADC_Cmd>:
 800852c:	6883      	ldr	r3, [r0, #8]
 800852e:	b111      	cbz	r1, 8008536 <ADC_Cmd+0xa>
 8008530:	f043 0301 	orr.w	r3, r3, #1
 8008534:	e001      	b.n	800853a <ADC_Cmd+0xe>
 8008536:	f023 0301 	bic.w	r3, r3, #1
 800853a:	6083      	str	r3, [r0, #8]
 800853c:	4770      	bx	lr

0800853e <ADC_ResetCalibration>:
 800853e:	6883      	ldr	r3, [r0, #8]
 8008540:	f043 0308 	orr.w	r3, r3, #8
 8008544:	6083      	str	r3, [r0, #8]
 8008546:	4770      	bx	lr

08008548 <ADC_GetResetCalibrationStatus>:
 8008548:	6880      	ldr	r0, [r0, #8]
 800854a:	f3c0 00c0 	ubfx	r0, r0, #3, #1
 800854e:	4770      	bx	lr

08008550 <ADC_StartCalibration>:
 8008550:	6883      	ldr	r3, [r0, #8]
 8008552:	f043 0304 	orr.w	r3, r3, #4
 8008556:	6083      	str	r3, [r0, #8]
 8008558:	4770      	bx	lr

0800855a <ADC_GetCalibrationStatus>:
 800855a:	6880      	ldr	r0, [r0, #8]
 800855c:	f3c0 0080 	ubfx	r0, r0, #2, #1
 8008560:	4770      	bx	lr

08008562 <ADC_SoftwareStartConvCmd>:
 8008562:	6883      	ldr	r3, [r0, #8]
 8008564:	b111      	cbz	r1, 800856c <ADC_SoftwareStartConvCmd+0xa>
 8008566:	f443 03a0 	orr.w	r3, r3, #5242880	; 0x500000
 800856a:	e001      	b.n	8008570 <ADC_SoftwareStartConvCmd+0xe>
 800856c:	f423 03a0 	bic.w	r3, r3, #5242880	; 0x500000
 8008570:	6083      	str	r3, [r0, #8]
 8008572:	4770      	bx	lr

08008574 <ADC_RegularChannelConfig>:
 8008574:	2909      	cmp	r1, #9
 8008576:	b570      	push	{r4, r5, r6, lr}
 8008578:	d90c      	bls.n	8008594 <ADC_RegularChannelConfig+0x20>
 800857a:	f1a1 040a 	sub.w	r4, r1, #10
 800857e:	68c6      	ldr	r6, [r0, #12]
 8008580:	eb04 0444 	add.w	r4, r4, r4, lsl #1
 8008584:	2507      	movs	r5, #7
 8008586:	40a5      	lsls	r5, r4
 8008588:	ea26 0505 	bic.w	r5, r6, r5
 800858c:	40a3      	lsls	r3, r4
 800858e:	432b      	orrs	r3, r5
 8008590:	60c3      	str	r3, [r0, #12]
 8008592:	e009      	b.n	80085a8 <ADC_RegularChannelConfig+0x34>
 8008594:	6905      	ldr	r5, [r0, #16]
 8008596:	eb01 0641 	add.w	r6, r1, r1, lsl #1
 800859a:	2407      	movs	r4, #7
 800859c:	40b4      	lsls	r4, r6
 800859e:	ea25 0404 	bic.w	r4, r5, r4
 80085a2:	40b3      	lsls	r3, r6
 80085a4:	4323      	orrs	r3, r4
 80085a6:	6103      	str	r3, [r0, #16]
 80085a8:	2a06      	cmp	r2, #6
 80085aa:	d80b      	bhi.n	80085c4 <ADC_RegularChannelConfig+0x50>
 80085ac:	3a01      	subs	r2, #1
 80085ae:	6b44      	ldr	r4, [r0, #52]	; 0x34
 80085b0:	eb02 0282 	add.w	r2, r2, r2, lsl #2
 80085b4:	231f      	movs	r3, #31
 80085b6:	4093      	lsls	r3, r2
 80085b8:	ea24 0303 	bic.w	r3, r4, r3
 80085bc:	4091      	lsls	r1, r2
 80085be:	4319      	orrs	r1, r3
 80085c0:	6341      	str	r1, [r0, #52]	; 0x34
 80085c2:	bd70      	pop	{r4, r5, r6, pc}
 80085c4:	2a0c      	cmp	r2, #12
 80085c6:	d80b      	bhi.n	80085e0 <ADC_RegularChannelConfig+0x6c>
 80085c8:	3a07      	subs	r2, #7
 80085ca:	6b04      	ldr	r4, [r0, #48]	; 0x30
 80085cc:	eb02 0282 	add.w	r2, r2, r2, lsl #2
 80085d0:	231f      	movs	r3, #31
 80085d2:	4093      	lsls	r3, r2
 80085d4:	ea24 0303 	bic.w	r3, r4, r3
 80085d8:	4091      	lsls	r1, r2
 80085da:	4319      	orrs	r1, r3
 80085dc:	6301      	str	r1, [r0, #48]	; 0x30
 80085de:	bd70      	pop	{r4, r5, r6, pc}
 80085e0:	3a0d      	subs	r2, #13
 80085e2:	6ac4      	ldr	r4, [r0, #44]	; 0x2c
 80085e4:	eb02 0282 	add.w	r2, r2, r2, lsl #2
 80085e8:	231f      	movs	r3, #31
 80085ea:	4093      	lsls	r3, r2
 80085ec:	ea24 0303 	bic.w	r3, r4, r3
 80085f0:	4091      	lsls	r1, r2
 80085f2:	4319      	orrs	r1, r3
 80085f4:	62c1      	str	r1, [r0, #44]	; 0x2c
 80085f6:	bd70      	pop	{r4, r5, r6, pc}

080085f8 <ADC_GetConversionValue>:
 80085f8:	6cc0      	ldr	r0, [r0, #76]	; 0x4c
 80085fa:	b280      	uxth	r0, r0
 80085fc:	4770      	bx	lr

080085fe <ADC_ExternalTrigInjectedConvConfig>:
 80085fe:	6883      	ldr	r3, [r0, #8]
 8008600:	f423 43e0 	bic.w	r3, r3, #28672	; 0x7000
 8008604:	4319      	orrs	r1, r3
 8008606:	6081      	str	r1, [r0, #8]
 8008608:	4770      	bx	lr

0800860a <ADC_SoftwareStartInjectedConvCmd>:
 800860a:	6883      	ldr	r3, [r0, #8]
 800860c:	b111      	cbz	r1, 8008614 <ADC_SoftwareStartInjectedConvCmd+0xa>
 800860e:	f443 1302 	orr.w	r3, r3, #2129920	; 0x208000
 8008612:	e001      	b.n	8008618 <ADC_SoftwareStartInjectedConvCmd+0xe>
 8008614:	f423 1302 	bic.w	r3, r3, #2129920	; 0x208000
 8008618:	6083      	str	r3, [r0, #8]
 800861a:	4770      	bx	lr

0800861c <ADC_InjectedChannelConfig>:
 800861c:	2909      	cmp	r1, #9
 800861e:	b570      	push	{r4, r5, r6, lr}
 8008620:	d90c      	bls.n	800863c <ADC_InjectedChannelConfig+0x20>
 8008622:	f1a1 040a 	sub.w	r4, r1, #10
 8008626:	68c6      	ldr	r6, [r0, #12]
 8008628:	eb04 0444 	add.w	r4, r4, r4, lsl #1
 800862c:	2507      	movs	r5, #7
 800862e:	40a5      	lsls	r5, r4
 8008630:	ea26 0505 	bic.w	r5, r6, r5
 8008634:	40a3      	lsls	r3, r4
 8008636:	432b      	orrs	r3, r5
 8008638:	60c3      	str	r3, [r0, #12]
 800863a:	e009      	b.n	8008650 <ADC_InjectedChannelConfig+0x34>
 800863c:	6905      	ldr	r5, [r0, #16]
 800863e:	eb01 0641 	add.w	r6, r1, r1, lsl #1
 8008642:	2407      	movs	r4, #7
 8008644:	40b4      	lsls	r4, r6
 8008646:	ea25 0404 	bic.w	r4, r5, r4
 800864a:	40b3      	lsls	r3, r6
 800864c:	4323      	orrs	r3, r4
 800864e:	6103      	str	r3, [r0, #16]
 8008650:	6b83      	ldr	r3, [r0, #56]	; 0x38
 8008652:	3202      	adds	r2, #2
 8008654:	f3c3 5401 	ubfx	r4, r3, #20, #2
 8008658:	1b12      	subs	r2, r2, r4
 800865a:	b2d2      	uxtb	r2, r2
 800865c:	eb02 0282 	add.w	r2, r2, r2, lsl #2
 8008660:	241f      	movs	r4, #31
 8008662:	4094      	lsls	r4, r2
 8008664:	ea23 0304 	bic.w	r3, r3, r4
 8008668:	4091      	lsls	r1, r2
 800866a:	4319      	orrs	r1, r3
 800866c:	6381      	str	r1, [r0, #56]	; 0x38
 800866e:	bd70      	pop	{r4, r5, r6, pc}

08008670 <ADC_InjectedSequencerLengthConfig>:
 8008670:	6b83      	ldr	r3, [r0, #56]	; 0x38
 8008672:	3901      	subs	r1, #1
 8008674:	f423 1340 	bic.w	r3, r3, #3145728	; 0x300000
 8008678:	ea43 5301 	orr.w	r3, r3, r1, lsl #20
 800867c:	6383      	str	r3, [r0, #56]	; 0x38
 800867e:	4770      	bx	lr

08008680 <ADC_GetInjectedConversionValue>:
 8008680:	b082      	sub	sp, #8
 8008682:	2300      	movs	r3, #0
 8008684:	9301      	str	r3, [sp, #4]
 8008686:	9001      	str	r0, [sp, #4]
 8008688:	9b01      	ldr	r3, [sp, #4]
 800868a:	3328      	adds	r3, #40	; 0x28
 800868c:	4419      	add	r1, r3
 800868e:	9101      	str	r1, [sp, #4]
 8008690:	9b01      	ldr	r3, [sp, #4]
 8008692:	6818      	ldr	r0, [r3, #0]
 8008694:	b280      	uxth	r0, r0
 8008696:	b002      	add	sp, #8
 8008698:	4770      	bx	lr

0800869a <ADC_GetFlagStatus>:
 800869a:	6803      	ldr	r3, [r0, #0]
 800869c:	4219      	tst	r1, r3
 800869e:	bf14      	ite	ne
 80086a0:	2001      	movne	r0, #1
 80086a2:	2000      	moveq	r0, #0
 80086a4:	4770      	bx	lr

080086a6 <ADC_ClearFlag>:
 80086a6:	43c9      	mvns	r1, r1
 80086a8:	6001      	str	r1, [r0, #0]
 80086aa:	4770      	bx	lr

080086ac <ADC_GetITStatus>:
 80086ac:	6843      	ldr	r3, [r0, #4]
 80086ae:	6800      	ldr	r0, [r0, #0]
 80086b0:	ea10 2011 	ands.w	r0, r0, r1, lsr #8
 80086b4:	d004      	beq.n	80086c0 <ADC_GetITStatus+0x14>
 80086b6:	b2c9      	uxtb	r1, r1
 80086b8:	4219      	tst	r1, r3
 80086ba:	bf14      	ite	ne
 80086bc:	2001      	movne	r0, #1
 80086be:	2000      	moveq	r0, #0
 80086c0:	4770      	bx	lr

080086c2 <ADC_ClearITPendingBit>:
 80086c2:	ea6f 2111 	mvn.w	r1, r1, lsr #8
 80086c6:	6001      	str	r1, [r0, #0]
 80086c8:	4770      	bx	lr

080086ca <BKP_DeInit>:
 80086ca:	b508      	push	{r3, lr}
 80086cc:	2001      	movs	r0, #1
 80086ce:	f000 fbe1 	bl	8008e94 <RCC_BackupResetCmd>
 80086d2:	e8bd 4008 	ldmia.w	sp!, {r3, lr}
 80086d6:	2000      	movs	r0, #0
 80086d8:	f000 bbdc 	b.w	8008e94 <RCC_BackupResetCmd>

080086dc <BKP_RTCOutputConfig>:
 80086dc:	4a04      	ldr	r2, [pc, #16]	; (80086f0 <BKP_RTCOutputConfig+0x14>)
 80086de:	8d93      	ldrh	r3, [r2, #44]	; 0x2c
 80086e0:	f423 7360 	bic.w	r3, r3, #896	; 0x380
 80086e4:	041b      	lsls	r3, r3, #16
 80086e6:	0c1b      	lsrs	r3, r3, #16
 80086e8:	4318      	orrs	r0, r3
 80086ea:	8590      	strh	r0, [r2, #44]	; 0x2c
 80086ec:	4770      	bx	lr
 80086ee:	bf00      	nop
 80086f0:	40006c00 	andmi	r6, r0, r0, lsl #24

080086f4 <BKP_SetRTCCalibrationValue>:
 80086f4:	4a04      	ldr	r2, [pc, #16]	; (8008708 <BKP_SetRTCCalibrationValue+0x14>)
 80086f6:	8d93      	ldrh	r3, [r2, #44]	; 0x2c
 80086f8:	f023 037f 	bic.w	r3, r3, #127	; 0x7f
 80086fc:	041b      	lsls	r3, r3, #16
 80086fe:	0c1b      	lsrs	r3, r3, #16
 8008700:	4318      	orrs	r0, r3
 8008702:	8590      	strh	r0, [r2, #44]	; 0x2c
 8008704:	4770      	bx	lr
 8008706:	bf00      	nop
 8008708:	40006c00 	andmi	r6, r0, r0, lsl #24

0800870c <BKP_WriteBackupRegister>:
 800870c:	b082      	sub	sp, #8
 800870e:	2300      	movs	r3, #0
 8008710:	9301      	str	r3, [sp, #4]
 8008712:	4b04      	ldr	r3, [pc, #16]	; (8008724 <BKP_WriteBackupRegister+0x18>)
 8008714:	9301      	str	r3, [sp, #4]
 8008716:	9b01      	ldr	r3, [sp, #4]
 8008718:	4418      	add	r0, r3
 800871a:	9001      	str	r0, [sp, #4]
 800871c:	9b01      	ldr	r3, [sp, #4]
 800871e:	6019      	str	r1, [r3, #0]
 8008720:	b002      	add	sp, #8
 8008722:	4770      	bx	lr
 8008724:	40006c00 	andmi	r6, r0, r0, lsl #24

08008728 <BKP_ReadBackupRegister>:
 8008728:	b082      	sub	sp, #8
 800872a:	2300      	movs	r3, #0
 800872c:	9301      	str	r3, [sp, #4]
 800872e:	4b05      	ldr	r3, [pc, #20]	; (8008744 <BKP_ReadBackupRegister+0x1c>)
 8008730:	9301      	str	r3, [sp, #4]
 8008732:	9b01      	ldr	r3, [sp, #4]
 8008734:	4418      	add	r0, r3
 8008736:	9001      	str	r0, [sp, #4]
 8008738:	9b01      	ldr	r3, [sp, #4]
 800873a:	8818      	ldrh	r0, [r3, #0]
 800873c:	b280      	uxth	r0, r0
 800873e:	b002      	add	sp, #8
 8008740:	4770      	bx	lr
 8008742:	bf00      	nop
 8008744:	40006c00 	andmi	r6, r0, r0, lsl #24

08008748 <DBGMCU_Config>:
 8008748:	4b04      	ldr	r3, [pc, #16]	; (800875c <DBGMCU_Config+0x14>)
 800874a:	685a      	ldr	r2, [r3, #4]
 800874c:	b109      	cbz	r1, 8008752 <DBGMCU_Config+0xa>
 800874e:	4310      	orrs	r0, r2
 8008750:	e001      	b.n	8008756 <DBGMCU_Config+0xe>
 8008752:	ea22 0000 	bic.w	r0, r2, r0
 8008756:	6058      	str	r0, [r3, #4]
 8008758:	4770      	bx	lr
 800875a:	bf00      	nop
 800875c:	e0042000 	and	r2, r4, r0

08008760 <DMA_DeInit>:
 8008760:	6803      	ldr	r3, [r0, #0]
 8008762:	f023 0301 	bic.w	r3, r3, #1
 8008766:	6003      	str	r3, [r0, #0]
 8008768:	2300      	movs	r3, #0
 800876a:	6003      	str	r3, [r0, #0]
 800876c:	6043      	str	r3, [r0, #4]
 800876e:	6083      	str	r3, [r0, #8]
 8008770:	60c3      	str	r3, [r0, #12]
 8008772:	4b29      	ldr	r3, [pc, #164]	; (8008818 <DMA_DeInit+0xb8>)
 8008774:	4298      	cmp	r0, r3
 8008776:	d101      	bne.n	800877c <DMA_DeInit+0x1c>
 8008778:	4a28      	ldr	r2, [pc, #160]	; (800881c <DMA_DeInit+0xbc>)
 800877a:	e027      	b.n	80087cc <DMA_DeInit+0x6c>
 800877c:	4b28      	ldr	r3, [pc, #160]	; (8008820 <DMA_DeInit+0xc0>)
 800877e:	4298      	cmp	r0, r3
 8008780:	d101      	bne.n	8008786 <DMA_DeInit+0x26>
 8008782:	4a26      	ldr	r2, [pc, #152]	; (800881c <DMA_DeInit+0xbc>)
 8008784:	e02a      	b.n	80087dc <DMA_DeInit+0x7c>
 8008786:	4b27      	ldr	r3, [pc, #156]	; (8008824 <DMA_DeInit+0xc4>)
 8008788:	4298      	cmp	r0, r3
 800878a:	d101      	bne.n	8008790 <DMA_DeInit+0x30>
 800878c:	4a23      	ldr	r2, [pc, #140]	; (800881c <DMA_DeInit+0xbc>)
 800878e:	e02d      	b.n	80087ec <DMA_DeInit+0x8c>
 8008790:	4b25      	ldr	r3, [pc, #148]	; (8008828 <DMA_DeInit+0xc8>)
 8008792:	4298      	cmp	r0, r3
 8008794:	d101      	bne.n	800879a <DMA_DeInit+0x3a>
 8008796:	4a21      	ldr	r2, [pc, #132]	; (800881c <DMA_DeInit+0xbc>)
 8008798:	e030      	b.n	80087fc <DMA_DeInit+0x9c>
 800879a:	4b24      	ldr	r3, [pc, #144]	; (800882c <DMA_DeInit+0xcc>)
 800879c:	4298      	cmp	r0, r3
 800879e:	d101      	bne.n	80087a4 <DMA_DeInit+0x44>
 80087a0:	4a1e      	ldr	r2, [pc, #120]	; (800881c <DMA_DeInit+0xbc>)
 80087a2:	e033      	b.n	800880c <DMA_DeInit+0xac>
 80087a4:	4b22      	ldr	r3, [pc, #136]	; (8008830 <DMA_DeInit+0xd0>)
 80087a6:	4298      	cmp	r0, r3
 80087a8:	d104      	bne.n	80087b4 <DMA_DeInit+0x54>
 80087aa:	4a1c      	ldr	r2, [pc, #112]	; (800881c <DMA_DeInit+0xbc>)
 80087ac:	6853      	ldr	r3, [r2, #4]
 80087ae:	f443 0370 	orr.w	r3, r3, #15728640	; 0xf00000
 80087b2:	e02e      	b.n	8008812 <DMA_DeInit+0xb2>
 80087b4:	4b1f      	ldr	r3, [pc, #124]	; (8008834 <DMA_DeInit+0xd4>)
 80087b6:	4298      	cmp	r0, r3
 80087b8:	d104      	bne.n	80087c4 <DMA_DeInit+0x64>
 80087ba:	4a18      	ldr	r2, [pc, #96]	; (800881c <DMA_DeInit+0xbc>)
 80087bc:	6853      	ldr	r3, [r2, #4]
 80087be:	f043 6370 	orr.w	r3, r3, #251658240	; 0xf000000
 80087c2:	e026      	b.n	8008812 <DMA_DeInit+0xb2>
 80087c4:	4b1c      	ldr	r3, [pc, #112]	; (8008838 <DMA_DeInit+0xd8>)
 80087c6:	4298      	cmp	r0, r3
 80087c8:	d104      	bne.n	80087d4 <DMA_DeInit+0x74>
 80087ca:	4a1c      	ldr	r2, [pc, #112]	; (800883c <DMA_DeInit+0xdc>)
 80087cc:	6853      	ldr	r3, [r2, #4]
 80087ce:	f043 030f 	orr.w	r3, r3, #15
 80087d2:	e01e      	b.n	8008812 <DMA_DeInit+0xb2>
 80087d4:	4b1a      	ldr	r3, [pc, #104]	; (8008840 <DMA_DeInit+0xe0>)
 80087d6:	4298      	cmp	r0, r3
 80087d8:	d104      	bne.n	80087e4 <DMA_DeInit+0x84>
 80087da:	4a18      	ldr	r2, [pc, #96]	; (800883c <DMA_DeInit+0xdc>)
 80087dc:	6853      	ldr	r3, [r2, #4]
 80087de:	f043 03f0 	orr.w	r3, r3, #240	; 0xf0
 80087e2:	e016      	b.n	8008812 <DMA_DeInit+0xb2>
 80087e4:	4b17      	ldr	r3, [pc, #92]	; (8008844 <DMA_DeInit+0xe4>)
 80087e6:	4298      	cmp	r0, r3
 80087e8:	d104      	bne.n	80087f4 <DMA_DeInit+0x94>
 80087ea:	4a14      	ldr	r2, [pc, #80]	; (800883c <DMA_DeInit+0xdc>)
 80087ec:	6853      	ldr	r3, [r2, #4]
 80087ee:	f443 6370 	orr.w	r3, r3, #3840	; 0xf00
 80087f2:	e00e      	b.n	8008812 <DMA_DeInit+0xb2>
 80087f4:	4b14      	ldr	r3, [pc, #80]	; (8008848 <DMA_DeInit+0xe8>)
 80087f6:	4298      	cmp	r0, r3
 80087f8:	d104      	bne.n	8008804 <DMA_DeInit+0xa4>
 80087fa:	4a10      	ldr	r2, [pc, #64]	; (800883c <DMA_DeInit+0xdc>)
 80087fc:	6853      	ldr	r3, [r2, #4]
 80087fe:	f443 4370 	orr.w	r3, r3, #61440	; 0xf000
 8008802:	e006      	b.n	8008812 <DMA_DeInit+0xb2>
 8008804:	4b11      	ldr	r3, [pc, #68]	; (800884c <DMA_DeInit+0xec>)
 8008806:	4298      	cmp	r0, r3
 8008808:	d104      	bne.n	8008814 <DMA_DeInit+0xb4>
 800880a:	4a0c      	ldr	r2, [pc, #48]	; (800883c <DMA_DeInit+0xdc>)
 800880c:	6853      	ldr	r3, [r2, #4]
 800880e:	f443 2370 	orr.w	r3, r3, #983040	; 0xf0000
 8008812:	6053      	str	r3, [r2, #4]
 8008814:	4770      	bx	lr
 8008816:	bf00      	nop
 8008818:	40020008 	andmi	r0, r2, r8
 800881c:	40020000 	andmi	r0, r2, r0
 8008820:	4002001c 	andmi	r0, r2, ip, lsl r0
 8008824:	40020030 	andmi	r0, r2, r0, lsr r0
 8008828:	40020044 	andmi	r0, r2, r4, asr #32
 800882c:	40020058 	andmi	r0, r2, r8, asr r0
 8008830:	4002006c 	andmi	r0, r2, ip, rrx
 8008834:	40020080 	andmi	r0, r2, r0, lsl #1
 8008838:	40020408 	andmi	r0, r2, r8, lsl #8
 800883c:	40020400 	andmi	r0, r2, r0, lsl #8
 8008840:	4002041c 	andmi	r0, r2, ip, lsl r4
 8008844:	40020430 	andmi	r0, r2, r0, lsr r4
 8008848:	40020444 	andmi	r0, r2, r4, asr #8
 800884c:	40020458 	andmi	r0, r2, r8, asr r4

08008850 <DMA_Init>:
 8008850:	688a      	ldr	r2, [r1, #8]
 8008852:	b510      	push	{r4, lr}
 8008854:	6a0c      	ldr	r4, [r1, #32]
 8008856:	6803      	ldr	r3, [r0, #0]
 8008858:	4314      	orrs	r4, r2
 800885a:	690a      	ldr	r2, [r1, #16]
 800885c:	f423 43ff 	bic.w	r3, r3, #32640	; 0x7f80
 8008860:	4314      	orrs	r4, r2
 8008862:	694a      	ldr	r2, [r1, #20]
 8008864:	f023 0370 	bic.w	r3, r3, #112	; 0x70
 8008868:	4314      	orrs	r4, r2
 800886a:	698a      	ldr	r2, [r1, #24]
 800886c:	4314      	orrs	r4, r2
 800886e:	69ca      	ldr	r2, [r1, #28]
 8008870:	4314      	orrs	r4, r2
 8008872:	6a4a      	ldr	r2, [r1, #36]	; 0x24
 8008874:	4314      	orrs	r4, r2
 8008876:	6a8a      	ldr	r2, [r1, #40]	; 0x28
 8008878:	4322      	orrs	r2, r4
 800887a:	4313      	orrs	r3, r2
 800887c:	6003      	str	r3, [r0, #0]
 800887e:	68cb      	ldr	r3, [r1, #12]
 8008880:	6043      	str	r3, [r0, #4]
 8008882:	680b      	ldr	r3, [r1, #0]
 8008884:	6083      	str	r3, [r0, #8]
 8008886:	684b      	ldr	r3, [r1, #4]
 8008888:	60c3      	str	r3, [r0, #12]
 800888a:	bd10      	pop	{r4, pc}

0800888c <DMA_Cmd>:
 800888c:	6803      	ldr	r3, [r0, #0]
 800888e:	b111      	cbz	r1, 8008896 <DMA_Cmd+0xa>
 8008890:	f043 0301 	orr.w	r3, r3, #1
 8008894:	e001      	b.n	800889a <DMA_Cmd+0xe>
 8008896:	f023 0301 	bic.w	r3, r3, #1
 800889a:	6003      	str	r3, [r0, #0]
 800889c:	4770      	bx	lr

0800889e <DMA_ITConfig>:
 800889e:	6803      	ldr	r3, [r0, #0]
 80088a0:	b10a      	cbz	r2, 80088a6 <DMA_ITConfig+0x8>
 80088a2:	4319      	orrs	r1, r3
 80088a4:	e001      	b.n	80088aa <DMA_ITConfig+0xc>
 80088a6:	ea23 0101 	bic.w	r1, r3, r1
 80088aa:	6001      	str	r1, [r0, #0]
 80088ac:	4770      	bx	lr

080088ae <DMA_GetCurrDataCounter>:
 80088ae:	6840      	ldr	r0, [r0, #4]
 80088b0:	b280      	uxth	r0, r0
 80088b2:	4770      	bx	lr

080088b4 <DMA_GetFlagStatus>:
 80088b4:	00c3      	lsls	r3, r0, #3
 80088b6:	bf4c      	ite	mi
 80088b8:	4b03      	ldrmi	r3, [pc, #12]	; (80088c8 <DMA_GetFlagStatus+0x14>)
 80088ba:	4b04      	ldrpl	r3, [pc, #16]	; (80088cc <DMA_GetFlagStatus+0x18>)
 80088bc:	681b      	ldr	r3, [r3, #0]
 80088be:	4203      	tst	r3, r0
 80088c0:	bf14      	ite	ne
 80088c2:	2001      	movne	r0, #1
 80088c4:	2000      	moveq	r0, #0
 80088c6:	4770      	bx	lr
 80088c8:	40020400 	andmi	r0, r2, r0, lsl #8
 80088cc:	40020000 	andmi	r0, r2, r0

080088d0 <DMA_ClearFlag>:
 80088d0:	00c3      	lsls	r3, r0, #3
 80088d2:	bf4c      	ite	mi
 80088d4:	4b01      	ldrmi	r3, [pc, #4]	; (80088dc <DMA_ClearFlag+0xc>)
 80088d6:	4b02      	ldrpl	r3, [pc, #8]	; (80088e0 <DMA_ClearFlag+0x10>)
 80088d8:	6058      	str	r0, [r3, #4]
 80088da:	4770      	bx	lr
 80088dc:	40020400 	andmi	r0, r2, r0, lsl #8
 80088e0:	40020000 	andmi	r0, r2, r0

080088e4 <DMA_GetITStatus>:
 80088e4:	00c3      	lsls	r3, r0, #3
 80088e6:	bf4c      	ite	mi
 80088e8:	4b03      	ldrmi	r3, [pc, #12]	; (80088f8 <DMA_GetITStatus+0x14>)
 80088ea:	4b04      	ldrpl	r3, [pc, #16]	; (80088fc <DMA_GetITStatus+0x18>)
 80088ec:	681b      	ldr	r3, [r3, #0]
 80088ee:	4203      	tst	r3, r0
 80088f0:	bf14      	ite	ne
 80088f2:	2001      	movne	r0, #1
 80088f4:	2000      	moveq	r0, #0
 80088f6:	4770      	bx	lr
 80088f8:	40020400 	andmi	r0, r2, r0, lsl #8
 80088fc:	40020000 	andmi	r0, r2, r0

08008900 <DMA_ClearITPendingBit>:
 8008900:	00c3      	lsls	r3, r0, #3
 8008902:	bf4c      	ite	mi
 8008904:	4b01      	ldrmi	r3, [pc, #4]	; (800890c <DMA_ClearITPendingBit+0xc>)
 8008906:	4b02      	ldrpl	r3, [pc, #8]	; (8008910 <DMA_ClearITPendingBit+0x10>)
 8008908:	6058      	str	r0, [r3, #4]
 800890a:	4770      	bx	lr
 800890c:	40020400 	andmi	r0, r2, r0, lsl #8
 8008910:	40020000 	andmi	r0, r2, r0

08008914 <EXTI_DeInit>:
 8008914:	4b04      	ldr	r3, [pc, #16]	; (8008928 <EXTI_DeInit+0x14>)
 8008916:	2200      	movs	r2, #0
 8008918:	601a      	str	r2, [r3, #0]
 800891a:	605a      	str	r2, [r3, #4]
 800891c:	609a      	str	r2, [r3, #8]
 800891e:	60da      	str	r2, [r3, #12]
 8008920:	4a02      	ldr	r2, [pc, #8]	; (800892c <EXTI_DeInit+0x18>)
 8008922:	615a      	str	r2, [r3, #20]
 8008924:	4770      	bx	lr
 8008926:	bf00      	nop
 8008928:	40010400 	andmi	r0, r1, r0, lsl #8
 800892c:	000fffff 	strdeq	pc, [pc], -pc	; <UNPREDICTABLE>

08008930 <EXTI_Init>:
 8008930:	7983      	ldrb	r3, [r0, #6]
 8008932:	b510      	push	{r4, lr}
 8008934:	6804      	ldr	r4, [r0, #0]
 8008936:	2b00      	cmp	r3, #0
 8008938:	d031      	beq.n	800899e <EXTI_Init+0x6e>
 800893a:	4b1e      	ldr	r3, [pc, #120]	; (80089b4 <EXTI_Init+0x84>)
 800893c:	6819      	ldr	r1, [r3, #0]
 800893e:	ea21 0204 	bic.w	r2, r1, r4
 8008942:	601a      	str	r2, [r3, #0]
 8008944:	685a      	ldr	r2, [r3, #4]
 8008946:	6801      	ldr	r1, [r0, #0]
 8008948:	ea22 0201 	bic.w	r2, r2, r1
 800894c:	605a      	str	r2, [r3, #4]
 800894e:	7902      	ldrb	r2, [r0, #4]
 8008950:	6801      	ldr	r1, [r0, #0]
 8008952:	f102 4280 	add.w	r2, r2, #1073741824	; 0x40000000
 8008956:	f502 3282 	add.w	r2, r2, #66560	; 0x10400
 800895a:	6814      	ldr	r4, [r2, #0]
 800895c:	4321      	orrs	r1, r4
 800895e:	6011      	str	r1, [r2, #0]
 8008960:	689a      	ldr	r2, [r3, #8]
 8008962:	6801      	ldr	r1, [r0, #0]
 8008964:	ea22 0201 	bic.w	r2, r2, r1
 8008968:	609a      	str	r2, [r3, #8]
 800896a:	68da      	ldr	r2, [r3, #12]
 800896c:	6801      	ldr	r1, [r0, #0]
 800896e:	ea22 0201 	bic.w	r2, r2, r1
 8008972:	60da      	str	r2, [r3, #12]
 8008974:	7942      	ldrb	r2, [r0, #5]
 8008976:	6801      	ldr	r1, [r0, #0]
 8008978:	2a10      	cmp	r2, #16
 800897a:	bf09      	itett	eq
 800897c:	689a      	ldreq	r2, [r3, #8]
 800897e:	f102 4380 	addne.w	r3, r2, #1073741824	; 0x40000000
 8008982:	4311      	orreq	r1, r2
 8008984:	6099      	streq	r1, [r3, #8]
 8008986:	bf13      	iteet	ne
 8008988:	f503 3382 	addne.w	r3, r3, #66560	; 0x10400
 800898c:	68d9      	ldreq	r1, [r3, #12]
 800898e:	6802      	ldreq	r2, [r0, #0]
 8008990:	681a      	ldrne	r2, [r3, #0]
 8008992:	bf0b      	itete	eq
 8008994:	430a      	orreq	r2, r1
 8008996:	4311      	orrne	r1, r2
 8008998:	60da      	streq	r2, [r3, #12]
 800899a:	6019      	strne	r1, [r3, #0]
 800899c:	bd10      	pop	{r4, pc}
 800899e:	7903      	ldrb	r3, [r0, #4]
 80089a0:	f103 4380 	add.w	r3, r3, #1073741824	; 0x40000000
 80089a4:	f503 3382 	add.w	r3, r3, #66560	; 0x10400
 80089a8:	681a      	ldr	r2, [r3, #0]
 80089aa:	ea22 0204 	bic.w	r2, r2, r4
 80089ae:	601a      	str	r2, [r3, #0]
 80089b0:	bd10      	pop	{r4, pc}
 80089b2:	bf00      	nop
 80089b4:	40010400 	andmi	r0, r1, r0, lsl #8

080089b8 <EXTI_GenerateSWInterrupt>:
 80089b8:	4a02      	ldr	r2, [pc, #8]	; (80089c4 <EXTI_GenerateSWInterrupt+0xc>)
 80089ba:	6913      	ldr	r3, [r2, #16]
 80089bc:	4318      	orrs	r0, r3
 80089be:	6110      	str	r0, [r2, #16]
 80089c0:	4770      	bx	lr
 80089c2:	bf00      	nop
 80089c4:	40010400 	andmi	r0, r1, r0, lsl #8

080089c8 <EXTI_GetITStatus>:
 80089c8:	4b05      	ldr	r3, [pc, #20]	; (80089e0 <EXTI_GetITStatus+0x18>)
 80089ca:	681a      	ldr	r2, [r3, #0]
 80089cc:	695b      	ldr	r3, [r3, #20]
 80089ce:	4003      	ands	r3, r0
 80089d0:	d004      	beq.n	80089dc <EXTI_GetITStatus+0x14>
 80089d2:	4210      	tst	r0, r2
 80089d4:	bf14      	ite	ne
 80089d6:	2001      	movne	r0, #1
 80089d8:	2000      	moveq	r0, #0
 80089da:	4770      	bx	lr
 80089dc:	4618      	mov	r0, r3
 80089de:	4770      	bx	lr
 80089e0:	40010400 	andmi	r0, r1, r0, lsl #8

080089e4 <EXTI_ClearITPendingBit>:
 80089e4:	4b01      	ldr	r3, [pc, #4]	; (80089ec <EXTI_ClearITPendingBit+0x8>)
 80089e6:	6158      	str	r0, [r3, #20]
 80089e8:	4770      	bx	lr
 80089ea:	bf00      	nop
 80089ec:	40010400 	andmi	r0, r1, r0, lsl #8

080089f0 <GPIO_Init>:
 80089f0:	78ca      	ldrb	r2, [r1, #3]
 80089f2:	b5f0      	push	{r4, r5, r6, r7, lr}
 80089f4:	f002 030f 	and.w	r3, r2, #15
 80089f8:	06d2      	lsls	r2, r2, #27
 80089fa:	bf44      	itt	mi
 80089fc:	788a      	ldrbmi	r2, [r1, #2]
 80089fe:	4313      	orrmi	r3, r2
 8008a00:	780a      	ldrb	r2, [r1, #0]
 8008a02:	b1da      	cbz	r2, 8008a3c <GPIO_Init+0x4c>
 8008a04:	6802      	ldr	r2, [r0, #0]
 8008a06:	2400      	movs	r4, #0
 8008a08:	2601      	movs	r6, #1
 8008a0a:	880d      	ldrh	r5, [r1, #0]
 8008a0c:	40a6      	lsls	r6, r4
 8008a0e:	4035      	ands	r5, r6
 8008a10:	42b5      	cmp	r5, r6
 8008a12:	d10f      	bne.n	8008a34 <GPIO_Init+0x44>
 8008a14:	00a7      	lsls	r7, r4, #2
 8008a16:	260f      	movs	r6, #15
 8008a18:	40be      	lsls	r6, r7
 8008a1a:	ea22 0206 	bic.w	r2, r2, r6
 8008a1e:	fa03 f607 	lsl.w	r6, r3, r7
 8008a22:	4332      	orrs	r2, r6
 8008a24:	78ce      	ldrb	r6, [r1, #3]
 8008a26:	2e28      	cmp	r6, #40	; 0x28
 8008a28:	d101      	bne.n	8008a2e <GPIO_Init+0x3e>
 8008a2a:	6145      	str	r5, [r0, #20]
 8008a2c:	e002      	b.n	8008a34 <GPIO_Init+0x44>
 8008a2e:	2e48      	cmp	r6, #72	; 0x48
 8008a30:	bf08      	it	eq
 8008a32:	6105      	streq	r5, [r0, #16]
 8008a34:	3401      	adds	r4, #1
 8008a36:	2c08      	cmp	r4, #8
 8008a38:	d1e6      	bne.n	8008a08 <GPIO_Init+0x18>
 8008a3a:	6002      	str	r2, [r0, #0]
 8008a3c:	880a      	ldrh	r2, [r1, #0]
 8008a3e:	2aff      	cmp	r2, #255	; 0xff
 8008a40:	d91d      	bls.n	8008a7e <GPIO_Init+0x8e>
 8008a42:	6842      	ldr	r2, [r0, #4]
 8008a44:	2400      	movs	r4, #0
 8008a46:	f104 0508 	add.w	r5, r4, #8
 8008a4a:	2601      	movs	r6, #1
 8008a4c:	40ae      	lsls	r6, r5
 8008a4e:	880d      	ldrh	r5, [r1, #0]
 8008a50:	4035      	ands	r5, r6
 8008a52:	42b5      	cmp	r5, r6
 8008a54:	d10f      	bne.n	8008a76 <GPIO_Init+0x86>
 8008a56:	00a7      	lsls	r7, r4, #2
 8008a58:	260f      	movs	r6, #15
 8008a5a:	40be      	lsls	r6, r7
 8008a5c:	ea22 0206 	bic.w	r2, r2, r6
 8008a60:	fa03 f607 	lsl.w	r6, r3, r7
 8008a64:	4332      	orrs	r2, r6
 8008a66:	78ce      	ldrb	r6, [r1, #3]
 8008a68:	2e28      	cmp	r6, #40	; 0x28
 8008a6a:	bf08      	it	eq
 8008a6c:	6145      	streq	r5, [r0, #20]
 8008a6e:	78ce      	ldrb	r6, [r1, #3]
 8008a70:	2e48      	cmp	r6, #72	; 0x48
 8008a72:	bf08      	it	eq
 8008a74:	6105      	streq	r5, [r0, #16]
 8008a76:	3401      	adds	r4, #1
 8008a78:	2c08      	cmp	r4, #8
 8008a7a:	d1e4      	bne.n	8008a46 <GPIO_Init+0x56>
 8008a7c:	6042      	str	r2, [r0, #4]
 8008a7e:	bdf0      	pop	{r4, r5, r6, r7, pc}

08008a80 <GPIO_ReadInputDataBit>:
 8008a80:	6883      	ldr	r3, [r0, #8]
 8008a82:	4219      	tst	r1, r3
 8008a84:	bf14      	ite	ne
 8008a86:	2001      	movne	r0, #1
 8008a88:	2000      	moveq	r0, #0
 8008a8a:	4770      	bx	lr

08008a8c <GPIO_SetBits>:
 8008a8c:	6101      	str	r1, [r0, #16]
 8008a8e:	4770      	bx	lr

08008a90 <GPIO_ResetBits>:
 8008a90:	6141      	str	r1, [r0, #20]
 8008a92:	4770      	bx	lr

08008a94 <GPIO_WriteBit>:
 8008a94:	b10a      	cbz	r2, 8008a9a <GPIO_WriteBit+0x6>
 8008a96:	6101      	str	r1, [r0, #16]
 8008a98:	4770      	bx	lr
 8008a9a:	6141      	str	r1, [r0, #20]
 8008a9c:	4770      	bx	lr

08008a9e <GPIO_EXTILineConfig>:
 8008a9e:	b510      	push	{r4, lr}
 8008aa0:	f001 0303 	and.w	r3, r1, #3
 8008aa4:	f001 01fc 	and.w	r1, r1, #252	; 0xfc
 8008aa8:	f101 4180 	add.w	r1, r1, #1073741824	; 0x40000000
 8008aac:	f501 3180 	add.w	r1, r1, #65536	; 0x10000
 8008ab0:	688c      	ldr	r4, [r1, #8]
 8008ab2:	009b      	lsls	r3, r3, #2
 8008ab4:	220f      	movs	r2, #15
 8008ab6:	409a      	lsls	r2, r3
 8008ab8:	ea24 0202 	bic.w	r2, r4, r2
 8008abc:	608a      	str	r2, [r1, #8]
 8008abe:	688a      	ldr	r2, [r1, #8]
 8008ac0:	4098      	lsls	r0, r3
 8008ac2:	4302      	orrs	r2, r0
 8008ac4:	608a      	str	r2, [r1, #8]
 8008ac6:	bd10      	pop	{r4, pc}

08008ac8 <I2C_DeInit>:
 8008ac8:	b508      	push	{r3, lr}
 8008aca:	4b0b      	ldr	r3, [pc, #44]	; (8008af8 <I2C_DeInit+0x30>)
 8008acc:	4298      	cmp	r0, r3
 8008ace:	d107      	bne.n	8008ae0 <I2C_DeInit+0x18>
 8008ad0:	f44f 1000 	mov.w	r0, #2097152	; 0x200000
 8008ad4:	2101      	movs	r1, #1
 8008ad6:	f000 f9d1 	bl	8008e7c <RCC_APB1PeriphResetCmd>
 8008ada:	f44f 1000 	mov.w	r0, #2097152	; 0x200000
 8008ade:	e006      	b.n	8008aee <I2C_DeInit+0x26>
 8008ae0:	f44f 0080 	mov.w	r0, #4194304	; 0x400000
 8008ae4:	2101      	movs	r1, #1
 8008ae6:	f000 f9c9 	bl	8008e7c <RCC_APB1PeriphResetCmd>
 8008aea:	f44f 0080 	mov.w	r0, #4194304	; 0x400000
 8008aee:	2100      	movs	r1, #0
 8008af0:	e8bd 4008 	ldmia.w	sp!, {r3, lr}
 8008af4:	f000 b9c2 	b.w	8008e7c <RCC_APB1PeriphResetCmd>
 8008af8:	40005400 	andmi	r5, r0, r0, lsl #8

08008afc <I2C_Init>:
 8008afc:	b570      	push	{r4, r5, r6, lr}
 8008afe:	b086      	sub	sp, #24
 8008b00:	4604      	mov	r4, r0
 8008b02:	8886      	ldrh	r6, [r0, #4]
 8008b04:	a801      	add	r0, sp, #4
 8008b06:	460d      	mov	r5, r1
 8008b08:	f000 f93e 	bl	8008d88 <RCC_GetClocksFreq>
 8008b0c:	9a03      	ldr	r2, [sp, #12]
 8008b0e:	482e      	ldr	r0, [pc, #184]	; (8008bc8 <I2C_Init+0xcc>)
 8008b10:	f026 063f 	bic.w	r6, r6, #63	; 0x3f
 8008b14:	fbb2 f0f0 	udiv	r0, r2, r0
 8008b18:	0436      	lsls	r6, r6, #16
 8008b1a:	0c36      	lsrs	r6, r6, #16
 8008b1c:	b281      	uxth	r1, r0
 8008b1e:	430e      	orrs	r6, r1
 8008b20:	80a6      	strh	r6, [r4, #4]
 8008b22:	8823      	ldrh	r3, [r4, #0]
 8008b24:	4e29      	ldr	r6, [pc, #164]	; (8008bcc <I2C_Init+0xd0>)
 8008b26:	f023 0301 	bic.w	r3, r3, #1
 8008b2a:	041b      	lsls	r3, r3, #16
 8008b2c:	0c1b      	lsrs	r3, r3, #16
 8008b2e:	8023      	strh	r3, [r4, #0]
 8008b30:	682b      	ldr	r3, [r5, #0]
 8008b32:	42b3      	cmp	r3, r6
 8008b34:	d80a      	bhi.n	8008b4c <I2C_Init+0x50>
 8008b36:	005b      	lsls	r3, r3, #1
 8008b38:	fbb2 f3f3 	udiv	r3, r2, r3
 8008b3c:	3101      	adds	r1, #1
 8008b3e:	b29b      	uxth	r3, r3
 8008b40:	2b03      	cmp	r3, #3
 8008b42:	b289      	uxth	r1, r1
 8008b44:	bf98      	it	ls
 8008b46:	2304      	movls	r3, #4
 8008b48:	8421      	strh	r1, [r4, #32]
 8008b4a:	e023      	b.n	8008b94 <I2C_Init+0x98>
 8008b4c:	f64b 71ff 	movw	r1, #49151	; 0xbfff
 8008b50:	88ee      	ldrh	r6, [r5, #6]
 8008b52:	428e      	cmp	r6, r1
 8008b54:	bf1b      	ittet	ne
 8008b56:	2119      	movne	r1, #25
 8008b58:	434b      	mulne	r3, r1
 8008b5a:	eb03 0343 	addeq.w	r3, r3, r3, lsl #1
 8008b5e:	fbb2 f3f3 	udivne	r3, r2, r3
 8008b62:	bf0b      	itete	eq
 8008b64:	fbb2 f3f3 	udiveq	r3, r2, r3
 8008b68:	b29b      	uxthne	r3, r3
 8008b6a:	b29b      	uxtheq	r3, r3
 8008b6c:	f443 4380 	orrne.w	r3, r3, #16384	; 0x4000
 8008b70:	f3c3 020b 	ubfx	r2, r3, #0, #12
 8008b74:	b90a      	cbnz	r2, 8008b7a <I2C_Init+0x7e>
 8008b76:	f043 0301 	orr.w	r3, r3, #1
 8008b7a:	f44f 7196 	mov.w	r1, #300	; 0x12c
 8008b7e:	fb01 f200 	mul.w	r2, r1, r0
 8008b82:	f44f 717a 	mov.w	r1, #1000	; 0x3e8
 8008b86:	fb92 f2f1 	sdiv	r2, r2, r1
 8008b8a:	3201      	adds	r2, #1
 8008b8c:	b292      	uxth	r2, r2
 8008b8e:	f443 4300 	orr.w	r3, r3, #32768	; 0x8000
 8008b92:	8422      	strh	r2, [r4, #32]
 8008b94:	83a3      	strh	r3, [r4, #28]
 8008b96:	8823      	ldrh	r3, [r4, #0]
 8008b98:	b29b      	uxth	r3, r3
 8008b9a:	f043 0301 	orr.w	r3, r3, #1
 8008b9e:	8023      	strh	r3, [r4, #0]
 8008ba0:	8823      	ldrh	r3, [r4, #0]
 8008ba2:	8969      	ldrh	r1, [r5, #10]
 8008ba4:	f423 6381 	bic.w	r3, r3, #1032	; 0x408
 8008ba8:	88aa      	ldrh	r2, [r5, #4]
 8008baa:	f023 0302 	bic.w	r3, r3, #2
 8008bae:	041b      	lsls	r3, r3, #16
 8008bb0:	430a      	orrs	r2, r1
 8008bb2:	0c1b      	lsrs	r3, r3, #16
 8008bb4:	4313      	orrs	r3, r2
 8008bb6:	b29b      	uxth	r3, r3
 8008bb8:	8023      	strh	r3, [r4, #0]
 8008bba:	892a      	ldrh	r2, [r5, #8]
 8008bbc:	89ab      	ldrh	r3, [r5, #12]
 8008bbe:	4313      	orrs	r3, r2
 8008bc0:	b29b      	uxth	r3, r3
 8008bc2:	8123      	strh	r3, [r4, #8]
 8008bc4:	b006      	add	sp, #24
 8008bc6:	bd70      	pop	{r4, r5, r6, pc}
 8008bc8:	000f4240 	andeq	r4, pc, r0, asr #4
 8008bcc:	000186a0 	andeq	r8, r1, r0, lsr #13

08008bd0 <I2C_Cmd>:
 8008bd0:	8803      	ldrh	r3, [r0, #0]
 8008bd2:	b119      	cbz	r1, 8008bdc <I2C_Cmd+0xc>
 8008bd4:	b29b      	uxth	r3, r3
 8008bd6:	f043 0301 	orr.w	r3, r3, #1
 8008bda:	e003      	b.n	8008be4 <I2C_Cmd+0x14>
 8008bdc:	f023 0301 	bic.w	r3, r3, #1
 8008be0:	041b      	lsls	r3, r3, #16
 8008be2:	0c1b      	lsrs	r3, r3, #16
 8008be4:	8003      	strh	r3, [r0, #0]
 8008be6:	4770      	bx	lr

08008be8 <I2C_GenerateSTART>:
 8008be8:	8803      	ldrh	r3, [r0, #0]
 8008bea:	b119      	cbz	r1, 8008bf4 <I2C_GenerateSTART+0xc>
 8008bec:	b29b      	uxth	r3, r3
 8008bee:	f443 7380 	orr.w	r3, r3, #256	; 0x100
 8008bf2:	e003      	b.n	8008bfc <I2C_GenerateSTART+0x14>
 8008bf4:	f423 7380 	bic.w	r3, r3, #256	; 0x100
 8008bf8:	041b      	lsls	r3, r3, #16
 8008bfa:	0c1b      	lsrs	r3, r3, #16
 8008bfc:	8003      	strh	r3, [r0, #0]
 8008bfe:	4770      	bx	lr

08008c00 <I2C_GenerateSTOP>:
 8008c00:	8803      	ldrh	r3, [r0, #0]
 8008c02:	b119      	cbz	r1, 8008c0c <I2C_GenerateSTOP+0xc>
 8008c04:	b29b      	uxth	r3, r3
 8008c06:	f443 7300 	orr.w	r3, r3, #512	; 0x200
 8008c0a:	e003      	b.n	8008c14 <I2C_GenerateSTOP+0x14>
 8008c0c:	f423 7300 	bic.w	r3, r3, #512	; 0x200
 8008c10:	041b      	lsls	r3, r3, #16
 8008c12:	0c1b      	lsrs	r3, r3, #16
 8008c14:	8003      	strh	r3, [r0, #0]
 8008c16:	4770      	bx	lr

08008c18 <I2C_AcknowledgeConfig>:
 8008c18:	8803      	ldrh	r3, [r0, #0]
 8008c1a:	b119      	cbz	r1, 8008c24 <I2C_AcknowledgeConfig+0xc>
 8008c1c:	b29b      	uxth	r3, r3
 8008c1e:	f443 6380 	orr.w	r3, r3, #1024	; 0x400
 8008c22:	e003      	b.n	8008c2c <I2C_AcknowledgeConfig+0x14>
 8008c24:	f423 6380 	bic.w	r3, r3, #1024	; 0x400
 8008c28:	041b      	lsls	r3, r3, #16
 8008c2a:	0c1b      	lsrs	r3, r3, #16
 8008c2c:	8003      	strh	r3, [r0, #0]
 8008c2e:	4770      	bx	lr

08008c30 <I2C_ITConfig>:
 8008c30:	8883      	ldrh	r3, [r0, #4]
 8008c32:	b29b      	uxth	r3, r3
 8008c34:	b10a      	cbz	r2, 8008c3a <I2C_ITConfig+0xa>
 8008c36:	4319      	orrs	r1, r3
 8008c38:	e001      	b.n	8008c3e <I2C_ITConfig+0xe>
 8008c3a:	ea23 0101 	bic.w	r1, r3, r1
 8008c3e:	8081      	strh	r1, [r0, #4]
 8008c40:	4770      	bx	lr

08008c42 <I2C_SendData>:
 8008c42:	8201      	strh	r1, [r0, #16]
 8008c44:	4770      	bx	lr

08008c46 <I2C_ReceiveData>:
 8008c46:	8a00      	ldrh	r0, [r0, #16]
 8008c48:	b2c0      	uxtb	r0, r0
 8008c4a:	4770      	bx	lr

08008c4c <I2C_Send7bitAddress>:
 8008c4c:	b112      	cbz	r2, 8008c54 <I2C_Send7bitAddress+0x8>
 8008c4e:	f041 0101 	orr.w	r1, r1, #1
 8008c52:	e001      	b.n	8008c58 <I2C_Send7bitAddress+0xc>
 8008c54:	f001 01fe 	and.w	r1, r1, #254	; 0xfe
 8008c58:	b289      	uxth	r1, r1
 8008c5a:	8201      	strh	r1, [r0, #16]
 8008c5c:	4770      	bx	lr

08008c5e <I2C_SoftwareResetCmd>:
 8008c5e:	8803      	ldrh	r3, [r0, #0]
 8008c60:	b129      	cbz	r1, 8008c6e <I2C_SoftwareResetCmd+0x10>
 8008c62:	ea6f 4343 	mvn.w	r3, r3, lsl #17
 8008c66:	ea6f 4353 	mvn.w	r3, r3, lsr #17
 8008c6a:	b29b      	uxth	r3, r3
 8008c6c:	e001      	b.n	8008c72 <I2C_SoftwareResetCmd+0x14>
 8008c6e:	f3c3 030e 	ubfx	r3, r3, #0, #15
 8008c72:	8003      	strh	r3, [r0, #0]
 8008c74:	4770      	bx	lr
	...

08008c78 <IWDG_WriteAccessCmd>:
 8008c78:	4b01      	ldr	r3, [pc, #4]	; (8008c80 <IWDG_WriteAccessCmd+0x8>)
 8008c7a:	6018      	str	r0, [r3, #0]
 8008c7c:	4770      	bx	lr
 8008c7e:	bf00      	nop
 8008c80:	40003000 	andmi	r3, r0, r0

08008c84 <IWDG_SetPrescaler>:
 8008c84:	4b01      	ldr	r3, [pc, #4]	; (8008c8c <IWDG_SetPrescaler+0x8>)
 8008c86:	6058      	str	r0, [r3, #4]
 8008c88:	4770      	bx	lr
 8008c8a:	bf00      	nop
 8008c8c:	40003000 	andmi	r3, r0, r0

08008c90 <IWDG_SetReload>:
 8008c90:	4b01      	ldr	r3, [pc, #4]	; (8008c98 <IWDG_SetReload+0x8>)
 8008c92:	6098      	str	r0, [r3, #8]
 8008c94:	4770      	bx	lr
 8008c96:	bf00      	nop
 8008c98:	40003000 	andmi	r3, r0, r0

08008c9c <IWDG_ReloadCounter>:
 8008c9c:	f64a 22aa 	movw	r2, #43690	; 0xaaaa
 8008ca0:	4b01      	ldr	r3, [pc, #4]	; (8008ca8 <IWDG_ReloadCounter+0xc>)
 8008ca2:	601a      	str	r2, [r3, #0]
 8008ca4:	4770      	bx	lr
 8008ca6:	bf00      	nop
 8008ca8:	40003000 	andmi	r3, r0, r0

08008cac <IWDG_Enable>:
 8008cac:	f64c 42cc 	movw	r2, #52428	; 0xcccc
 8008cb0:	4b01      	ldr	r3, [pc, #4]	; (8008cb8 <IWDG_Enable+0xc>)
 8008cb2:	601a      	str	r2, [r3, #0]
 8008cb4:	4770      	bx	lr
 8008cb6:	bf00      	nop
 8008cb8:	40003000 	andmi	r3, r0, r0

08008cbc <PWR_DeInit>:
 8008cbc:	b508      	push	{r3, lr}
 8008cbe:	f04f 5080 	mov.w	r0, #268435456	; 0x10000000
 8008cc2:	2101      	movs	r1, #1
 8008cc4:	f000 f8da 	bl	8008e7c <RCC_APB1PeriphResetCmd>
 8008cc8:	e8bd 4008 	ldmia.w	sp!, {r3, lr}
 8008ccc:	f04f 5080 	mov.w	r0, #268435456	; 0x10000000
 8008cd0:	2100      	movs	r1, #0
 8008cd2:	f000 b8d3 	b.w	8008e7c <RCC_APB1PeriphResetCmd>
	...

08008cd8 <PWR_BackupAccessCmd>:
 8008cd8:	4b01      	ldr	r3, [pc, #4]	; (8008ce0 <PWR_BackupAccessCmd+0x8>)
 8008cda:	6018      	str	r0, [r3, #0]
 8008cdc:	4770      	bx	lr
 8008cde:	bf00      	nop
 8008ce0:	420e0020 	andmi	r0, lr, #32

08008ce4 <PWR_WakeUpPinCmd>:
 8008ce4:	4b01      	ldr	r3, [pc, #4]	; (8008cec <PWR_WakeUpPinCmd+0x8>)
 8008ce6:	6018      	str	r0, [r3, #0]
 8008ce8:	4770      	bx	lr
 8008cea:	bf00      	nop
 8008cec:	420e00a0 	andmi	r0, lr, #160	; 0xa0

08008cf0 <PWR_EnterSTANDBYMode>:
 8008cf0:	4b07      	ldr	r3, [pc, #28]	; (8008d10 <PWR_EnterSTANDBYMode+0x20>)
 8008cf2:	681a      	ldr	r2, [r3, #0]
 8008cf4:	f042 0204 	orr.w	r2, r2, #4
 8008cf8:	601a      	str	r2, [r3, #0]
 8008cfa:	681a      	ldr	r2, [r3, #0]
 8008cfc:	f042 0202 	orr.w	r2, r2, #2
 8008d00:	601a      	str	r2, [r3, #0]
 8008d02:	4a04      	ldr	r2, [pc, #16]	; (8008d14 <PWR_EnterSTANDBYMode+0x24>)
 8008d04:	6813      	ldr	r3, [r2, #0]
 8008d06:	f043 0304 	orr.w	r3, r3, #4
 8008d0a:	6013      	str	r3, [r2, #0]
 8008d0c:	bf30      	wfi
 8008d0e:	4770      	bx	lr
 8008d10:	40007000 	andmi	r7, r0, r0
 8008d14:	e000ed10 	and	lr, r0, r0, lsl sp

08008d18 <RCC_HCLKConfig>:
 8008d18:	4a03      	ldr	r2, [pc, #12]	; (8008d28 <RCC_HCLKConfig+0x10>)
 8008d1a:	6853      	ldr	r3, [r2, #4]
 8008d1c:	f023 03f0 	bic.w	r3, r3, #240	; 0xf0
 8008d20:	4318      	orrs	r0, r3
 8008d22:	6050      	str	r0, [r2, #4]
 8008d24:	4770      	bx	lr
 8008d26:	bf00      	nop
 8008d28:	40021000 	andmi	r1, r2, r0

08008d2c <RCC_USBCLKConfig>:
 8008d2c:	4b01      	ldr	r3, [pc, #4]	; (8008d34 <RCC_USBCLKConfig+0x8>)
 8008d2e:	6018      	str	r0, [r3, #0]
 8008d30:	4770      	bx	lr
 8008d32:	bf00      	nop
 8008d34:	424200d8 	submi	r0, r2, #216	; 0xd8

08008d38 <RCC_ADCCLKConfig>:
 8008d38:	4a03      	ldr	r2, [pc, #12]	; (8008d48 <RCC_ADCCLKConfig+0x10>)
 8008d3a:	6853      	ldr	r3, [r2, #4]
 8008d3c:	f423 4340 	bic.w	r3, r3, #49152	; 0xc000
 8008d40:	4318      	orrs	r0, r3
 8008d42:	6050      	str	r0, [r2, #4]
 8008d44:	4770      	bx	lr
 8008d46:	bf00      	nop
 8008d48:	40021000 	andmi	r1, r2, r0

08008d4c <RCC_LSEConfig>:
 8008d4c:	4b06      	ldr	r3, [pc, #24]	; (8008d68 <RCC_LSEConfig+0x1c>)
 8008d4e:	2200      	movs	r2, #0
 8008d50:	2801      	cmp	r0, #1
 8008d52:	701a      	strb	r2, [r3, #0]
 8008d54:	701a      	strb	r2, [r3, #0]
 8008d56:	d002      	beq.n	8008d5e <RCC_LSEConfig+0x12>
 8008d58:	2804      	cmp	r0, #4
 8008d5a:	d002      	beq.n	8008d62 <RCC_LSEConfig+0x16>
 8008d5c:	4770      	bx	lr
 8008d5e:	7018      	strb	r0, [r3, #0]
 8008d60:	4770      	bx	lr
 8008d62:	2205      	movs	r2, #5
 8008d64:	701a      	strb	r2, [r3, #0]
 8008d66:	4770      	bx	lr
 8008d68:	40021020 	andmi	r1, r2, r0, lsr #32

08008d6c <RCC_RTCCLKConfig>:
 8008d6c:	4a02      	ldr	r2, [pc, #8]	; (8008d78 <RCC_RTCCLKConfig+0xc>)
 8008d6e:	6a13      	ldr	r3, [r2, #32]
 8008d70:	4318      	orrs	r0, r3
 8008d72:	6210      	str	r0, [r2, #32]
 8008d74:	4770      	bx	lr
 8008d76:	bf00      	nop
 8008d78:	40021000 	andmi	r1, r2, r0

08008d7c <RCC_RTCCLKCmd>:
 8008d7c:	4b01      	ldr	r3, [pc, #4]	; (8008d84 <RCC_RTCCLKCmd+0x8>)
 8008d7e:	6018      	str	r0, [r3, #0]
 8008d80:	4770      	bx	lr
 8008d82:	bf00      	nop
 8008d84:	4242043c 	submi	r0, r2, #60, 8	; 0x3c000000

08008d88 <RCC_GetClocksFreq>:
 8008d88:	b510      	push	{r4, lr}
 8008d8a:	4a1d      	ldr	r2, [pc, #116]	; (8008e00 <RCC_GetClocksFreq+0x78>)
 8008d8c:	6853      	ldr	r3, [r2, #4]
 8008d8e:	f003 030c 	and.w	r3, r3, #12
 8008d92:	2b04      	cmp	r3, #4
 8008d94:	d003      	beq.n	8008d9e <RCC_GetClocksFreq+0x16>
 8008d96:	2b08      	cmp	r3, #8
 8008d98:	d003      	beq.n	8008da2 <RCC_GetClocksFreq+0x1a>
 8008d9a:	4b1a      	ldr	r3, [pc, #104]	; (8008e04 <RCC_GetClocksFreq+0x7c>)
 8008d9c:	e011      	b.n	8008dc2 <RCC_GetClocksFreq+0x3a>
 8008d9e:	4b1a      	ldr	r3, [pc, #104]	; (8008e08 <RCC_GetClocksFreq+0x80>)
 8008da0:	e00f      	b.n	8008dc2 <RCC_GetClocksFreq+0x3a>
 8008da2:	6853      	ldr	r3, [r2, #4]
 8008da4:	6851      	ldr	r1, [r2, #4]
 8008da6:	f3c3 4383 	ubfx	r3, r3, #18, #4
 8008daa:	03cc      	lsls	r4, r1, #15
 8008dac:	f103 0302 	add.w	r3, r3, #2
 8008db0:	d401      	bmi.n	8008db6 <RCC_GetClocksFreq+0x2e>
 8008db2:	4916      	ldr	r1, [pc, #88]	; (8008e0c <RCC_GetClocksFreq+0x84>)
 8008db4:	e004      	b.n	8008dc0 <RCC_GetClocksFreq+0x38>
 8008db6:	6851      	ldr	r1, [r2, #4]
 8008db8:	0389      	lsls	r1, r1, #14
 8008dba:	bf4c      	ite	mi
 8008dbc:	4914      	ldrmi	r1, [pc, #80]	; (8008e10 <RCC_GetClocksFreq+0x88>)
 8008dbe:	4912      	ldrpl	r1, [pc, #72]	; (8008e08 <RCC_GetClocksFreq+0x80>)
 8008dc0:	434b      	muls	r3, r1
 8008dc2:	6003      	str	r3, [r0, #0]
 8008dc4:	6853      	ldr	r3, [r2, #4]
 8008dc6:	4c13      	ldr	r4, [pc, #76]	; (8008e14 <RCC_GetClocksFreq+0x8c>)
 8008dc8:	f3c3 1303 	ubfx	r3, r3, #4, #4
 8008dcc:	5ce1      	ldrb	r1, [r4, r3]
 8008dce:	6803      	ldr	r3, [r0, #0]
 8008dd0:	40cb      	lsrs	r3, r1
 8008dd2:	6043      	str	r3, [r0, #4]
 8008dd4:	6851      	ldr	r1, [r2, #4]
 8008dd6:	f3c1 2102 	ubfx	r1, r1, #8, #3
 8008dda:	5c61      	ldrb	r1, [r4, r1]
 8008ddc:	fa23 f101 	lsr.w	r1, r3, r1
 8008de0:	6081      	str	r1, [r0, #8]
 8008de2:	6851      	ldr	r1, [r2, #4]
 8008de4:	f3c1 21c2 	ubfx	r1, r1, #11, #3
 8008de8:	5c61      	ldrb	r1, [r4, r1]
 8008dea:	40cb      	lsrs	r3, r1
 8008dec:	60c3      	str	r3, [r0, #12]
 8008dee:	6852      	ldr	r2, [r2, #4]
 8008df0:	4909      	ldr	r1, [pc, #36]	; (8008e18 <RCC_GetClocksFreq+0x90>)
 8008df2:	f3c2 3281 	ubfx	r2, r2, #14, #2
 8008df6:	5c8a      	ldrb	r2, [r1, r2]
 8008df8:	fbb3 f3f2 	udiv	r3, r3, r2
 8008dfc:	6103      	str	r3, [r0, #16]
 8008dfe:	bd10      	pop	{r4, pc}
 8008e00:	40021000 	andmi	r1, r2, r0
 8008e04:	007a1200 	rsbseq	r1, sl, r0, lsl #4
 8008e08:	00b71b00 	adcseq	r1, r7, r0, lsl #22
 8008e0c:	003d0900 	eorseq	r0, sp, r0, lsl #18
 8008e10:	005b8d80 	subseq	r8, fp, r0, lsl #27
 8008e14:	20000598 	mulcs	r0, r8, r5
 8008e18:	20000594 	mulcs	r0, r4, r5

08008e1c <RCC_AHBPeriphClockCmd>:
 8008e1c:	4b04      	ldr	r3, [pc, #16]	; (8008e30 <RCC_AHBPeriphClockCmd+0x14>)
 8008e1e:	695a      	ldr	r2, [r3, #20]
 8008e20:	b109      	cbz	r1, 8008e26 <RCC_AHBPeriphClockCmd+0xa>
 8008e22:	4310      	orrs	r0, r2
 8008e24:	e001      	b.n	8008e2a <RCC_AHBPeriphClockCmd+0xe>
 8008e26:	ea22 0000 	bic.w	r0, r2, r0
 8008e2a:	6158      	str	r0, [r3, #20]
 8008e2c:	4770      	bx	lr
 8008e2e:	bf00      	nop
 8008e30:	40021000 	andmi	r1, r2, r0

08008e34 <RCC_APB2PeriphClockCmd>:
 8008e34:	4b04      	ldr	r3, [pc, #16]	; (8008e48 <RCC_APB2PeriphClockCmd+0x14>)
 8008e36:	699a      	ldr	r2, [r3, #24]
 8008e38:	b109      	cbz	r1, 8008e3e <RCC_APB2PeriphClockCmd+0xa>
 8008e3a:	4310      	orrs	r0, r2
 8008e3c:	e001      	b.n	8008e42 <RCC_APB2PeriphClockCmd+0xe>
 8008e3e:	ea22 0000 	bic.w	r0, r2, r0
 8008e42:	6198      	str	r0, [r3, #24]
 8008e44:	4770      	bx	lr
 8008e46:	bf00      	nop
 8008e48:	40021000 	andmi	r1, r2, r0

08008e4c <RCC_APB1PeriphClockCmd>:
 8008e4c:	4b04      	ldr	r3, [pc, #16]	; (8008e60 <RCC_APB1PeriphClockCmd+0x14>)
 8008e4e:	69da      	ldr	r2, [r3, #28]
 8008e50:	b109      	cbz	r1, 8008e56 <RCC_APB1PeriphClockCmd+0xa>
 8008e52:	4310      	orrs	r0, r2
 8008e54:	e001      	b.n	8008e5a <RCC_APB1PeriphClockCmd+0xe>
 8008e56:	ea22 0000 	bic.w	r0, r2, r0
 8008e5a:	61d8      	str	r0, [r3, #28]
 8008e5c:	4770      	bx	lr
 8008e5e:	bf00      	nop
 8008e60:	40021000 	andmi	r1, r2, r0

08008e64 <RCC_APB2PeriphResetCmd>:
 8008e64:	4b04      	ldr	r3, [pc, #16]	; (8008e78 <RCC_APB2PeriphResetCmd+0x14>)
 8008e66:	68da      	ldr	r2, [r3, #12]
 8008e68:	b109      	cbz	r1, 8008e6e <RCC_APB2PeriphResetCmd+0xa>
 8008e6a:	4310      	orrs	r0, r2
 8008e6c:	e001      	b.n	8008e72 <RCC_APB2PeriphResetCmd+0xe>
 8008e6e:	ea22 0000 	bic.w	r0, r2, r0
 8008e72:	60d8      	str	r0, [r3, #12]
 8008e74:	4770      	bx	lr
 8008e76:	bf00      	nop
 8008e78:	40021000 	andmi	r1, r2, r0

08008e7c <RCC_APB1PeriphResetCmd>:
 8008e7c:	4b04      	ldr	r3, [pc, #16]	; (8008e90 <RCC_APB1PeriphResetCmd+0x14>)
 8008e7e:	691a      	ldr	r2, [r3, #16]
 8008e80:	b109      	cbz	r1, 8008e86 <RCC_APB1PeriphResetCmd+0xa>
 8008e82:	4310      	orrs	r0, r2
 8008e84:	e001      	b.n	8008e8a <RCC_APB1PeriphResetCmd+0xe>
 8008e86:	ea22 0000 	bic.w	r0, r2, r0
 8008e8a:	6118      	str	r0, [r3, #16]
 8008e8c:	4770      	bx	lr
 8008e8e:	bf00      	nop
 8008e90:	40021000 	andmi	r1, r2, r0

08008e94 <RCC_BackupResetCmd>:
 8008e94:	4b01      	ldr	r3, [pc, #4]	; (8008e9c <RCC_BackupResetCmd+0x8>)
 8008e96:	6018      	str	r0, [r3, #0]
 8008e98:	4770      	bx	lr
 8008e9a:	bf00      	nop
 8008e9c:	42420440 	submi	r0, r2, #64, 8	; 0x40000000

08008ea0 <RCC_GetFlagStatus>:
 8008ea0:	0942      	lsrs	r2, r0, #5
 8008ea2:	2a01      	cmp	r2, #1
 8008ea4:	4b07      	ldr	r3, [pc, #28]	; (8008ec4 <RCC_GetFlagStatus+0x24>)
 8008ea6:	d101      	bne.n	8008eac <RCC_GetFlagStatus+0xc>
 8008ea8:	681b      	ldr	r3, [r3, #0]
 8008eaa:	e003      	b.n	8008eb4 <RCC_GetFlagStatus+0x14>
 8008eac:	2a02      	cmp	r2, #2
 8008eae:	bf0c      	ite	eq
 8008eb0:	6a1b      	ldreq	r3, [r3, #32]
 8008eb2:	6a5b      	ldrne	r3, [r3, #36]	; 0x24
 8008eb4:	f000 001f 	and.w	r0, r0, #31
 8008eb8:	fa23 f000 	lsr.w	r0, r3, r0
 8008ebc:	f000 0001 	and.w	r0, r0, #1
 8008ec0:	4770      	bx	lr
 8008ec2:	bf00      	nop
 8008ec4:	40021000 	andmi	r1, r2, r0

08008ec8 <RTC_EnterConfigMode>:
 8008ec8:	4a03      	ldr	r2, [pc, #12]	; (8008ed8 <RTC_EnterConfigMode+0x10>)
 8008eca:	8893      	ldrh	r3, [r2, #4]
 8008ecc:	b29b      	uxth	r3, r3
 8008ece:	f043 0310 	orr.w	r3, r3, #16
 8008ed2:	8093      	strh	r3, [r2, #4]
 8008ed4:	4770      	bx	lr
 8008ed6:	bf00      	nop
 8008ed8:	40002800 	andmi	r2, r0, r0, lsl #16

08008edc <RTC_ExitConfigMode>:
 8008edc:	4a03      	ldr	r2, [pc, #12]	; (8008eec <RTC_ExitConfigMode+0x10>)
 8008ede:	8893      	ldrh	r3, [r2, #4]
 8008ee0:	f023 0310 	bic.w	r3, r3, #16
 8008ee4:	041b      	lsls	r3, r3, #16
 8008ee6:	0c1b      	lsrs	r3, r3, #16
 8008ee8:	8093      	strh	r3, [r2, #4]
 8008eea:	4770      	bx	lr
 8008eec:	40002800 	andmi	r2, r0, r0, lsl #16

08008ef0 <RTC_GetCounter>:
 8008ef0:	4a03      	ldr	r2, [pc, #12]	; (8008f00 <RTC_GetCounter+0x10>)
 8008ef2:	8b93      	ldrh	r3, [r2, #28]
 8008ef4:	8b10      	ldrh	r0, [r2, #24]
 8008ef6:	b29b      	uxth	r3, r3
 8008ef8:	ea43 4000 	orr.w	r0, r3, r0, lsl #16
 8008efc:	4770      	bx	lr
 8008efe:	bf00      	nop
 8008f00:	40002800 	andmi	r2, r0, r0, lsl #16

08008f04 <RTC_SetCounter>:
 8008f04:	b510      	push	{r4, lr}
 8008f06:	4604      	mov	r4, r0
 8008f08:	f7ff ffde 	bl	8008ec8 <RTC_EnterConfigMode>
 8008f0c:	4b04      	ldr	r3, [pc, #16]	; (8008f20 <RTC_SetCounter+0x1c>)
 8008f0e:	0c22      	lsrs	r2, r4, #16
 8008f10:	b2a4      	uxth	r4, r4
 8008f12:	831a      	strh	r2, [r3, #24]
 8008f14:	839c      	strh	r4, [r3, #28]
 8008f16:	e8bd 4010 	ldmia.w	sp!, {r4, lr}
 8008f1a:	f7ff bfdf 	b.w	8008edc <RTC_ExitConfigMode>
 8008f1e:	bf00      	nop
 8008f20:	40002800 	andmi	r2, r0, r0, lsl #16

08008f24 <RTC_SetPrescaler>:
 8008f24:	b510      	push	{r4, lr}
 8008f26:	4604      	mov	r4, r0
 8008f28:	f7ff ffce 	bl	8008ec8 <RTC_EnterConfigMode>
 8008f2c:	4b04      	ldr	r3, [pc, #16]	; (8008f40 <RTC_SetPrescaler+0x1c>)
 8008f2e:	f3c4 4203 	ubfx	r2, r4, #16, #4
 8008f32:	b2a4      	uxth	r4, r4
 8008f34:	811a      	strh	r2, [r3, #8]
 8008f36:	819c      	strh	r4, [r3, #12]
 8008f38:	e8bd 4010 	ldmia.w	sp!, {r4, lr}
 8008f3c:	f7ff bfce 	b.w	8008edc <RTC_ExitConfigMode>
 8008f40:	40002800 	andmi	r2, r0, r0, lsl #16

08008f44 <RTC_WaitForLastTask>:
 8008f44:	4b02      	ldr	r3, [pc, #8]	; (8008f50 <RTC_WaitForLastTask+0xc>)
 8008f46:	889b      	ldrh	r3, [r3, #4]
 8008f48:	069b      	lsls	r3, r3, #26
 8008f4a:	d5fb      	bpl.n	8008f44 <RTC_WaitForLastTask>
 8008f4c:	4770      	bx	lr
 8008f4e:	bf00      	nop
 8008f50:	40002800 	andmi	r2, r0, r0, lsl #16

08008f54 <RTC_WaitForSynchro>:
 8008f54:	4a05      	ldr	r2, [pc, #20]	; (8008f6c <RTC_WaitForSynchro+0x18>)
 8008f56:	8893      	ldrh	r3, [r2, #4]
 8008f58:	f023 0308 	bic.w	r3, r3, #8
 8008f5c:	041b      	lsls	r3, r3, #16
 8008f5e:	0c1b      	lsrs	r3, r3, #16
 8008f60:	8093      	strh	r3, [r2, #4]
 8008f62:	8893      	ldrh	r3, [r2, #4]
 8008f64:	071b      	lsls	r3, r3, #28
 8008f66:	d5fc      	bpl.n	8008f62 <RTC_WaitForSynchro+0xe>
 8008f68:	4770      	bx	lr
 8008f6a:	bf00      	nop
 8008f6c:	40002800 	andmi	r2, r0, r0, lsl #16

08008f70 <SPI_Init>:
 8008f70:	8803      	ldrh	r3, [r0, #0]
 8008f72:	884a      	ldrh	r2, [r1, #2]
 8008f74:	b510      	push	{r4, lr}
 8008f76:	f403 5441 	and.w	r4, r3, #12352	; 0x3040
 8008f7a:	880b      	ldrh	r3, [r1, #0]
 8008f7c:	4313      	orrs	r3, r2
 8008f7e:	888a      	ldrh	r2, [r1, #4]
 8008f80:	4313      	orrs	r3, r2
 8008f82:	88ca      	ldrh	r2, [r1, #6]
 8008f84:	4313      	orrs	r3, r2
 8008f86:	890a      	ldrh	r2, [r1, #8]
 8008f88:	4313      	orrs	r3, r2
 8008f8a:	894a      	ldrh	r2, [r1, #10]
 8008f8c:	4313      	orrs	r3, r2
 8008f8e:	898a      	ldrh	r2, [r1, #12]
 8008f90:	4313      	orrs	r3, r2
 8008f92:	89ca      	ldrh	r2, [r1, #14]
 8008f94:	4313      	orrs	r3, r2
 8008f96:	4323      	orrs	r3, r4
 8008f98:	b29b      	uxth	r3, r3
 8008f9a:	8003      	strh	r3, [r0, #0]
 8008f9c:	8b83      	ldrh	r3, [r0, #28]
 8008f9e:	f423 6300 	bic.w	r3, r3, #2048	; 0x800
 8008fa2:	041b      	lsls	r3, r3, #16
 8008fa4:	0c1b      	lsrs	r3, r3, #16
 8008fa6:	8383      	strh	r3, [r0, #28]
 8008fa8:	8a0b      	ldrh	r3, [r1, #16]
 8008faa:	8203      	strh	r3, [r0, #16]
 8008fac:	bd10      	pop	{r4, pc}

08008fae <SPI_Cmd>:
 8008fae:	8803      	ldrh	r3, [r0, #0]
 8008fb0:	b119      	cbz	r1, 8008fba <SPI_Cmd+0xc>
 8008fb2:	b29b      	uxth	r3, r3
 8008fb4:	f043 0340 	orr.w	r3, r3, #64	; 0x40
 8008fb8:	e003      	b.n	8008fc2 <SPI_Cmd+0x14>
 8008fba:	f023 0340 	bic.w	r3, r3, #64	; 0x40
 8008fbe:	041b      	lsls	r3, r3, #16
 8008fc0:	0c1b      	lsrs	r3, r3, #16
 8008fc2:	8003      	strh	r3, [r0, #0]
 8008fc4:	4770      	bx	lr

08008fc6 <SPI_I2S_DMACmd>:
 8008fc6:	8883      	ldrh	r3, [r0, #4]
 8008fc8:	b29b      	uxth	r3, r3
 8008fca:	b10a      	cbz	r2, 8008fd0 <SPI_I2S_DMACmd+0xa>
 8008fcc:	4319      	orrs	r1, r3
 8008fce:	e001      	b.n	8008fd4 <SPI_I2S_DMACmd+0xe>
 8008fd0:	ea23 0101 	bic.w	r1, r3, r1
 8008fd4:	8081      	strh	r1, [r0, #4]
 8008fd6:	4770      	bx	lr

08008fd8 <SPI_I2S_SendData>:
 8008fd8:	8181      	strh	r1, [r0, #12]
 8008fda:	4770      	bx	lr

08008fdc <SPI_I2S_ReceiveData>:
 8008fdc:	8980      	ldrh	r0, [r0, #12]
 8008fde:	b280      	uxth	r0, r0
 8008fe0:	4770      	bx	lr

08008fe2 <SPI_CalculateCRC>:
 8008fe2:	8803      	ldrh	r3, [r0, #0]
 8008fe4:	b119      	cbz	r1, 8008fee <SPI_CalculateCRC+0xc>
 8008fe6:	b29b      	uxth	r3, r3
 8008fe8:	f443 5300 	orr.w	r3, r3, #8192	; 0x2000
 8008fec:	e003      	b.n	8008ff6 <SPI_CalculateCRC+0x14>
 8008fee:	f423 5300 	bic.w	r3, r3, #8192	; 0x2000
 8008ff2:	041b      	lsls	r3, r3, #16
 8008ff4:	0c1b      	lsrs	r3, r3, #16
 8008ff6:	8003      	strh	r3, [r0, #0]
 8008ff8:	4770      	bx	lr

08008ffa <SPI_I2S_GetFlagStatus>:
 8008ffa:	8903      	ldrh	r3, [r0, #8]
 8008ffc:	4219      	tst	r1, r3
 8008ffe:	bf14      	ite	ne
 8009000:	2001      	movne	r0, #1
 8009002:	2000      	moveq	r0, #0
 8009004:	4770      	bx	lr
	...

08009008 <TIM_TimeBaseInit>:
 8009008:	8803      	ldrh	r3, [r0, #0]
 800900a:	f003 038f 	and.w	r3, r3, #143	; 0x8f
 800900e:	8003      	strh	r3, [r0, #0]
 8009010:	8803      	ldrh	r3, [r0, #0]
 8009012:	88ca      	ldrh	r2, [r1, #6]
 8009014:	b29b      	uxth	r3, r3
 8009016:	4313      	orrs	r3, r2
 8009018:	884a      	ldrh	r2, [r1, #2]
 800901a:	4313      	orrs	r3, r2
 800901c:	b29b      	uxth	r3, r3
 800901e:	8003      	strh	r3, [r0, #0]
 8009020:	888b      	ldrh	r3, [r1, #4]
 8009022:	8583      	strh	r3, [r0, #44]	; 0x2c
 8009024:	880b      	ldrh	r3, [r1, #0]
 8009026:	8503      	strh	r3, [r0, #40]	; 0x28
 8009028:	4b05      	ldr	r3, [pc, #20]	; (8009040 <TIM_TimeBaseInit+0x38>)
 800902a:	4298      	cmp	r0, r3
 800902c:	d003      	beq.n	8009036 <TIM_TimeBaseInit+0x2e>
 800902e:	f503 6300 	add.w	r3, r3, #2048	; 0x800
 8009032:	4298      	cmp	r0, r3
 8009034:	d101      	bne.n	800903a <TIM_TimeBaseInit+0x32>
 8009036:	7a0b      	ldrb	r3, [r1, #8]
 8009038:	8603      	strh	r3, [r0, #48]	; 0x30
 800903a:	2301      	movs	r3, #1
 800903c:	8283      	strh	r3, [r0, #20]
 800903e:	4770      	bx	lr
 8009040:	40012c00 	andmi	r2, r1, r0, lsl #24

08009044 <TIM_OC1Init>:
 8009044:	8c03      	ldrh	r3, [r0, #32]
 8009046:	b570      	push	{r4, r5, r6, lr}
 8009048:	f023 0301 	bic.w	r3, r3, #1
 800904c:	041b      	lsls	r3, r3, #16
 800904e:	0c1b      	lsrs	r3, r3, #16
 8009050:	8403      	strh	r3, [r0, #32]
 8009052:	8c03      	ldrh	r3, [r0, #32]
 8009054:	8884      	ldrh	r4, [r0, #4]
 8009056:	8b02      	ldrh	r2, [r0, #24]
 8009058:	880e      	ldrh	r6, [r1, #0]
 800905a:	f022 0270 	bic.w	r2, r2, #112	; 0x70
 800905e:	0412      	lsls	r2, r2, #16
 8009060:	0c12      	lsrs	r2, r2, #16
 8009062:	f023 0502 	bic.w	r5, r3, #2
 8009066:	4316      	orrs	r6, r2
 8009068:	884b      	ldrh	r3, [r1, #2]
 800906a:	890a      	ldrh	r2, [r1, #8]
 800906c:	042d      	lsls	r5, r5, #16
 800906e:	4313      	orrs	r3, r2
 8009070:	88ca      	ldrh	r2, [r1, #6]
 8009072:	0c2d      	lsrs	r5, r5, #16
 8009074:	8682      	strh	r2, [r0, #52]	; 0x34
 8009076:	4a0f      	ldr	r2, [pc, #60]	; (80090b4 <TIM_OC1Init+0x70>)
 8009078:	432b      	orrs	r3, r5
 800907a:	4290      	cmp	r0, r2
 800907c:	b2a4      	uxth	r4, r4
 800907e:	b29b      	uxth	r3, r3
 8009080:	d003      	beq.n	800908a <TIM_OC1Init+0x46>
 8009082:	f502 6200 	add.w	r2, r2, #2048	; 0x800
 8009086:	4290      	cmp	r0, r2
 8009088:	d10f      	bne.n	80090aa <TIM_OC1Init+0x66>
 800908a:	f647 45ff 	movw	r5, #31999	; 0x7cff
 800908e:	894a      	ldrh	r2, [r1, #10]
 8009090:	f023 0308 	bic.w	r3, r3, #8
 8009094:	4313      	orrs	r3, r2
 8009096:	888a      	ldrh	r2, [r1, #4]
 8009098:	f023 0304 	bic.w	r3, r3, #4
 800909c:	4025      	ands	r5, r4
 800909e:	4313      	orrs	r3, r2
 80090a0:	89cc      	ldrh	r4, [r1, #14]
 80090a2:	898a      	ldrh	r2, [r1, #12]
 80090a4:	4314      	orrs	r4, r2
 80090a6:	432c      	orrs	r4, r5
 80090a8:	b2a4      	uxth	r4, r4
 80090aa:	8084      	strh	r4, [r0, #4]
 80090ac:	8306      	strh	r6, [r0, #24]
 80090ae:	8403      	strh	r3, [r0, #32]
 80090b0:	bd70      	pop	{r4, r5, r6, pc}
 80090b2:	bf00      	nop
 80090b4:	40012c00 	andmi	r2, r1, r0, lsl #24

080090b8 <TIM_Cmd>:
 80090b8:	8803      	ldrh	r3, [r0, #0]
 80090ba:	b119      	cbz	r1, 80090c4 <TIM_Cmd+0xc>
 80090bc:	b29b      	uxth	r3, r3
 80090be:	f043 0301 	orr.w	r3, r3, #1
 80090c2:	e003      	b.n	80090cc <TIM_Cmd+0x14>
 80090c4:	f023 0301 	bic.w	r3, r3, #1
 80090c8:	059b      	lsls	r3, r3, #22
 80090ca:	0d9b      	lsrs	r3, r3, #22
 80090cc:	8003      	strh	r3, [r0, #0]
 80090ce:	4770      	bx	lr

080090d0 <TIM_CtrlPWMOutputs>:
 80090d0:	f8b0 3044 	ldrh.w	r3, [r0, #68]	; 0x44
 80090d4:	b129      	cbz	r1, 80090e2 <TIM_CtrlPWMOutputs+0x12>
 80090d6:	ea6f 4343 	mvn.w	r3, r3, lsl #17
 80090da:	ea6f 4353 	mvn.w	r3, r3, lsr #17
 80090de:	b29b      	uxth	r3, r3
 80090e0:	e001      	b.n	80090e6 <TIM_CtrlPWMOutputs+0x16>
 80090e2:	f3c3 030e 	ubfx	r3, r3, #0, #15
 80090e6:	f8a0 3044 	strh.w	r3, [r0, #68]	; 0x44
 80090ea:	4770      	bx	lr

080090ec <TIM_ARRPreloadConfig>:
 80090ec:	8803      	ldrh	r3, [r0, #0]
 80090ee:	b119      	cbz	r1, 80090f8 <TIM_ARRPreloadConfig+0xc>
 80090f0:	b29b      	uxth	r3, r3
 80090f2:	f043 0380 	orr.w	r3, r3, #128	; 0x80
 80090f6:	e003      	b.n	8009100 <TIM_ARRPreloadConfig+0x14>
 80090f8:	f023 0380 	bic.w	r3, r3, #128	; 0x80
 80090fc:	059b      	lsls	r3, r3, #22
 80090fe:	0d9b      	lsrs	r3, r3, #22
 8009100:	8003      	strh	r3, [r0, #0]
 8009102:	4770      	bx	lr

08009104 <TIM_OC1PreloadConfig>:
 8009104:	8b03      	ldrh	r3, [r0, #24]
 8009106:	f023 0308 	bic.w	r3, r3, #8
 800910a:	041b      	lsls	r3, r3, #16
 800910c:	0c1b      	lsrs	r3, r3, #16
 800910e:	4319      	orrs	r1, r3
 8009110:	8301      	strh	r1, [r0, #24]
 8009112:	4770      	bx	lr

08009114 <TIM_SetCompare1>:
 8009114:	8681      	strh	r1, [r0, #52]	; 0x34
 8009116:	4770      	bx	lr

08009118 <USART_DeInit>:
 8009118:	b508      	push	{r3, lr}
 800911a:	4b20      	ldr	r3, [pc, #128]	; (800919c <USART_DeInit+0x84>)
 800911c:	4298      	cmp	r0, r3
 800911e:	d10b      	bne.n	8009138 <USART_DeInit+0x20>
 8009120:	f44f 4080 	mov.w	r0, #16384	; 0x4000
 8009124:	2101      	movs	r1, #1
 8009126:	f7ff fe9d 	bl	8008e64 <RCC_APB2PeriphResetCmd>
 800912a:	e8bd 4008 	ldmia.w	sp!, {r3, lr}
 800912e:	f44f 4080 	mov.w	r0, #16384	; 0x4000
 8009132:	2100      	movs	r1, #0
 8009134:	f7ff be96 	b.w	8008e64 <RCC_APB2PeriphResetCmd>
 8009138:	4b19      	ldr	r3, [pc, #100]	; (80091a0 <USART_DeInit+0x88>)
 800913a:	4298      	cmp	r0, r3
 800913c:	d107      	bne.n	800914e <USART_DeInit+0x36>
 800913e:	f44f 3000 	mov.w	r0, #131072	; 0x20000
 8009142:	2101      	movs	r1, #1
 8009144:	f7ff fe9a 	bl	8008e7c <RCC_APB1PeriphResetCmd>
 8009148:	f44f 3000 	mov.w	r0, #131072	; 0x20000
 800914c:	e01f      	b.n	800918e <USART_DeInit+0x76>
 800914e:	4b15      	ldr	r3, [pc, #84]	; (80091a4 <USART_DeInit+0x8c>)
 8009150:	4298      	cmp	r0, r3
 8009152:	d107      	bne.n	8009164 <USART_DeInit+0x4c>
 8009154:	f44f 2080 	mov.w	r0, #262144	; 0x40000
 8009158:	2101      	movs	r1, #1
 800915a:	f7ff fe8f 	bl	8008e7c <RCC_APB1PeriphResetCmd>
 800915e:	f44f 2080 	mov.w	r0, #262144	; 0x40000
 8009162:	e014      	b.n	800918e <USART_DeInit+0x76>
 8009164:	4b10      	ldr	r3, [pc, #64]	; (80091a8 <USART_DeInit+0x90>)
 8009166:	4298      	cmp	r0, r3
 8009168:	d107      	bne.n	800917a <USART_DeInit+0x62>
 800916a:	f44f 2000 	mov.w	r0, #524288	; 0x80000
 800916e:	2101      	movs	r1, #1
 8009170:	f7ff fe84 	bl	8008e7c <RCC_APB1PeriphResetCmd>
 8009174:	f44f 2000 	mov.w	r0, #524288	; 0x80000
 8009178:	e009      	b.n	800918e <USART_DeInit+0x76>
 800917a:	4b0c      	ldr	r3, [pc, #48]	; (80091ac <USART_DeInit+0x94>)
 800917c:	4298      	cmp	r0, r3
 800917e:	d10b      	bne.n	8009198 <USART_DeInit+0x80>
 8009180:	f44f 1080 	mov.w	r0, #1048576	; 0x100000
 8009184:	2101      	movs	r1, #1
 8009186:	f7ff fe79 	bl	8008e7c <RCC_APB1PeriphResetCmd>
 800918a:	f44f 1080 	mov.w	r0, #1048576	; 0x100000
 800918e:	2100      	movs	r1, #0
 8009190:	e8bd 4008 	ldmia.w	sp!, {r3, lr}
 8009194:	f7ff be72 	b.w	8008e7c <RCC_APB1PeriphResetCmd>
 8009198:	bd08      	pop	{r3, pc}
 800919a:	bf00      	nop
 800919c:	40013800 	andmi	r3, r1, r0, lsl #16
 80091a0:	40004400 	andmi	r4, r0, r0, lsl #8
 80091a4:	40004800 	andmi	r4, r0, r0, lsl #16
 80091a8:	40004c00 	andmi	r4, r0, r0, lsl #24
 80091ac:	40005000 	andmi	r5, r0, r0

080091b0 <USART_Init>:
 80091b0:	b530      	push	{r4, r5, lr}
 80091b2:	460d      	mov	r5, r1
 80091b4:	4604      	mov	r4, r0
 80091b6:	8a03      	ldrh	r3, [r0, #16]
 80091b8:	88ca      	ldrh	r2, [r1, #6]
 80091ba:	b29b      	uxth	r3, r3
 80091bc:	f423 5340 	bic.w	r3, r3, #12288	; 0x3000
 80091c0:	4313      	orrs	r3, r2
 80091c2:	8203      	strh	r3, [r0, #16]
 80091c4:	8982      	ldrh	r2, [r0, #12]
 80091c6:	8909      	ldrh	r1, [r1, #8]
 80091c8:	88ab      	ldrh	r3, [r5, #4]
 80091ca:	b292      	uxth	r2, r2
 80091cc:	430b      	orrs	r3, r1
 80091ce:	8969      	ldrh	r1, [r5, #10]
 80091d0:	f422 52b0 	bic.w	r2, r2, #5632	; 0x1600
 80091d4:	430b      	orrs	r3, r1
 80091d6:	f022 020c 	bic.w	r2, r2, #12
 80091da:	4313      	orrs	r3, r2
 80091dc:	b29b      	uxth	r3, r3
 80091de:	8183      	strh	r3, [r0, #12]
 80091e0:	8a83      	ldrh	r3, [r0, #20]
 80091e2:	89aa      	ldrh	r2, [r5, #12]
 80091e4:	b29b      	uxth	r3, r3
 80091e6:	f423 7340 	bic.w	r3, r3, #768	; 0x300
 80091ea:	b087      	sub	sp, #28
 80091ec:	4313      	orrs	r3, r2
 80091ee:	8283      	strh	r3, [r0, #20]
 80091f0:	a801      	add	r0, sp, #4
 80091f2:	f7ff fdc9 	bl	8008d88 <RCC_GetClocksFreq>
 80091f6:	9b03      	ldr	r3, [sp, #12]
 80091f8:	9a04      	ldr	r2, [sp, #16]
 80091fa:	490e      	ldr	r1, [pc, #56]	; (8009234 <USART_Init+0x84>)
 80091fc:	428c      	cmp	r4, r1
 80091fe:	bf18      	it	ne
 8009200:	461a      	movne	r2, r3
 8009202:	2319      	movs	r3, #25
 8009204:	4353      	muls	r3, r2
 8009206:	682a      	ldr	r2, [r5, #0]
 8009208:	0092      	lsls	r2, r2, #2
 800920a:	fbb3 f2f2 	udiv	r2, r3, r2
 800920e:	2364      	movs	r3, #100	; 0x64
 8009210:	fbb2 f0f3 	udiv	r0, r2, r3
 8009214:	0100      	lsls	r0, r0, #4
 8009216:	0901      	lsrs	r1, r0, #4
 8009218:	fb03 2211 	mls	r2, r3, r1, r2
 800921c:	0112      	lsls	r2, r2, #4
 800921e:	3232      	adds	r2, #50	; 0x32
 8009220:	fbb2 f3f3 	udiv	r3, r2, r3
 8009224:	f003 030f 	and.w	r3, r3, #15
 8009228:	4303      	orrs	r3, r0
 800922a:	b29b      	uxth	r3, r3
 800922c:	8123      	strh	r3, [r4, #8]
 800922e:	b007      	add	sp, #28
 8009230:	bd30      	pop	{r4, r5, pc}
 8009232:	bf00      	nop
 8009234:	40013800 	andmi	r3, r1, r0, lsl #16

08009238 <USART_Cmd>:
 8009238:	8983      	ldrh	r3, [r0, #12]
 800923a:	b119      	cbz	r1, 8009244 <USART_Cmd+0xc>
 800923c:	b29b      	uxth	r3, r3
 800923e:	f443 5300 	orr.w	r3, r3, #8192	; 0x2000
 8009242:	e003      	b.n	800924c <USART_Cmd+0x14>
 8009244:	f423 5300 	bic.w	r3, r3, #8192	; 0x2000
 8009248:	041b      	lsls	r3, r3, #16
 800924a:	0c1b      	lsrs	r3, r3, #16
 800924c:	8183      	strh	r3, [r0, #12]
 800924e:	4770      	bx	lr

08009250 <USART_ITConfig>:
 8009250:	b510      	push	{r4, lr}
 8009252:	f3c1 1442 	ubfx	r4, r1, #5, #3
 8009256:	2301      	movs	r3, #1
 8009258:	f001 011f 	and.w	r1, r1, #31
 800925c:	2c01      	cmp	r4, #1
 800925e:	fa03 f301 	lsl.w	r3, r3, r1
 8009262:	d101      	bne.n	8009268 <USART_ITConfig+0x18>
 8009264:	300c      	adds	r0, #12
 8009266:	e003      	b.n	8009270 <USART_ITConfig+0x20>
 8009268:	2c02      	cmp	r4, #2
 800926a:	bf0c      	ite	eq
 800926c:	3010      	addeq	r0, #16
 800926e:	3014      	addne	r0, #20
 8009270:	b112      	cbz	r2, 8009278 <USART_ITConfig+0x28>
 8009272:	6802      	ldr	r2, [r0, #0]
 8009274:	4313      	orrs	r3, r2
 8009276:	e002      	b.n	800927e <USART_ITConfig+0x2e>
 8009278:	6802      	ldr	r2, [r0, #0]
 800927a:	ea22 0303 	bic.w	r3, r2, r3
 800927e:	6003      	str	r3, [r0, #0]
 8009280:	bd10      	pop	{r4, pc}

08009282 <USART_DMACmd>:
 8009282:	8a83      	ldrh	r3, [r0, #20]
 8009284:	b29b      	uxth	r3, r3
 8009286:	b10a      	cbz	r2, 800928c <USART_DMACmd+0xa>
 8009288:	4319      	orrs	r1, r3
 800928a:	e001      	b.n	8009290 <USART_DMACmd+0xe>
 800928c:	ea23 0101 	bic.w	r1, r3, r1
 8009290:	8281      	strh	r1, [r0, #20]
 8009292:	4770      	bx	lr

08009294 <USART_SendData>:
 8009294:	f3c1 0108 	ubfx	r1, r1, #0, #9
 8009298:	8081      	strh	r1, [r0, #4]
 800929a:	4770      	bx	lr

0800929c <USART_ReceiveData>:
 800929c:	8880      	ldrh	r0, [r0, #4]
 800929e:	f3c0 0008 	ubfx	r0, r0, #0, #9
 80092a2:	4770      	bx	lr

080092a4 <USART_GetFlagStatus>:
 80092a4:	8803      	ldrh	r3, [r0, #0]
 80092a6:	4219      	tst	r1, r3
 80092a8:	bf14      	ite	ne
 80092aa:	2001      	movne	r0, #1
 80092ac:	2000      	moveq	r0, #0
 80092ae:	4770      	bx	lr

080092b0 <USART_GetITStatus>:
 80092b0:	2301      	movs	r3, #1
 80092b2:	b510      	push	{r4, lr}
 80092b4:	f3c1 1442 	ubfx	r4, r1, #5, #3
 80092b8:	f001 021f 	and.w	r2, r1, #31
 80092bc:	429c      	cmp	r4, r3
 80092be:	fa03 f202 	lsl.w	r2, r3, r2
 80092c2:	d101      	bne.n	80092c8 <USART_GetITStatus+0x18>
 80092c4:	8983      	ldrh	r3, [r0, #12]
 80092c6:	e003      	b.n	80092d0 <USART_GetITStatus+0x20>
 80092c8:	2c02      	cmp	r4, #2
 80092ca:	bf0c      	ite	eq
 80092cc:	8a03      	ldrheq	r3, [r0, #16]
 80092ce:	8a83      	ldrhne	r3, [r0, #20]
 80092d0:	b29b      	uxth	r3, r3
 80092d2:	4013      	ands	r3, r2
 80092d4:	8802      	ldrh	r2, [r0, #0]
 80092d6:	b292      	uxth	r2, r2
 80092d8:	b13b      	cbz	r3, 80092ea <USART_GetITStatus+0x3a>
 80092da:	0a09      	lsrs	r1, r1, #8
 80092dc:	2301      	movs	r3, #1
 80092de:	408b      	lsls	r3, r1
 80092e0:	4213      	tst	r3, r2
 80092e2:	bf14      	ite	ne
 80092e4:	2001      	movne	r0, #1
 80092e6:	2000      	moveq	r0, #0
 80092e8:	bd10      	pop	{r4, pc}
 80092ea:	4618      	mov	r0, r3
 80092ec:	bd10      	pop	{r4, pc}

080092ee <USART_ClearITPendingBit>:
 80092ee:	0a09      	lsrs	r1, r1, #8
 80092f0:	2301      	movs	r3, #1
 80092f2:	408b      	lsls	r3, r1
 80092f4:	43db      	mvns	r3, r3
 80092f6:	b29b      	uxth	r3, r3
 80092f8:	8003      	strh	r3, [r0, #0]
 80092fa:	4770      	bx	lr

080092fc <Standard_GetConfiguration>:
 80092fc:	b510      	push	{r4, lr}
 80092fe:	4c06      	ldr	r4, [pc, #24]	; (8009318 <Standard_GetConfiguration+0x1c>)
 8009300:	b918      	cbnz	r0, 800930a <Standard_GetConfiguration+0xe>
 8009302:	6823      	ldr	r3, [r4, #0]
 8009304:	2201      	movs	r2, #1
 8009306:	821a      	strh	r2, [r3, #16]
 8009308:	bd10      	pop	{r4, pc}
 800930a:	4b04      	ldr	r3, [pc, #16]	; (800931c <Standard_GetConfiguration+0x20>)
 800930c:	681b      	ldr	r3, [r3, #0]
 800930e:	681b      	ldr	r3, [r3, #0]
 8009310:	4798      	blx	r3
 8009312:	6820      	ldr	r0, [r4, #0]
 8009314:	300a      	adds	r0, #10
 8009316:	bd10      	pop	{r4, pc}
 8009318:	200018d4 	ldrdcs	r1, [r0], -r4
 800931c:	200018d0 	ldrdcs	r1, [r0], -r0

08009320 <Standard_GetInterface>:
 8009320:	b510      	push	{r4, lr}
 8009322:	4c06      	ldr	r4, [pc, #24]	; (800933c <Standard_GetInterface+0x1c>)
 8009324:	b918      	cbnz	r0, 800932e <Standard_GetInterface+0xe>
 8009326:	6823      	ldr	r3, [r4, #0]
 8009328:	2201      	movs	r2, #1
 800932a:	821a      	strh	r2, [r3, #16]
 800932c:	bd10      	pop	{r4, pc}
 800932e:	4b04      	ldr	r3, [pc, #16]	; (8009340 <Standard_GetInterface+0x20>)
 8009330:	681b      	ldr	r3, [r3, #0]
 8009332:	689b      	ldr	r3, [r3, #8]
 8009334:	4798      	blx	r3
 8009336:	6820      	ldr	r0, [r4, #0]
 8009338:	300c      	adds	r0, #12
 800933a:	bd10      	pop	{r4, pc}
 800933c:	200018d4 	ldrdcs	r1, [r0], -r4
 8009340:	200018d0 	ldrdcs	r1, [r0], -r0

08009344 <Standard_GetStatus>:
 8009344:	b510      	push	{r4, lr}
 8009346:	4a20      	ldr	r2, [pc, #128]	; (80093c8 <Standard_GetStatus+0x84>)
 8009348:	b918      	cbnz	r0, 8009352 <Standard_GetStatus+0xe>
 800934a:	6813      	ldr	r3, [r2, #0]
 800934c:	2202      	movs	r2, #2
 800934e:	821a      	strh	r2, [r3, #16]
 8009350:	bd10      	pop	{r4, pc}
 8009352:	481e      	ldr	r0, [pc, #120]	; (80093cc <Standard_GetStatus+0x88>)
 8009354:	6814      	ldr	r4, [r2, #0]
 8009356:	2300      	movs	r3, #0
 8009358:	8003      	strh	r3, [r0, #0]
 800935a:	7821      	ldrb	r1, [r4, #0]
 800935c:	4602      	mov	r2, r0
 800935e:	f011 017f 	ands.w	r1, r1, #127	; 0x7f
 8009362:	d10d      	bne.n	8009380 <Standard_GetStatus+0x3c>
 8009364:	7a63      	ldrb	r3, [r4, #9]
 8009366:	0699      	lsls	r1, r3, #26
 8009368:	bf44      	itt	mi
 800936a:	2102      	movmi	r1, #2
 800936c:	7001      	strbmi	r1, [r0, #0]
 800936e:	f013 0f40 	tst.w	r3, #64	; 0x40
 8009372:	7803      	ldrb	r3, [r0, #0]
 8009374:	bf14      	ite	ne
 8009376:	f043 0301 	orrne.w	r3, r3, #1
 800937a:	f023 0301 	biceq.w	r3, r3, #1
 800937e:	e014      	b.n	80093aa <Standard_GetStatus+0x66>
 8009380:	2901      	cmp	r1, #1
 8009382:	d020      	beq.n	80093c6 <Standard_GetStatus+0x82>
 8009384:	2902      	cmp	r1, #2
 8009386:	d11d      	bne.n	80093c4 <Standard_GetStatus+0x80>
 8009388:	7961      	ldrb	r1, [r4, #5]
 800938a:	f001 030f 	and.w	r3, r1, #15
 800938e:	009b      	lsls	r3, r3, #2
 8009390:	f103 4380 	add.w	r3, r3, #1073741824	; 0x40000000
 8009394:	f503 43b8 	add.w	r3, r3, #23552	; 0x5c00
 8009398:	f011 0f80 	tst.w	r1, #128	; 0x80
 800939c:	681b      	ldr	r3, [r3, #0]
 800939e:	d006      	beq.n	80093ae <Standard_GetStatus+0x6a>
 80093a0:	f003 0330 	and.w	r3, r3, #48	; 0x30
 80093a4:	2b10      	cmp	r3, #16
 80093a6:	d107      	bne.n	80093b8 <Standard_GetStatus+0x74>
 80093a8:	2301      	movs	r3, #1
 80093aa:	7013      	strb	r3, [r2, #0]
 80093ac:	e004      	b.n	80093b8 <Standard_GetStatus+0x74>
 80093ae:	f403 5340 	and.w	r3, r3, #12288	; 0x3000
 80093b2:	f5b3 5f80 	cmp.w	r3, #4096	; 0x1000
 80093b6:	e7f6      	b.n	80093a6 <Standard_GetStatus+0x62>
 80093b8:	4b05      	ldr	r3, [pc, #20]	; (80093d0 <Standard_GetStatus+0x8c>)
 80093ba:	681b      	ldr	r3, [r3, #0]
 80093bc:	691b      	ldr	r3, [r3, #16]
 80093be:	4798      	blx	r3
 80093c0:	4802      	ldr	r0, [pc, #8]	; (80093cc <Standard_GetStatus+0x88>)
 80093c2:	bd10      	pop	{r4, pc}
 80093c4:	4618      	mov	r0, r3
 80093c6:	bd10      	pop	{r4, pc}
 80093c8:	200018d4 	ldrdcs	r1, [r0], -r4
 80093cc:	200018a4 	andcs	r1, r0, r4, lsr #17
 80093d0:	200018d0 	ldrdcs	r1, [r0], -r0

080093d4 <DataStageIn>:
 80093d4:	e92d 43f8 	stmdb	sp!, {r3, r4, r5, r6, r7, r8, r9, lr}
 80093d8:	4f23      	ldr	r7, [pc, #140]	; (8009468 <DataStageIn+0x94>)
 80093da:	f8df 80a0 	ldr.w	r8, [pc, #160]	; 800947c <DataStageIn+0xa8>
 80093de:	683d      	ldr	r5, [r7, #0]
 80093e0:	8a2b      	ldrh	r3, [r5, #16]
 80093e2:	7a2e      	ldrb	r6, [r5, #8]
 80093e4:	b9bb      	cbnz	r3, 8009416 <DataStageIn+0x42>
 80093e6:	2e04      	cmp	r6, #4
 80093e8:	d115      	bne.n	8009416 <DataStageIn+0x42>
 80093ea:	4820      	ldr	r0, [pc, #128]	; (800946c <DataStageIn+0x98>)
 80093ec:	7802      	ldrb	r2, [r0, #0]
 80093ee:	2a01      	cmp	r2, #1
 80093f0:	d10c      	bne.n	800940c <DataStageIn+0x38>
 80093f2:	4a1f      	ldr	r2, [pc, #124]	; (8009470 <DataStageIn+0x9c>)
 80093f4:	6811      	ldr	r1, [r2, #0]
 80093f6:	4a1f      	ldr	r2, [pc, #124]	; (8009474 <DataStageIn+0xa0>)
 80093f8:	b289      	uxth	r1, r1
 80093fa:	440a      	add	r2, r1
 80093fc:	0052      	lsls	r2, r2, #1
 80093fe:	8013      	strh	r3, [r2, #0]
 8009400:	8053      	strh	r3, [r2, #2]
 8009402:	2230      	movs	r2, #48	; 0x30
 8009404:	f8a8 2000 	strh.w	r2, [r8]
 8009408:	7003      	strb	r3, [r0, #0]
 800940a:	e029      	b.n	8009460 <DataStageIn+0x8c>
 800940c:	2310      	movs	r3, #16
 800940e:	f8a8 3000 	strh.w	r3, [r8]
 8009412:	2607      	movs	r6, #7
 8009414:	e024      	b.n	8009460 <DataStageIn+0x8c>
 8009416:	8aac      	ldrh	r4, [r5, #20]
 8009418:	42a3      	cmp	r3, r4
 800941a:	bf94      	ite	ls
 800941c:	2604      	movls	r6, #4
 800941e:	2602      	movhi	r6, #2
 8009420:	429c      	cmp	r4, r3
 8009422:	bf28      	it	cs
 8009424:	461c      	movcs	r4, r3
 8009426:	69ab      	ldr	r3, [r5, #24]
 8009428:	4620      	mov	r0, r4
 800942a:	4798      	blx	r3
 800942c:	4681      	mov	r9, r0
 800942e:	2000      	movs	r0, #0
 8009430:	f000 fd66 	bl	8009f00 <GetEPTxAddr>
 8009434:	4622      	mov	r2, r4
 8009436:	4601      	mov	r1, r0
 8009438:	4648      	mov	r0, r9
 800943a:	f000 fc85 	bl	8009d48 <UserToPMABufferCopy>
 800943e:	2000      	movs	r0, #0
 8009440:	4621      	mov	r1, r4
 8009442:	f000 fd7d 	bl	8009f40 <SetEPTxCount>
 8009446:	8a2b      	ldrh	r3, [r5, #16]
 8009448:	f44f 5240 	mov.w	r2, #12288	; 0x3000
 800944c:	1b1b      	subs	r3, r3, r4
 800944e:	822b      	strh	r3, [r5, #16]
 8009450:	8a6b      	ldrh	r3, [r5, #18]
 8009452:	4423      	add	r3, r4
 8009454:	826b      	strh	r3, [r5, #18]
 8009456:	2330      	movs	r3, #48	; 0x30
 8009458:	f8a8 3000 	strh.w	r3, [r8]
 800945c:	4b06      	ldr	r3, [pc, #24]	; (8009478 <DataStageIn+0xa4>)
 800945e:	801a      	strh	r2, [r3, #0]
 8009460:	683b      	ldr	r3, [r7, #0]
 8009462:	721e      	strb	r6, [r3, #8]
 8009464:	e8bd 83f8 	ldmia.w	sp!, {r3, r4, r5, r6, r7, r8, r9, pc}
 8009468:	200018d4 	ldrdcs	r1, [r0], -r4
 800946c:	20001898 	mulcs	r0, r8, r8
 8009470:	40005c50 	andmi	r5, r0, r0, asr ip
 8009474:	20003002 	andcs	r3, r0, r2
 8009478:	200018da 	ldrdcs	r1, [r0], -sl
 800947c:	200018dc 	ldrdcs	r1, [r0], -ip

08009480 <Standard_SetConfiguration>:
 8009480:	b510      	push	{r4, lr}
 8009482:	4b0a      	ldr	r3, [pc, #40]	; (80094ac <Standard_SetConfiguration+0x2c>)
 8009484:	490a      	ldr	r1, [pc, #40]	; (80094b0 <Standard_SetConfiguration+0x30>)
 8009486:	681b      	ldr	r3, [r3, #0]
 8009488:	7849      	ldrb	r1, [r1, #1]
 800948a:	78da      	ldrb	r2, [r3, #3]
 800948c:	4291      	cmp	r1, r2
 800948e:	d30a      	bcc.n	80094a6 <Standard_SetConfiguration+0x26>
 8009490:	7899      	ldrb	r1, [r3, #2]
 8009492:	b941      	cbnz	r1, 80094a6 <Standard_SetConfiguration+0x26>
 8009494:	889c      	ldrh	r4, [r3, #4]
 8009496:	b934      	cbnz	r4, 80094a6 <Standard_SetConfiguration+0x26>
 8009498:	729a      	strb	r2, [r3, #10]
 800949a:	4b06      	ldr	r3, [pc, #24]	; (80094b4 <Standard_SetConfiguration+0x34>)
 800949c:	681b      	ldr	r3, [r3, #0]
 800949e:	685b      	ldr	r3, [r3, #4]
 80094a0:	4798      	blx	r3
 80094a2:	4620      	mov	r0, r4
 80094a4:	bd10      	pop	{r4, pc}
 80094a6:	2002      	movs	r0, #2
 80094a8:	bd10      	pop	{r4, pc}
 80094aa:	bf00      	nop
 80094ac:	200018d4 	ldrdcs	r1, [r0], -r4
 80094b0:	200000f5 	strdcs	r0, [r0], -r5
 80094b4:	200018d0 	ldrdcs	r1, [r0], -r0

080094b8 <Standard_SetInterface>:
 80094b8:	b538      	push	{r3, r4, r5, lr}
 80094ba:	4a0e      	ldr	r2, [pc, #56]	; (80094f4 <Standard_SetInterface+0x3c>)
 80094bc:	4d0e      	ldr	r5, [pc, #56]	; (80094f8 <Standard_SetInterface+0x40>)
 80094be:	6812      	ldr	r2, [r2, #0]
 80094c0:	682b      	ldr	r3, [r5, #0]
 80094c2:	6992      	ldr	r2, [r2, #24]
 80094c4:	7958      	ldrb	r0, [r3, #5]
 80094c6:	78d9      	ldrb	r1, [r3, #3]
 80094c8:	4790      	blx	r2
 80094ca:	682b      	ldr	r3, [r5, #0]
 80094cc:	7a9a      	ldrb	r2, [r3, #10]
 80094ce:	b17a      	cbz	r2, 80094f0 <Standard_SetInterface+0x38>
 80094d0:	b970      	cbnz	r0, 80094f0 <Standard_SetInterface+0x38>
 80094d2:	791a      	ldrb	r2, [r3, #4]
 80094d4:	b962      	cbnz	r2, 80094f0 <Standard_SetInterface+0x38>
 80094d6:	789c      	ldrb	r4, [r3, #2]
 80094d8:	b954      	cbnz	r4, 80094f0 <Standard_SetInterface+0x38>
 80094da:	4b08      	ldr	r3, [pc, #32]	; (80094fc <Standard_SetInterface+0x44>)
 80094dc:	681b      	ldr	r3, [r3, #0]
 80094de:	68db      	ldr	r3, [r3, #12]
 80094e0:	4798      	blx	r3
 80094e2:	682b      	ldr	r3, [r5, #0]
 80094e4:	4620      	mov	r0, r4
 80094e6:	795a      	ldrb	r2, [r3, #5]
 80094e8:	72da      	strb	r2, [r3, #11]
 80094ea:	78da      	ldrb	r2, [r3, #3]
 80094ec:	731a      	strb	r2, [r3, #12]
 80094ee:	bd38      	pop	{r3, r4, r5, pc}
 80094f0:	2002      	movs	r0, #2
 80094f2:	bd38      	pop	{r3, r4, r5, pc}
 80094f4:	200018ac 	andcs	r1, r0, ip, lsr #17
 80094f8:	200018d4 	ldrdcs	r1, [r0], -r4
 80094fc:	200018d0 	ldrdcs	r1, [r0], -r0

08009500 <Standard_ClearFeature>:
 8009500:	b538      	push	{r3, r4, r5, lr}
 8009502:	4b31      	ldr	r3, [pc, #196]	; (80095c8 <Standard_ClearFeature+0xc8>)
 8009504:	681b      	ldr	r3, [r3, #0]
 8009506:	7818      	ldrb	r0, [r3, #0]
 8009508:	f010 007f 	ands.w	r0, r0, #127	; 0x7f
 800950c:	d104      	bne.n	8009518 <Standard_ClearFeature+0x18>
 800950e:	7a5a      	ldrb	r2, [r3, #9]
 8009510:	f022 0220 	bic.w	r2, r2, #32
 8009514:	725a      	strb	r2, [r3, #9]
 8009516:	bd38      	pop	{r3, r4, r5, pc}
 8009518:	2802      	cmp	r0, #2
 800951a:	d153      	bne.n	80095c4 <Standard_ClearFeature+0xc4>
 800951c:	885a      	ldrh	r2, [r3, #2]
 800951e:	2a00      	cmp	r2, #0
 8009520:	d151      	bne.n	80095c6 <Standard_ClearFeature+0xc6>
 8009522:	791a      	ldrb	r2, [r3, #4]
 8009524:	2a00      	cmp	r2, #0
 8009526:	d14e      	bne.n	80095c6 <Standard_ClearFeature+0xc6>
 8009528:	7959      	ldrb	r1, [r3, #5]
 800952a:	4d28      	ldr	r5, [pc, #160]	; (80095cc <Standard_ClearFeature+0xcc>)
 800952c:	f021 0080 	bic.w	r0, r1, #128	; 0x80
 8009530:	0084      	lsls	r4, r0, #2
 8009532:	f104 4280 	add.w	r2, r4, #1073741824	; 0x40000000
 8009536:	f502 42b8 	add.w	r2, r2, #23552	; 0x5c00
 800953a:	6812      	ldr	r2, [r2, #0]
 800953c:	782d      	ldrb	r5, [r5, #0]
 800953e:	f011 0f80 	tst.w	r1, #128	; 0x80
 8009542:	bf14      	ite	ne
 8009544:	f002 0230 	andne.w	r2, r2, #48	; 0x30
 8009548:	f402 5240 	andeq.w	r2, r2, #12288	; 0x3000
 800954c:	42a8      	cmp	r0, r5
 800954e:	d239      	bcs.n	80095c4 <Standard_ClearFeature+0xc4>
 8009550:	2a00      	cmp	r2, #0
 8009552:	d037      	beq.n	80095c4 <Standard_ClearFeature+0xc4>
 8009554:	7a9b      	ldrb	r3, [r3, #10]
 8009556:	2b00      	cmp	r3, #0
 8009558:	d034      	beq.n	80095c4 <Standard_ClearFeature+0xc4>
 800955a:	f104 4480 	add.w	r4, r4, #1073741824	; 0x40000000
 800955e:	f504 44b8 	add.w	r4, r4, #23552	; 0x5c00
 8009562:	060a      	lsls	r2, r1, #24
 8009564:	6823      	ldr	r3, [r4, #0]
 8009566:	d50c      	bpl.n	8009582 <Standard_ClearFeature+0x82>
 8009568:	f003 0330 	and.w	r3, r3, #48	; 0x30
 800956c:	2b10      	cmp	r3, #16
 800956e:	d123      	bne.n	80095b8 <Standard_ClearFeature+0xb8>
 8009570:	b2c4      	uxtb	r4, r0
 8009572:	4620      	mov	r0, r4
 8009574:	f000 fc90 	bl	8009e98 <ClearDTOG_TX>
 8009578:	4620      	mov	r0, r4
 800957a:	2130      	movs	r1, #48	; 0x30
 800957c:	f000 fc24 	bl	8009dc8 <SetEPTxStatus>
 8009580:	e01a      	b.n	80095b8 <Standard_ClearFeature+0xb8>
 8009582:	f403 5340 	and.w	r3, r3, #12288	; 0x3000
 8009586:	f5b3 5f80 	cmp.w	r3, #4096	; 0x1000
 800958a:	d115      	bne.n	80095b8 <Standard_ClearFeature+0xb8>
 800958c:	b928      	cbnz	r0, 800959a <Standard_ClearFeature+0x9a>
 800958e:	4b10      	ldr	r3, [pc, #64]	; (80095d0 <Standard_ClearFeature+0xd0>)
 8009590:	f893 102c 	ldrb.w	r1, [r3, #44]	; 0x2c
 8009594:	f000 fce2 	bl	8009f5c <SetEPRxCount>
 8009598:	e001      	b.n	800959e <Standard_ClearFeature+0x9e>
 800959a:	f000 fc6a 	bl	8009e72 <ClearDTOG_RX>
 800959e:	6823      	ldr	r3, [r4, #0]
 80095a0:	f423 4380 	bic.w	r3, r3, #16384	; 0x4000
 80095a4:	f023 0370 	bic.w	r3, r3, #112	; 0x70
 80095a8:	b29b      	uxth	r3, r3
 80095aa:	f483 5340 	eor.w	r3, r3, #12288	; 0x3000
 80095ae:	f443 4300 	orr.w	r3, r3, #32768	; 0x8000
 80095b2:	f043 0380 	orr.w	r3, r3, #128	; 0x80
 80095b6:	6023      	str	r3, [r4, #0]
 80095b8:	4b06      	ldr	r3, [pc, #24]	; (80095d4 <Standard_ClearFeature+0xd4>)
 80095ba:	681b      	ldr	r3, [r3, #0]
 80095bc:	695b      	ldr	r3, [r3, #20]
 80095be:	4798      	blx	r3
 80095c0:	2000      	movs	r0, #0
 80095c2:	bd38      	pop	{r3, r4, r5, pc}
 80095c4:	2002      	movs	r0, #2
 80095c6:	bd38      	pop	{r3, r4, r5, pc}
 80095c8:	200018d4 	ldrdcs	r1, [r0], -r4
 80095cc:	200000f5 	strdcs	r0, [r0], -r5
 80095d0:	2000009c 	mulcs	r0, ip, r0
 80095d4:	200018d0 	ldrdcs	r1, [r0], -r0

080095d8 <Standard_SetEndPointFeature>:
 80095d8:	b538      	push	{r3, r4, r5, lr}
 80095da:	4b1f      	ldr	r3, [pc, #124]	; (8009658 <Standard_SetEndPointFeature+0x80>)
 80095dc:	4d1f      	ldr	r5, [pc, #124]	; (800965c <Standard_SetEndPointFeature+0x84>)
 80095de:	6818      	ldr	r0, [r3, #0]
 80095e0:	782d      	ldrb	r5, [r5, #0]
 80095e2:	7941      	ldrb	r1, [r0, #5]
 80095e4:	f021 0480 	bic.w	r4, r1, #128	; 0x80
 80095e8:	00a3      	lsls	r3, r4, #2
 80095ea:	f103 4280 	add.w	r2, r3, #1073741824	; 0x40000000
 80095ee:	f502 42b8 	add.w	r2, r2, #23552	; 0x5c00
 80095f2:	6812      	ldr	r2, [r2, #0]
 80095f4:	f011 0f80 	tst.w	r1, #128	; 0x80
 80095f8:	bf14      	ite	ne
 80095fa:	f002 0230 	andne.w	r2, r2, #48	; 0x30
 80095fe:	f402 5240 	andeq.w	r2, r2, #12288	; 0x3000
 8009602:	42ac      	cmp	r4, r5
 8009604:	d225      	bcs.n	8009652 <Standard_SetEndPointFeature+0x7a>
 8009606:	8844      	ldrh	r4, [r0, #2]
 8009608:	bb1c      	cbnz	r4, 8009652 <Standard_SetEndPointFeature+0x7a>
 800960a:	b312      	cbz	r2, 8009652 <Standard_SetEndPointFeature+0x7a>
 800960c:	7a82      	ldrb	r2, [r0, #10]
 800960e:	b302      	cbz	r2, 8009652 <Standard_SetEndPointFeature+0x7a>
 8009610:	f103 4380 	add.w	r3, r3, #1073741824	; 0x40000000
 8009614:	f503 43b8 	add.w	r3, r3, #23552	; 0x5c00
 8009618:	681a      	ldr	r2, [r3, #0]
 800961a:	0609      	lsls	r1, r1, #24
 800961c:	bf4b      	itete	mi
 800961e:	f422 42e0 	bicmi.w	r2, r2, #28672	; 0x7000
 8009622:	f422 4280 	bicpl.w	r2, r2, #16384	; 0x4000
 8009626:	f022 0240 	bicmi.w	r2, r2, #64	; 0x40
 800962a:	f022 0270 	bicpl.w	r2, r2, #112	; 0x70
 800962e:	bf4b      	itete	mi
 8009630:	b292      	uxthmi	r2, r2
 8009632:	b292      	uxthpl	r2, r2
 8009634:	f082 0210 	eormi.w	r2, r2, #16
 8009638:	f482 5280 	eorpl.w	r2, r2, #4096	; 0x1000
 800963c:	f442 4200 	orr.w	r2, r2, #32768	; 0x8000
 8009640:	f042 0280 	orr.w	r2, r2, #128	; 0x80
 8009644:	601a      	str	r2, [r3, #0]
 8009646:	4b06      	ldr	r3, [pc, #24]	; (8009660 <Standard_SetEndPointFeature+0x88>)
 8009648:	681b      	ldr	r3, [r3, #0]
 800964a:	699b      	ldr	r3, [r3, #24]
 800964c:	4798      	blx	r3
 800964e:	2000      	movs	r0, #0
 8009650:	bd38      	pop	{r3, r4, r5, pc}
 8009652:	2002      	movs	r0, #2
 8009654:	bd38      	pop	{r3, r4, r5, pc}
 8009656:	bf00      	nop
 8009658:	200018d4 	ldrdcs	r1, [r0], -r4
 800965c:	200000f5 	strdcs	r0, [r0], -r5
 8009660:	200018d0 	ldrdcs	r1, [r0], -r0

08009664 <Standard_SetDeviceFeature>:
 8009664:	b508      	push	{r3, lr}
 8009666:	4b06      	ldr	r3, [pc, #24]	; (8009680 <Standard_SetDeviceFeature+0x1c>)
 8009668:	681a      	ldr	r2, [r3, #0]
 800966a:	7a53      	ldrb	r3, [r2, #9]
 800966c:	f043 0320 	orr.w	r3, r3, #32
 8009670:	7253      	strb	r3, [r2, #9]
 8009672:	4b04      	ldr	r3, [pc, #16]	; (8009684 <Standard_SetDeviceFeature+0x20>)
 8009674:	681b      	ldr	r3, [r3, #0]
 8009676:	69db      	ldr	r3, [r3, #28]
 8009678:	4798      	blx	r3
 800967a:	2000      	movs	r0, #0
 800967c:	bd08      	pop	{r3, pc}
 800967e:	bf00      	nop
 8009680:	200018d4 	ldrdcs	r1, [r0], -r4
 8009684:	200018d0 	ldrdcs	r1, [r0], -r0

08009688 <Standard_GetDescriptorData>:
 8009688:	b510      	push	{r4, lr}
 800968a:	4b05      	ldr	r3, [pc, #20]	; (80096a0 <Standard_GetDescriptorData+0x18>)
 800968c:	681c      	ldr	r4, [r3, #0]
 800968e:	8a62      	ldrh	r2, [r4, #18]
 8009690:	b918      	cbnz	r0, 800969a <Standard_GetDescriptorData+0x12>
 8009692:	888b      	ldrh	r3, [r1, #4]
 8009694:	1a9b      	subs	r3, r3, r2
 8009696:	8223      	strh	r3, [r4, #16]
 8009698:	bd10      	pop	{r4, pc}
 800969a:	6808      	ldr	r0, [r1, #0]
 800969c:	4410      	add	r0, r2
 800969e:	bd10      	pop	{r4, pc}
 80096a0:	200018d4 	ldrdcs	r1, [r0], -r4

080096a4 <Post0_Process>:
 80096a4:	b508      	push	{r3, lr}
 80096a6:	4b0c      	ldr	r3, [pc, #48]	; (80096d8 <Post0_Process+0x34>)
 80096a8:	2000      	movs	r0, #0
 80096aa:	f893 102c 	ldrb.w	r1, [r3, #44]	; 0x2c
 80096ae:	f000 fc55 	bl	8009f5c <SetEPRxCount>
 80096b2:	4b0a      	ldr	r3, [pc, #40]	; (80096dc <Post0_Process+0x38>)
 80096b4:	681b      	ldr	r3, [r3, #0]
 80096b6:	7a18      	ldrb	r0, [r3, #8]
 80096b8:	2808      	cmp	r0, #8
 80096ba:	bf01      	itttt	eq
 80096bc:	4b08      	ldreq	r3, [pc, #32]	; (80096e0 <Post0_Process+0x3c>)
 80096be:	f44f 5280 	moveq.w	r2, #4096	; 0x1000
 80096c2:	801a      	strheq	r2, [r3, #0]
 80096c4:	4b07      	ldreq	r3, [pc, #28]	; (80096e4 <Post0_Process+0x40>)
 80096c6:	bf04      	itt	eq
 80096c8:	2210      	moveq	r2, #16
 80096ca:	801a      	strheq	r2, [r3, #0]
 80096cc:	f1a0 0309 	sub.w	r3, r0, #9
 80096d0:	4258      	negs	r0, r3
 80096d2:	4158      	adcs	r0, r3
 80096d4:	bd08      	pop	{r3, pc}
 80096d6:	bf00      	nop
 80096d8:	2000009c 	mulcs	r0, ip, r0
 80096dc:	200018d4 	ldrdcs	r1, [r0], -r4
 80096e0:	200018da 	ldrdcs	r1, [r0], -sl
 80096e4:	200018dc 	ldrdcs	r1, [r0], -ip

080096e8 <Setup0_Process>:
 80096e8:	b5f7      	push	{r0, r1, r2, r4, r5, r6, r7, lr}
 80096ea:	4e96      	ldr	r6, [pc, #600]	; (8009944 <Setup0_Process+0x25c>)
 80096ec:	4b96      	ldr	r3, [pc, #600]	; (8009948 <Setup0_Process+0x260>)
 80096ee:	6832      	ldr	r2, [r6, #0]
 80096f0:	4d96      	ldr	r5, [pc, #600]	; (800994c <Setup0_Process+0x264>)
 80096f2:	b292      	uxth	r2, r2
 80096f4:	4413      	add	r3, r2
 80096f6:	005b      	lsls	r3, r3, #1
 80096f8:	681c      	ldr	r4, [r3, #0]
 80096fa:	682b      	ldr	r3, [r5, #0]
 80096fc:	7a1a      	ldrb	r2, [r3, #8]
 80096fe:	2a09      	cmp	r2, #9
 8009700:	d017      	beq.n	8009732 <Setup0_Process+0x4a>
 8009702:	b2a4      	uxth	r4, r4
 8009704:	0064      	lsls	r4, r4, #1
 8009706:	f104 4480 	add.w	r4, r4, #1073741824	; 0x40000000
 800970a:	f504 44c0 	add.w	r4, r4, #24576	; 0x6000
 800970e:	7822      	ldrb	r2, [r4, #0]
 8009710:	701a      	strb	r2, [r3, #0]
 8009712:	682b      	ldr	r3, [r5, #0]
 8009714:	7862      	ldrb	r2, [r4, #1]
 8009716:	705a      	strb	r2, [r3, #1]
 8009718:	88a0      	ldrh	r0, [r4, #4]
 800971a:	682f      	ldr	r7, [r5, #0]
 800971c:	f000 fc4e 	bl	8009fbc <ByteSwap>
 8009720:	8078      	strh	r0, [r7, #2]
 8009722:	8920      	ldrh	r0, [r4, #8]
 8009724:	682f      	ldr	r7, [r5, #0]
 8009726:	f000 fc49 	bl	8009fbc <ByteSwap>
 800972a:	80b8      	strh	r0, [r7, #4]
 800972c:	89a2      	ldrh	r2, [r4, #12]
 800972e:	682b      	ldr	r3, [r5, #0]
 8009730:	80da      	strh	r2, [r3, #6]
 8009732:	682b      	ldr	r3, [r5, #0]
 8009734:	2201      	movs	r2, #1
 8009736:	721a      	strb	r2, [r3, #8]
 8009738:	88da      	ldrh	r2, [r3, #6]
 800973a:	785c      	ldrb	r4, [r3, #1]
 800973c:	2a00      	cmp	r2, #0
 800973e:	d15f      	bne.n	8009800 <Setup0_Process+0x118>
 8009740:	781a      	ldrb	r2, [r3, #0]
 8009742:	f012 027f 	ands.w	r2, r2, #127	; 0x7f
 8009746:	d137      	bne.n	80097b8 <Setup0_Process+0xd0>
 8009748:	2c09      	cmp	r4, #9
 800974a:	d102      	bne.n	8009752 <Setup0_Process+0x6a>
 800974c:	f7ff fe98 	bl	8009480 <Standard_SetConfiguration>
 8009750:	e041      	b.n	80097d6 <Setup0_Process+0xee>
 8009752:	2c05      	cmp	r4, #5
 8009754:	d10f      	bne.n	8009776 <Setup0_Process+0x8e>
 8009756:	f993 2003 	ldrsb.w	r2, [r3, #3]
 800975a:	2a00      	cmp	r2, #0
 800975c:	da01      	bge.n	8009762 <Setup0_Process+0x7a>
 800975e:	2308      	movs	r3, #8
 8009760:	e04b      	b.n	80097fa <Setup0_Process+0x112>
 8009762:	789a      	ldrb	r2, [r3, #2]
 8009764:	2a00      	cmp	r2, #0
 8009766:	d1fa      	bne.n	800975e <Setup0_Process+0x76>
 8009768:	889a      	ldrh	r2, [r3, #4]
 800976a:	2a00      	cmp	r2, #0
 800976c:	d1f7      	bne.n	800975e <Setup0_Process+0x76>
 800976e:	7a9b      	ldrb	r3, [r3, #10]
 8009770:	2b00      	cmp	r3, #0
 8009772:	d034      	beq.n	80097de <Setup0_Process+0xf6>
 8009774:	e7f3      	b.n	800975e <Setup0_Process+0x76>
 8009776:	2c03      	cmp	r4, #3
 8009778:	d110      	bne.n	800979c <Setup0_Process+0xb4>
 800977a:	78da      	ldrb	r2, [r3, #3]
 800977c:	2a01      	cmp	r2, #1
 800977e:	d007      	beq.n	8009790 <Setup0_Process+0xa8>
 8009780:	4b73      	ldr	r3, [pc, #460]	; (8009950 <Setup0_Process+0x268>)
 8009782:	4620      	mov	r0, r4
 8009784:	681b      	ldr	r3, [r3, #0]
 8009786:	695b      	ldr	r3, [r3, #20]
 8009788:	4798      	blx	r3
 800978a:	2803      	cmp	r0, #3
 800978c:	d125      	bne.n	80097da <Setup0_Process+0xf2>
 800978e:	e033      	b.n	80097f8 <Setup0_Process+0x110>
 8009790:	889b      	ldrh	r3, [r3, #4]
 8009792:	2b00      	cmp	r3, #0
 8009794:	d1f4      	bne.n	8009780 <Setup0_Process+0x98>
 8009796:	f7ff ff65 	bl	8009664 <Standard_SetDeviceFeature>
 800979a:	e01c      	b.n	80097d6 <Setup0_Process+0xee>
 800979c:	2c01      	cmp	r4, #1
 800979e:	d1ef      	bne.n	8009780 <Setup0_Process+0x98>
 80097a0:	78da      	ldrb	r2, [r3, #3]
 80097a2:	2a01      	cmp	r2, #1
 80097a4:	d1ec      	bne.n	8009780 <Setup0_Process+0x98>
 80097a6:	889a      	ldrh	r2, [r3, #4]
 80097a8:	2a00      	cmp	r2, #0
 80097aa:	d1e9      	bne.n	8009780 <Setup0_Process+0x98>
 80097ac:	7a5b      	ldrb	r3, [r3, #9]
 80097ae:	0699      	lsls	r1, r3, #26
 80097b0:	d5e6      	bpl.n	8009780 <Setup0_Process+0x98>
 80097b2:	f7ff fea5 	bl	8009500 <Standard_ClearFeature>
 80097b6:	e00e      	b.n	80097d6 <Setup0_Process+0xee>
 80097b8:	2a01      	cmp	r2, #1
 80097ba:	d104      	bne.n	80097c6 <Setup0_Process+0xde>
 80097bc:	2c0b      	cmp	r4, #11
 80097be:	d1df      	bne.n	8009780 <Setup0_Process+0x98>
 80097c0:	f7ff fe7a 	bl	80094b8 <Standard_SetInterface>
 80097c4:	e007      	b.n	80097d6 <Setup0_Process+0xee>
 80097c6:	2a02      	cmp	r2, #2
 80097c8:	d1da      	bne.n	8009780 <Setup0_Process+0x98>
 80097ca:	2c01      	cmp	r4, #1
 80097cc:	d0f1      	beq.n	80097b2 <Setup0_Process+0xca>
 80097ce:	2c03      	cmp	r4, #3
 80097d0:	d1d6      	bne.n	8009780 <Setup0_Process+0x98>
 80097d2:	f7ff ff01 	bl	80095d8 <Standard_SetEndPointFeature>
 80097d6:	b110      	cbz	r0, 80097de <Setup0_Process+0xf6>
 80097d8:	e7d2      	b.n	8009780 <Setup0_Process+0x98>
 80097da:	2800      	cmp	r0, #0
 80097dc:	d1bf      	bne.n	800975e <Setup0_Process+0x76>
 80097de:	6832      	ldr	r2, [r6, #0]
 80097e0:	4b5c      	ldr	r3, [pc, #368]	; (8009954 <Setup0_Process+0x26c>)
 80097e2:	b292      	uxth	r2, r2
 80097e4:	4413      	add	r3, r2
 80097e6:	005b      	lsls	r3, r3, #1
 80097e8:	2200      	movs	r2, #0
 80097ea:	801a      	strh	r2, [r3, #0]
 80097ec:	805a      	strh	r2, [r3, #2]
 80097ee:	4b5a      	ldr	r3, [pc, #360]	; (8009958 <Setup0_Process+0x270>)
 80097f0:	2230      	movs	r2, #48	; 0x30
 80097f2:	801a      	strh	r2, [r3, #0]
 80097f4:	2306      	movs	r3, #6
 80097f6:	e000      	b.n	80097fa <Setup0_Process+0x112>
 80097f8:	2309      	movs	r3, #9
 80097fa:	682a      	ldr	r2, [r5, #0]
 80097fc:	7213      	strb	r3, [r2, #8]
 80097fe:	e0cd      	b.n	800999c <Setup0_Process+0x2b4>
 8009800:	2c06      	cmp	r4, #6
 8009802:	d113      	bne.n	800982c <Setup0_Process+0x144>
 8009804:	781a      	ldrb	r2, [r3, #0]
 8009806:	0652      	lsls	r2, r2, #25
 8009808:	d175      	bne.n	80098f6 <Setup0_Process+0x20e>
 800980a:	789a      	ldrb	r2, [r3, #2]
 800980c:	4b50      	ldr	r3, [pc, #320]	; (8009950 <Setup0_Process+0x268>)
 800980e:	2a01      	cmp	r2, #1
 8009810:	d102      	bne.n	8009818 <Setup0_Process+0x130>
 8009812:	681b      	ldr	r3, [r3, #0]
 8009814:	69db      	ldr	r3, [r3, #28]
 8009816:	e065      	b.n	80098e4 <Setup0_Process+0x1fc>
 8009818:	2a02      	cmp	r2, #2
 800981a:	d102      	bne.n	8009822 <Setup0_Process+0x13a>
 800981c:	681b      	ldr	r3, [r3, #0]
 800981e:	6a1b      	ldr	r3, [r3, #32]
 8009820:	e060      	b.n	80098e4 <Setup0_Process+0x1fc>
 8009822:	2a03      	cmp	r2, #3
 8009824:	d167      	bne.n	80098f6 <Setup0_Process+0x20e>
 8009826:	681b      	ldr	r3, [r3, #0]
 8009828:	6a5b      	ldr	r3, [r3, #36]	; 0x24
 800982a:	e05b      	b.n	80098e4 <Setup0_Process+0x1fc>
 800982c:	2c00      	cmp	r4, #0
 800982e:	d13a      	bne.n	80098a6 <Setup0_Process+0x1be>
 8009830:	8859      	ldrh	r1, [r3, #2]
 8009832:	2900      	cmp	r1, #0
 8009834:	d15f      	bne.n	80098f6 <Setup0_Process+0x20e>
 8009836:	685a      	ldr	r2, [r3, #4]
 8009838:	f422 427f 	bic.w	r2, r2, #65280	; 0xff00
 800983c:	f5b2 3f00 	cmp.w	r2, #131072	; 0x20000
 8009840:	d159      	bne.n	80098f6 <Setup0_Process+0x20e>
 8009842:	781a      	ldrb	r2, [r3, #0]
 8009844:	f012 027f 	ands.w	r2, r2, #127	; 0x7f
 8009848:	d104      	bne.n	8009854 <Setup0_Process+0x16c>
 800984a:	889b      	ldrh	r3, [r3, #4]
 800984c:	2b00      	cmp	r3, #0
 800984e:	f000 80a9 	beq.w	80099a4 <Setup0_Process+0x2bc>
 8009852:	e050      	b.n	80098f6 <Setup0_Process+0x20e>
 8009854:	2a01      	cmp	r2, #1
 8009856:	d10a      	bne.n	800986e <Setup0_Process+0x186>
 8009858:	4a3d      	ldr	r2, [pc, #244]	; (8009950 <Setup0_Process+0x268>)
 800985a:	7958      	ldrb	r0, [r3, #5]
 800985c:	6812      	ldr	r2, [r2, #0]
 800985e:	6992      	ldr	r2, [r2, #24]
 8009860:	4790      	blx	r2
 8009862:	2800      	cmp	r0, #0
 8009864:	d147      	bne.n	80098f6 <Setup0_Process+0x20e>
 8009866:	4b39      	ldr	r3, [pc, #228]	; (800994c <Setup0_Process+0x264>)
 8009868:	681b      	ldr	r3, [r3, #0]
 800986a:	7a9b      	ldrb	r3, [r3, #10]
 800986c:	e018      	b.n	80098a0 <Setup0_Process+0x1b8>
 800986e:	2a02      	cmp	r2, #2
 8009870:	d141      	bne.n	80098f6 <Setup0_Process+0x20e>
 8009872:	795a      	ldrb	r2, [r3, #5]
 8009874:	4839      	ldr	r0, [pc, #228]	; (800995c <Setup0_Process+0x274>)
 8009876:	f002 010f 	and.w	r1, r2, #15
 800987a:	008b      	lsls	r3, r1, #2
 800987c:	f103 4380 	add.w	r3, r3, #1073741824	; 0x40000000
 8009880:	f503 43b8 	add.w	r3, r3, #23552	; 0x5c00
 8009884:	681b      	ldr	r3, [r3, #0]
 8009886:	7800      	ldrb	r0, [r0, #0]
 8009888:	f012 0f80 	tst.w	r2, #128	; 0x80
 800988c:	bf14      	ite	ne
 800988e:	f003 0330 	andne.w	r3, r3, #48	; 0x30
 8009892:	f403 5340 	andeq.w	r3, r3, #12288	; 0x3000
 8009896:	4281      	cmp	r1, r0
 8009898:	d22d      	bcs.n	80098f6 <Setup0_Process+0x20e>
 800989a:	f012 0f70 	tst.w	r2, #112	; 0x70
 800989e:	d12a      	bne.n	80098f6 <Setup0_Process+0x20e>
 80098a0:	2b00      	cmp	r3, #0
 80098a2:	d17f      	bne.n	80099a4 <Setup0_Process+0x2bc>
 80098a4:	e027      	b.n	80098f6 <Setup0_Process+0x20e>
 80098a6:	2c08      	cmp	r4, #8
 80098a8:	d103      	bne.n	80098b2 <Setup0_Process+0x1ca>
 80098aa:	781b      	ldrb	r3, [r3, #0]
 80098ac:	065b      	lsls	r3, r3, #25
 80098ae:	d07b      	beq.n	80099a8 <Setup0_Process+0x2c0>
 80098b0:	e021      	b.n	80098f6 <Setup0_Process+0x20e>
 80098b2:	2c0a      	cmp	r4, #10
 80098b4:	d11f      	bne.n	80098f6 <Setup0_Process+0x20e>
 80098b6:	781a      	ldrb	r2, [r3, #0]
 80098b8:	f002 027f 	and.w	r2, r2, #127	; 0x7f
 80098bc:	2a01      	cmp	r2, #1
 80098be:	d11a      	bne.n	80098f6 <Setup0_Process+0x20e>
 80098c0:	7a9a      	ldrb	r2, [r3, #10]
 80098c2:	b1c2      	cbz	r2, 80098f6 <Setup0_Process+0x20e>
 80098c4:	8859      	ldrh	r1, [r3, #2]
 80098c6:	b9b1      	cbnz	r1, 80098f6 <Setup0_Process+0x20e>
 80098c8:	685a      	ldr	r2, [r3, #4]
 80098ca:	f422 427f 	bic.w	r2, r2, #65280	; 0xff00
 80098ce:	f5b2 3f80 	cmp.w	r2, #65536	; 0x10000
 80098d2:	d110      	bne.n	80098f6 <Setup0_Process+0x20e>
 80098d4:	4a1e      	ldr	r2, [pc, #120]	; (8009950 <Setup0_Process+0x268>)
 80098d6:	7958      	ldrb	r0, [r3, #5]
 80098d8:	6812      	ldr	r2, [r2, #0]
 80098da:	6992      	ldr	r2, [r2, #24]
 80098dc:	4790      	blx	r2
 80098de:	2800      	cmp	r0, #0
 80098e0:	d064      	beq.n	80099ac <Setup0_Process+0x2c4>
 80098e2:	e008      	b.n	80098f6 <Setup0_Process+0x20e>
 80098e4:	b13b      	cbz	r3, 80098f6 <Setup0_Process+0x20e>
 80098e6:	682a      	ldr	r2, [r5, #0]
 80098e8:	2400      	movs	r4, #0
 80098ea:	8254      	strh	r4, [r2, #18]
 80098ec:	6193      	str	r3, [r2, #24]
 80098ee:	4620      	mov	r0, r4
 80098f0:	4798      	blx	r3
 80098f2:	4620      	mov	r0, r4
 80098f4:	e00a      	b.n	800990c <Setup0_Process+0x224>
 80098f6:	4b16      	ldr	r3, [pc, #88]	; (8009950 <Setup0_Process+0x268>)
 80098f8:	682a      	ldr	r2, [r5, #0]
 80098fa:	681b      	ldr	r3, [r3, #0]
 80098fc:	7850      	ldrb	r0, [r2, #1]
 80098fe:	691b      	ldr	r3, [r3, #16]
 8009900:	4798      	blx	r3
 8009902:	2803      	cmp	r0, #3
 8009904:	d102      	bne.n	800990c <Setup0_Process+0x224>
 8009906:	4b11      	ldr	r3, [pc, #68]	; (800994c <Setup0_Process+0x264>)
 8009908:	681b      	ldr	r3, [r3, #0]
 800990a:	e005      	b.n	8009918 <Setup0_Process+0x230>
 800990c:	f64f 71ff 	movw	r1, #65535	; 0xffff
 8009910:	682b      	ldr	r3, [r5, #0]
 8009912:	8a1a      	ldrh	r2, [r3, #16]
 8009914:	428a      	cmp	r2, r1
 8009916:	d101      	bne.n	800991c <Setup0_Process+0x234>
 8009918:	2209      	movs	r2, #9
 800991a:	e003      	b.n	8009924 <Setup0_Process+0x23c>
 800991c:	2802      	cmp	r0, #2
 800991e:	d000      	beq.n	8009922 <Setup0_Process+0x23a>
 8009920:	b912      	cbnz	r2, 8009928 <Setup0_Process+0x240>
 8009922:	2208      	movs	r2, #8
 8009924:	721a      	strb	r2, [r3, #8]
 8009926:	e039      	b.n	800999c <Setup0_Process+0x2b4>
 8009928:	f993 1000 	ldrsb.w	r1, [r3]
 800992c:	2900      	cmp	r1, #0
 800992e:	da2f      	bge.n	8009990 <Setup0_Process+0x2a8>
 8009930:	88d9      	ldrh	r1, [r3, #6]
 8009932:	4c07      	ldr	r4, [pc, #28]	; (8009950 <Setup0_Process+0x268>)
 8009934:	9101      	str	r1, [sp, #4]
 8009936:	9801      	ldr	r0, [sp, #4]
 8009938:	4282      	cmp	r2, r0
 800993a:	d911      	bls.n	8009960 <Setup0_Process+0x278>
 800993c:	9a01      	ldr	r2, [sp, #4]
 800993e:	821a      	strh	r2, [r3, #16]
 8009940:	e01f      	b.n	8009982 <Setup0_Process+0x29a>
 8009942:	bf00      	nop
 8009944:	40005c50 	andmi	r5, r0, r0, asr ip
 8009948:	20003004 	andcs	r3, r0, r4
 800994c:	200018d4 	ldrdcs	r1, [r0], -r4
 8009950:	200018ac 	andcs	r1, r0, ip, lsr #17
 8009954:	20003002 	andcs	r3, r0, r2
 8009958:	200018dc 	ldrdcs	r1, [r0], -ip
 800995c:	200000f5 	strdcs	r0, [r0], -r5
 8009960:	428a      	cmp	r2, r1
 8009962:	d20e      	bcs.n	8009982 <Setup0_Process+0x29a>
 8009964:	6821      	ldr	r1, [r4, #0]
 8009966:	f891 002c 	ldrb.w	r0, [r1, #44]	; 0x2c
 800996a:	4282      	cmp	r2, r0
 800996c:	d201      	bcs.n	8009972 <Setup0_Process+0x28a>
 800996e:	2100      	movs	r1, #0
 8009970:	e005      	b.n	800997e <Setup0_Process+0x296>
 8009972:	fb92 f1f0 	sdiv	r1, r2, r0
 8009976:	fb00 2211 	mls	r2, r0, r1, r2
 800997a:	b912      	cbnz	r2, 8009982 <Setup0_Process+0x29a>
 800997c:	2101      	movs	r1, #1
 800997e:	4a0c      	ldr	r2, [pc, #48]	; (80099b0 <Setup0_Process+0x2c8>)
 8009980:	7011      	strb	r1, [r2, #0]
 8009982:	6822      	ldr	r2, [r4, #0]
 8009984:	f892 202c 	ldrb.w	r2, [r2, #44]	; 0x2c
 8009988:	829a      	strh	r2, [r3, #20]
 800998a:	f7ff fd23 	bl	80093d4 <DataStageIn>
 800998e:	e005      	b.n	800999c <Setup0_Process+0x2b4>
 8009990:	2203      	movs	r2, #3
 8009992:	721a      	strb	r2, [r3, #8]
 8009994:	4b07      	ldr	r3, [pc, #28]	; (80099b4 <Setup0_Process+0x2cc>)
 8009996:	f44f 5240 	mov.w	r2, #12288	; 0x3000
 800999a:	801a      	strh	r2, [r3, #0]
 800999c:	f7ff fe82 	bl	80096a4 <Post0_Process>
 80099a0:	b003      	add	sp, #12
 80099a2:	bdf0      	pop	{r4, r5, r6, r7, pc}
 80099a4:	4b04      	ldr	r3, [pc, #16]	; (80099b8 <Setup0_Process+0x2d0>)
 80099a6:	e79e      	b.n	80098e6 <Setup0_Process+0x1fe>
 80099a8:	4b04      	ldr	r3, [pc, #16]	; (80099bc <Setup0_Process+0x2d4>)
 80099aa:	e79c      	b.n	80098e6 <Setup0_Process+0x1fe>
 80099ac:	4b04      	ldr	r3, [pc, #16]	; (80099c0 <Setup0_Process+0x2d8>)
 80099ae:	e79a      	b.n	80098e6 <Setup0_Process+0x1fe>
 80099b0:	20001898 	mulcs	r0, r8, r8
 80099b4:	200018da 	ldrdcs	r1, [r0], -sl
 80099b8:	08009345 	stmdaeq	r0, {r0, r2, r6, r8, r9, ip, pc}
 80099bc:	080092fd 	stmdaeq	r0, {r0, r2, r3, r4, r5, r6, r7, r9, ip, pc}
 80099c0:	08009321 	stmdaeq	r0, {r0, r5, r8, r9, ip, pc}

080099c4 <Out0_Process>:
 80099c4:	b5f8      	push	{r3, r4, r5, r6, r7, lr}
 80099c6:	4d2c      	ldr	r5, [pc, #176]	; (8009a78 <Out0_Process+0xb4>)
 80099c8:	682c      	ldr	r4, [r5, #0]
 80099ca:	7a23      	ldrb	r3, [r4, #8]
 80099cc:	2b02      	cmp	r3, #2
 80099ce:	d04c      	beq.n	8009a6a <Out0_Process+0xa6>
 80099d0:	2b04      	cmp	r3, #4
 80099d2:	d04a      	beq.n	8009a6a <Out0_Process+0xa6>
 80099d4:	2b03      	cmp	r3, #3
 80099d6:	d001      	beq.n	80099dc <Out0_Process+0x18>
 80099d8:	2b05      	cmp	r3, #5
 80099da:	d140      	bne.n	8009a5e <Out0_Process+0x9a>
 80099dc:	69a1      	ldr	r1, [r4, #24]
 80099de:	8a23      	ldrh	r3, [r4, #16]
 80099e0:	b1a9      	cbz	r1, 8009a0e <Out0_Process+0x4a>
 80099e2:	b1a3      	cbz	r3, 8009a0e <Out0_Process+0x4a>
 80099e4:	8aa6      	ldrh	r6, [r4, #20]
 80099e6:	429e      	cmp	r6, r3
 80099e8:	bf28      	it	cs
 80099ea:	461e      	movcs	r6, r3
 80099ec:	4630      	mov	r0, r6
 80099ee:	4788      	blx	r1
 80099f0:	8a23      	ldrh	r3, [r4, #16]
 80099f2:	4607      	mov	r7, r0
 80099f4:	1b9b      	subs	r3, r3, r6
 80099f6:	8223      	strh	r3, [r4, #16]
 80099f8:	8a63      	ldrh	r3, [r4, #18]
 80099fa:	2000      	movs	r0, #0
 80099fc:	4433      	add	r3, r6
 80099fe:	8263      	strh	r3, [r4, #18]
 8009a00:	f000 fa8e 	bl	8009f20 <GetEPRxAddr>
 8009a04:	4632      	mov	r2, r6
 8009a06:	4601      	mov	r1, r0
 8009a08:	4638      	mov	r0, r7
 8009a0a:	f000 f9b5 	bl	8009d78 <PMAToUserBufferCopy>
 8009a0e:	8a23      	ldrh	r3, [r4, #16]
 8009a10:	b153      	cbz	r3, 8009a28 <Out0_Process+0x64>
 8009a12:	4b1a      	ldr	r3, [pc, #104]	; (8009a7c <Out0_Process+0xb8>)
 8009a14:	2000      	movs	r0, #0
 8009a16:	f44f 5240 	mov.w	r2, #12288	; 0x3000
 8009a1a:	4601      	mov	r1, r0
 8009a1c:	801a      	strh	r2, [r3, #0]
 8009a1e:	f000 fa8f 	bl	8009f40 <SetEPTxCount>
 8009a22:	4b17      	ldr	r3, [pc, #92]	; (8009a80 <Out0_Process+0xbc>)
 8009a24:	2230      	movs	r2, #48	; 0x30
 8009a26:	801a      	strh	r2, [r3, #0]
 8009a28:	8aa3      	ldrh	r3, [r4, #20]
 8009a2a:	8a22      	ldrh	r2, [r4, #16]
 8009a2c:	4293      	cmp	r3, r2
 8009a2e:	682b      	ldr	r3, [r5, #0]
 8009a30:	d801      	bhi.n	8009a36 <Out0_Process+0x72>
 8009a32:	2203      	movs	r2, #3
 8009a34:	e001      	b.n	8009a3a <Out0_Process+0x76>
 8009a36:	b112      	cbz	r2, 8009a3e <Out0_Process+0x7a>
 8009a38:	2205      	movs	r2, #5
 8009a3a:	721a      	strb	r2, [r3, #8]
 8009a3c:	e00c      	b.n	8009a58 <Out0_Process+0x94>
 8009a3e:	2106      	movs	r1, #6
 8009a40:	7219      	strb	r1, [r3, #8]
 8009a42:	4b10      	ldr	r3, [pc, #64]	; (8009a84 <Out0_Process+0xc0>)
 8009a44:	6819      	ldr	r1, [r3, #0]
 8009a46:	4b10      	ldr	r3, [pc, #64]	; (8009a88 <Out0_Process+0xc4>)
 8009a48:	b289      	uxth	r1, r1
 8009a4a:	440b      	add	r3, r1
 8009a4c:	005b      	lsls	r3, r3, #1
 8009a4e:	801a      	strh	r2, [r3, #0]
 8009a50:	805a      	strh	r2, [r3, #2]
 8009a52:	4b0b      	ldr	r3, [pc, #44]	; (8009a80 <Out0_Process+0xbc>)
 8009a54:	2230      	movs	r2, #48	; 0x30
 8009a56:	801a      	strh	r2, [r3, #0]
 8009a58:	682b      	ldr	r3, [r5, #0]
 8009a5a:	7a1b      	ldrb	r3, [r3, #8]
 8009a5c:	e006      	b.n	8009a6c <Out0_Process+0xa8>
 8009a5e:	2b07      	cmp	r3, #7
 8009a60:	d103      	bne.n	8009a6a <Out0_Process+0xa6>
 8009a62:	4b0a      	ldr	r3, [pc, #40]	; (8009a8c <Out0_Process+0xc8>)
 8009a64:	681b      	ldr	r3, [r3, #0]
 8009a66:	68db      	ldr	r3, [r3, #12]
 8009a68:	4798      	blx	r3
 8009a6a:	2308      	movs	r3, #8
 8009a6c:	682a      	ldr	r2, [r5, #0]
 8009a6e:	7213      	strb	r3, [r2, #8]
 8009a70:	e8bd 40f8 	ldmia.w	sp!, {r3, r4, r5, r6, r7, lr}
 8009a74:	f7ff be16 	b.w	80096a4 <Post0_Process>
 8009a78:	200018d4 	ldrdcs	r1, [r0], -r4
 8009a7c:	200018da 	ldrdcs	r1, [r0], -sl
 8009a80:	200018dc 	ldrdcs	r1, [r0], -ip
 8009a84:	40005c50 	andmi	r5, r0, r0, asr ip
 8009a88:	20003002 	andcs	r3, r0, r2
 8009a8c:	200018ac 	andcs	r1, r0, ip, lsr #17

08009a90 <SetDeviceAddress>:
 8009a90:	b570      	push	{r4, r5, r6, lr}
 8009a92:	4b0d      	ldr	r3, [pc, #52]	; (8009ac8 <SetDeviceAddress+0x38>)
 8009a94:	2200      	movs	r2, #0
 8009a96:	781d      	ldrb	r5, [r3, #0]
 8009a98:	42aa      	cmp	r2, r5
 8009a9a:	d210      	bcs.n	8009abe <SetDeviceAddress+0x2e>
 8009a9c:	f640 710f 	movw	r1, #3855	; 0xf0f
 8009aa0:	f102 5380 	add.w	r3, r2, #268435456	; 0x10000000
 8009aa4:	f503 53b8 	add.w	r3, r3, #5888	; 0x1700
 8009aa8:	009b      	lsls	r3, r3, #2
 8009aaa:	681e      	ldr	r6, [r3, #0]
 8009aac:	f442 4400 	orr.w	r4, r2, #32768	; 0x8000
 8009ab0:	f044 0480 	orr.w	r4, r4, #128	; 0x80
 8009ab4:	4031      	ands	r1, r6
 8009ab6:	4321      	orrs	r1, r4
 8009ab8:	6019      	str	r1, [r3, #0]
 8009aba:	3201      	adds	r2, #1
 8009abc:	e7ec      	b.n	8009a98 <SetDeviceAddress+0x8>
 8009abe:	4b03      	ldr	r3, [pc, #12]	; (8009acc <SetDeviceAddress+0x3c>)
 8009ac0:	f040 0080 	orr.w	r0, r0, #128	; 0x80
 8009ac4:	6018      	str	r0, [r3, #0]
 8009ac6:	bd70      	pop	{r4, r5, r6, pc}
 8009ac8:	200000f5 	strdcs	r0, [r0], -r5
 8009acc:	40005c4c 	andmi	r5, r0, ip, asr #24

08009ad0 <In0_Process>:
 8009ad0:	b510      	push	{r4, lr}
 8009ad2:	4c13      	ldr	r4, [pc, #76]	; (8009b20 <In0_Process+0x50>)
 8009ad4:	6823      	ldr	r3, [r4, #0]
 8009ad6:	7a1a      	ldrb	r2, [r3, #8]
 8009ad8:	2a02      	cmp	r2, #2
 8009ada:	d001      	beq.n	8009ae0 <In0_Process+0x10>
 8009adc:	2a04      	cmp	r2, #4
 8009ade:	d104      	bne.n	8009aea <In0_Process+0x1a>
 8009ae0:	f7ff fc78 	bl	80093d4 <DataStageIn>
 8009ae4:	6823      	ldr	r3, [r4, #0]
 8009ae6:	7a1b      	ldrb	r3, [r3, #8]
 8009ae8:	e013      	b.n	8009b12 <In0_Process+0x42>
 8009aea:	2a06      	cmp	r2, #6
 8009aec:	d110      	bne.n	8009b10 <In0_Process+0x40>
 8009aee:	785a      	ldrb	r2, [r3, #1]
 8009af0:	2a05      	cmp	r2, #5
 8009af2:	d109      	bne.n	8009b08 <In0_Process+0x38>
 8009af4:	781a      	ldrb	r2, [r3, #0]
 8009af6:	0652      	lsls	r2, r2, #25
 8009af8:	d106      	bne.n	8009b08 <In0_Process+0x38>
 8009afa:	78d8      	ldrb	r0, [r3, #3]
 8009afc:	f7ff ffc8 	bl	8009a90 <SetDeviceAddress>
 8009b00:	4b08      	ldr	r3, [pc, #32]	; (8009b24 <In0_Process+0x54>)
 8009b02:	681b      	ldr	r3, [r3, #0]
 8009b04:	6a1b      	ldr	r3, [r3, #32]
 8009b06:	4798      	blx	r3
 8009b08:	4b07      	ldr	r3, [pc, #28]	; (8009b28 <In0_Process+0x58>)
 8009b0a:	681b      	ldr	r3, [r3, #0]
 8009b0c:	689b      	ldr	r3, [r3, #8]
 8009b0e:	4798      	blx	r3
 8009b10:	2308      	movs	r3, #8
 8009b12:	6822      	ldr	r2, [r4, #0]
 8009b14:	7213      	strb	r3, [r2, #8]
 8009b16:	e8bd 4010 	ldmia.w	sp!, {r4, lr}
 8009b1a:	f7ff bdc3 	b.w	80096a4 <Post0_Process>
 8009b1e:	bf00      	nop
 8009b20:	200018d4 	ldrdcs	r1, [r0], -r4
 8009b24:	200018d0 	ldrdcs	r1, [r0], -r0
 8009b28:	200018ac 	andcs	r1, r0, ip, lsr #17

08009b2c <NOP_Process>:
 8009b2c:	4770      	bx	lr
	...

08009b30 <USB_Init>:
 8009b30:	4b06      	ldr	r3, [pc, #24]	; (8009b4c <USB_Init+0x1c>)
 8009b32:	4a07      	ldr	r2, [pc, #28]	; (8009b50 <USB_Init+0x20>)
 8009b34:	4907      	ldr	r1, [pc, #28]	; (8009b54 <USB_Init+0x24>)
 8009b36:	6013      	str	r3, [r2, #0]
 8009b38:	2202      	movs	r2, #2
 8009b3a:	721a      	strb	r2, [r3, #8]
 8009b3c:	4b06      	ldr	r3, [pc, #24]	; (8009b58 <USB_Init+0x28>)
 8009b3e:	4a07      	ldr	r2, [pc, #28]	; (8009b5c <USB_Init+0x2c>)
 8009b40:	6013      	str	r3, [r2, #0]
 8009b42:	4a07      	ldr	r2, [pc, #28]	; (8009b60 <USB_Init+0x30>)
 8009b44:	681b      	ldr	r3, [r3, #0]
 8009b46:	6011      	str	r1, [r2, #0]
 8009b48:	4718      	bx	r3
 8009b4a:	bf00      	nop
 8009b4c:	200018b4 			; <UNDEFINED> instruction: 0x200018b4
 8009b50:	200018d4 	ldrdcs	r1, [r0], -r4
 8009b54:	20000160 	andcs	r0, r0, r0, ror #2
 8009b58:	2000009c 	mulcs	r0, ip, r0
 8009b5c:	200018ac 	andcs	r1, r0, ip, lsr #17
 8009b60:	200018d0 	ldrdcs	r1, [r0], -r0

08009b64 <CTR_LP>:
 8009b64:	b573      	push	{r0, r1, r4, r5, r6, lr}
 8009b66:	2300      	movs	r3, #0
 8009b68:	f8ad 3006 	strh.w	r3, [sp, #6]
 8009b6c:	4b51      	ldr	r3, [pc, #324]	; (8009cb4 <CTR_LP+0x150>)
 8009b6e:	4a52      	ldr	r2, [pc, #328]	; (8009cb8 <CTR_LP+0x154>)
 8009b70:	681b      	ldr	r3, [r3, #0]
 8009b72:	b299      	uxth	r1, r3
 8009b74:	041b      	lsls	r3, r3, #16
 8009b76:	8011      	strh	r1, [r2, #0]
 8009b78:	f140 8099 	bpl.w	8009cae <CTR_LP+0x14a>
 8009b7c:	8813      	ldrh	r3, [r2, #0]
 8009b7e:	4c4f      	ldr	r4, [pc, #316]	; (8009cbc <CTR_LP+0x158>)
 8009b80:	f003 030f 	and.w	r3, r3, #15
 8009b84:	7023      	strb	r3, [r4, #0]
 8009b86:	2b00      	cmp	r3, #0
 8009b88:	d161      	bne.n	8009c4e <CTR_LP+0xea>
 8009b8a:	4c4d      	ldr	r4, [pc, #308]	; (8009cc0 <CTR_LP+0x15c>)
 8009b8c:	4d4d      	ldr	r5, [pc, #308]	; (8009cc4 <CTR_LP+0x160>)
 8009b8e:	6823      	ldr	r3, [r4, #0]
 8009b90:	4e4d      	ldr	r6, [pc, #308]	; (8009cc8 <CTR_LP+0x164>)
 8009b92:	b29b      	uxth	r3, r3
 8009b94:	802b      	strh	r3, [r5, #0]
 8009b96:	882b      	ldrh	r3, [r5, #0]
 8009b98:	f003 0330 	and.w	r3, r3, #48	; 0x30
 8009b9c:	8033      	strh	r3, [r6, #0]
 8009b9e:	882b      	ldrh	r3, [r5, #0]
 8009ba0:	f403 5340 	and.w	r3, r3, #12288	; 0x3000
 8009ba4:	802b      	strh	r3, [r5, #0]
 8009ba6:	f64b 73bf 	movw	r3, #49087	; 0xbfbf
 8009baa:	6821      	ldr	r1, [r4, #0]
 8009bac:	400b      	ands	r3, r1
 8009bae:	f483 5300 	eor.w	r3, r3, #8192	; 0x2000
 8009bb2:	f083 0320 	eor.w	r3, r3, #32
 8009bb6:	f443 4300 	orr.w	r3, r3, #32768	; 0x8000
 8009bba:	f043 0380 	orr.w	r3, r3, #128	; 0x80
 8009bbe:	6023      	str	r3, [r4, #0]
 8009bc0:	8813      	ldrh	r3, [r2, #0]
 8009bc2:	06d8      	lsls	r0, r3, #27
 8009bc4:	d407      	bmi.n	8009bd6 <CTR_LP+0x72>
 8009bc6:	f648 730f 	movw	r3, #36623	; 0x8f0f
 8009bca:	6822      	ldr	r2, [r4, #0]
 8009bcc:	4013      	ands	r3, r2
 8009bce:	6023      	str	r3, [r4, #0]
 8009bd0:	f7ff ff7e 	bl	8009ad0 <In0_Process>
 8009bd4:	e01b      	b.n	8009c0e <CTR_LP+0xaa>
 8009bd6:	6823      	ldr	r3, [r4, #0]
 8009bd8:	b29b      	uxth	r3, r3
 8009bda:	f8ad 3006 	strh.w	r3, [sp, #6]
 8009bde:	f8bd 3006 	ldrh.w	r3, [sp, #6]
 8009be2:	0519      	lsls	r1, r3, #20
 8009be4:	d507      	bpl.n	8009bf6 <CTR_LP+0x92>
 8009be6:	f640 738f 	movw	r3, #3983	; 0xf8f
 8009bea:	6822      	ldr	r2, [r4, #0]
 8009bec:	4013      	ands	r3, r2
 8009bee:	6023      	str	r3, [r4, #0]
 8009bf0:	f7ff fd7a 	bl	80096e8 <Setup0_Process>
 8009bf4:	e00b      	b.n	8009c0e <CTR_LP+0xaa>
 8009bf6:	f8bd 3006 	ldrh.w	r3, [sp, #6]
 8009bfa:	b21b      	sxth	r3, r3
 8009bfc:	2b00      	cmp	r3, #0
 8009bfe:	dab5      	bge.n	8009b6c <CTR_LP+0x8>
 8009c00:	f640 738f 	movw	r3, #3983	; 0xf8f
 8009c04:	6822      	ldr	r2, [r4, #0]
 8009c06:	4013      	ands	r3, r2
 8009c08:	6023      	str	r3, [r4, #0]
 8009c0a:	f7ff fedb 	bl	80099c4 <Out0_Process>
 8009c0e:	f64b 73bf 	movw	r3, #49087	; 0xbfbf
 8009c12:	6822      	ldr	r2, [r4, #0]
 8009c14:	4013      	ands	r3, r2
 8009c16:	882a      	ldrh	r2, [r5, #0]
 8009c18:	04d2      	lsls	r2, r2, #19
 8009c1a:	882a      	ldrh	r2, [r5, #0]
 8009c1c:	bf48      	it	mi
 8009c1e:	f483 5380 	eormi.w	r3, r3, #4096	; 0x1000
 8009c22:	0494      	lsls	r4, r2, #18
 8009c24:	8832      	ldrh	r2, [r6, #0]
 8009c26:	bf48      	it	mi
 8009c28:	f483 5300 	eormi.w	r3, r3, #8192	; 0x2000
 8009c2c:	06d0      	lsls	r0, r2, #27
 8009c2e:	8832      	ldrh	r2, [r6, #0]
 8009c30:	bf48      	it	mi
 8009c32:	f083 0310 	eormi.w	r3, r3, #16
 8009c36:	0691      	lsls	r1, r2, #26
 8009c38:	bf48      	it	mi
 8009c3a:	f083 0320 	eormi.w	r3, r3, #32
 8009c3e:	f443 4300 	orr.w	r3, r3, #32768	; 0x8000
 8009c42:	f043 0380 	orr.w	r3, r3, #128	; 0x80
 8009c46:	4a1e      	ldr	r2, [pc, #120]	; (8009cc0 <CTR_LP+0x15c>)
 8009c48:	b29b      	uxth	r3, r3
 8009c4a:	6013      	str	r3, [r2, #0]
 8009c4c:	e02f      	b.n	8009cae <CTR_LP+0x14a>
 8009c4e:	009b      	lsls	r3, r3, #2
 8009c50:	f103 4380 	add.w	r3, r3, #1073741824	; 0x40000000
 8009c54:	f503 43b8 	add.w	r3, r3, #23552	; 0x5c00
 8009c58:	681a      	ldr	r2, [r3, #0]
 8009c5a:	b292      	uxth	r2, r2
 8009c5c:	f8ad 2006 	strh.w	r2, [sp, #6]
 8009c60:	f8bd 2006 	ldrh.w	r2, [sp, #6]
 8009c64:	b212      	sxth	r2, r2
 8009c66:	2a00      	cmp	r2, #0
 8009c68:	da0a      	bge.n	8009c80 <CTR_LP+0x11c>
 8009c6a:	f640 728f 	movw	r2, #3983	; 0xf8f
 8009c6e:	6819      	ldr	r1, [r3, #0]
 8009c70:	400a      	ands	r2, r1
 8009c72:	601a      	str	r2, [r3, #0]
 8009c74:	7823      	ldrb	r3, [r4, #0]
 8009c76:	4a15      	ldr	r2, [pc, #84]	; (8009ccc <CTR_LP+0x168>)
 8009c78:	3b01      	subs	r3, #1
 8009c7a:	f852 3023 	ldr.w	r3, [r2, r3, lsl #2]
 8009c7e:	4798      	blx	r3
 8009c80:	f8bd 3006 	ldrh.w	r3, [sp, #6]
 8009c84:	061a      	lsls	r2, r3, #24
 8009c86:	f57f af71 	bpl.w	8009b6c <CTR_LP+0x8>
 8009c8a:	f648 720f 	movw	r2, #36623	; 0x8f0f
 8009c8e:	7823      	ldrb	r3, [r4, #0]
 8009c90:	009b      	lsls	r3, r3, #2
 8009c92:	f103 4380 	add.w	r3, r3, #1073741824	; 0x40000000
 8009c96:	f503 43b8 	add.w	r3, r3, #23552	; 0x5c00
 8009c9a:	6819      	ldr	r1, [r3, #0]
 8009c9c:	400a      	ands	r2, r1
 8009c9e:	601a      	str	r2, [r3, #0]
 8009ca0:	7823      	ldrb	r3, [r4, #0]
 8009ca2:	4a0b      	ldr	r2, [pc, #44]	; (8009cd0 <CTR_LP+0x16c>)
 8009ca4:	3b01      	subs	r3, #1
 8009ca6:	f852 3023 	ldr.w	r3, [r2, r3, lsl #2]
 8009caa:	4798      	blx	r3
 8009cac:	e75e      	b.n	8009b6c <CTR_LP+0x8>
 8009cae:	b002      	add	sp, #8
 8009cb0:	bd70      	pop	{r4, r5, r6, pc}
 8009cb2:	bf00      	nop
 8009cb4:	40005c44 	andmi	r5, r0, r4, asr #24
 8009cb8:	20001164 	andcs	r1, r0, r4, ror #2
 8009cbc:	200018b0 			; <UNDEFINED> instruction: 0x200018b0
 8009cc0:	40005c00 	andmi	r5, r0, r0, lsl #24
 8009cc4:	200018da 	ldrdcs	r1, [r0], -sl
 8009cc8:	200018dc 	ldrdcs	r1, [r0], -ip
 8009ccc:	2000007c 	andcs	r0, r0, ip, ror r0
 8009cd0:	20000060 	andcs	r0, r0, r0, rrx

08009cd4 <CTR_HP>:
 8009cd4:	b508      	push	{r3, lr}
 8009cd6:	4917      	ldr	r1, [pc, #92]	; (8009d34 <CTR_HP+0x60>)
 8009cd8:	4a17      	ldr	r2, [pc, #92]	; (8009d38 <CTR_HP+0x64>)
 8009cda:	680b      	ldr	r3, [r1, #0]
 8009cdc:	b298      	uxth	r0, r3
 8009cde:	041b      	lsls	r3, r3, #16
 8009ce0:	8010      	strh	r0, [r2, #0]
 8009ce2:	d526      	bpl.n	8009d32 <CTR_HP+0x5e>
 8009ce4:	f647 73ff 	movw	r3, #32767	; 0x7fff
 8009ce8:	600b      	str	r3, [r1, #0]
 8009cea:	8813      	ldrh	r3, [r2, #0]
 8009cec:	4a13      	ldr	r2, [pc, #76]	; (8009d3c <CTR_HP+0x68>)
 8009cee:	f003 030f 	and.w	r3, r3, #15
 8009cf2:	7013      	strb	r3, [r2, #0]
 8009cf4:	009b      	lsls	r3, r3, #2
 8009cf6:	f103 4380 	add.w	r3, r3, #1073741824	; 0x40000000
 8009cfa:	f503 43b8 	add.w	r3, r3, #23552	; 0x5c00
 8009cfe:	6819      	ldr	r1, [r3, #0]
 8009d00:	0408      	lsls	r0, r1, #16
 8009d02:	d508      	bpl.n	8009d16 <CTR_HP+0x42>
 8009d04:	f640 718f 	movw	r1, #3983	; 0xf8f
 8009d08:	6818      	ldr	r0, [r3, #0]
 8009d0a:	4001      	ands	r1, r0
 8009d0c:	6019      	str	r1, [r3, #0]
 8009d0e:	7813      	ldrb	r3, [r2, #0]
 8009d10:	4a0b      	ldr	r2, [pc, #44]	; (8009d40 <CTR_HP+0x6c>)
 8009d12:	3b01      	subs	r3, #1
 8009d14:	e009      	b.n	8009d2a <CTR_HP+0x56>
 8009d16:	0609      	lsls	r1, r1, #24
 8009d18:	d5dd      	bpl.n	8009cd6 <CTR_HP+0x2>
 8009d1a:	f648 710f 	movw	r1, #36623	; 0x8f0f
 8009d1e:	6818      	ldr	r0, [r3, #0]
 8009d20:	4001      	ands	r1, r0
 8009d22:	6019      	str	r1, [r3, #0]
 8009d24:	7813      	ldrb	r3, [r2, #0]
 8009d26:	4a07      	ldr	r2, [pc, #28]	; (8009d44 <CTR_HP+0x70>)
 8009d28:	3b01      	subs	r3, #1
 8009d2a:	f852 3023 	ldr.w	r3, [r2, r3, lsl #2]
 8009d2e:	4798      	blx	r3
 8009d30:	e7d1      	b.n	8009cd6 <CTR_HP+0x2>
 8009d32:	bd08      	pop	{r3, pc}
 8009d34:	40005c44 	andmi	r5, r0, r4, asr #24
 8009d38:	20001164 	andcs	r1, r0, r4, ror #2
 8009d3c:	200018b0 			; <UNDEFINED> instruction: 0x200018b0
 8009d40:	2000007c 	andcs	r0, r0, ip, ror r0
 8009d44:	20000060 	andcs	r0, r0, r0, rrx

08009d48 <UserToPMABufferCopy>:
 8009d48:	b530      	push	{r4, r5, lr}
 8009d4a:	f101 5100 	add.w	r1, r1, #536870912	; 0x20000000
 8009d4e:	3201      	adds	r2, #1
 8009d50:	f501 5140 	add.w	r1, r1, #12288	; 0x3000
 8009d54:	1052      	asrs	r2, r2, #1
 8009d56:	0049      	lsls	r1, r1, #1
 8009d58:	2300      	movs	r3, #0
 8009d5a:	4293      	cmp	r3, r2
 8009d5c:	f100 0002 	add.w	r0, r0, #2
 8009d60:	d009      	beq.n	8009d76 <UserToPMABufferCopy+0x2e>
 8009d62:	f810 5c01 	ldrb.w	r5, [r0, #-1]
 8009d66:	f810 4c02 	ldrb.w	r4, [r0, #-2]
 8009d6a:	ea44 2405 	orr.w	r4, r4, r5, lsl #8
 8009d6e:	f821 4023 	strh.w	r4, [r1, r3, lsl #2]
 8009d72:	3301      	adds	r3, #1
 8009d74:	e7f1      	b.n	8009d5a <UserToPMABufferCopy+0x12>
 8009d76:	bd30      	pop	{r4, r5, pc}

08009d78 <PMAToUserBufferCopy>:
 8009d78:	b510      	push	{r4, lr}
 8009d7a:	f101 5100 	add.w	r1, r1, #536870912	; 0x20000000
 8009d7e:	3201      	adds	r2, #1
 8009d80:	f501 5140 	add.w	r1, r1, #12288	; 0x3000
 8009d84:	1052      	asrs	r2, r2, #1
 8009d86:	0049      	lsls	r1, r1, #1
 8009d88:	2300      	movs	r3, #0
 8009d8a:	4293      	cmp	r3, r2
 8009d8c:	d005      	beq.n	8009d9a <PMAToUserBufferCopy+0x22>
 8009d8e:	f851 4023 	ldr.w	r4, [r1, r3, lsl #2]
 8009d92:	f820 4013 	strh.w	r4, [r0, r3, lsl #1]
 8009d96:	3301      	adds	r3, #1
 8009d98:	e7f7      	b.n	8009d8a <PMAToUserBufferCopy+0x12>
 8009d9a:	bd10      	pop	{r4, pc}

08009d9c <SetBTABLE>:
 8009d9c:	f64f 73f8 	movw	r3, #65528	; 0xfff8
 8009da0:	4a01      	ldr	r2, [pc, #4]	; (8009da8 <SetBTABLE+0xc>)
 8009da2:	4003      	ands	r3, r0
 8009da4:	6013      	str	r3, [r2, #0]
 8009da6:	4770      	bx	lr
 8009da8:	40005c50 	andmi	r5, r0, r0, asr ip

08009dac <SetEPType>:
 8009dac:	0080      	lsls	r0, r0, #2
 8009dae:	f100 4080 	add.w	r0, r0, #1073741824	; 0x40000000
 8009db2:	f500 40b8 	add.w	r0, r0, #23552	; 0x5c00
 8009db6:	6803      	ldr	r3, [r0, #0]
 8009db8:	f423 43ec 	bic.w	r3, r3, #30208	; 0x7600
 8009dbc:	f023 0370 	bic.w	r3, r3, #112	; 0x70
 8009dc0:	4319      	orrs	r1, r3
 8009dc2:	b289      	uxth	r1, r1
 8009dc4:	6001      	str	r1, [r0, #0]
 8009dc6:	4770      	bx	lr

08009dc8 <SetEPTxStatus>:
 8009dc8:	0080      	lsls	r0, r0, #2
 8009dca:	f100 4080 	add.w	r0, r0, #1073741824	; 0x40000000
 8009dce:	f500 40b8 	add.w	r0, r0, #23552	; 0x5c00
 8009dd2:	6803      	ldr	r3, [r0, #0]
 8009dd4:	06ca      	lsls	r2, r1, #27
 8009dd6:	f423 43e0 	bic.w	r3, r3, #28672	; 0x7000
 8009dda:	f023 0340 	bic.w	r3, r3, #64	; 0x40
 8009dde:	b29b      	uxth	r3, r3
 8009de0:	bf48      	it	mi
 8009de2:	f083 0310 	eormi.w	r3, r3, #16
 8009de6:	068a      	lsls	r2, r1, #26
 8009de8:	bf48      	it	mi
 8009dea:	f083 0320 	eormi.w	r3, r3, #32
 8009dee:	f443 4300 	orr.w	r3, r3, #32768	; 0x8000
 8009df2:	f043 0380 	orr.w	r3, r3, #128	; 0x80
 8009df6:	6003      	str	r3, [r0, #0]
 8009df8:	4770      	bx	lr

08009dfa <SetEPRxStatus>:
 8009dfa:	0080      	lsls	r0, r0, #2
 8009dfc:	f100 4080 	add.w	r0, r0, #1073741824	; 0x40000000
 8009e00:	f500 40b8 	add.w	r0, r0, #23552	; 0x5c00
 8009e04:	6803      	ldr	r3, [r0, #0]
 8009e06:	04ca      	lsls	r2, r1, #19
 8009e08:	f423 4380 	bic.w	r3, r3, #16384	; 0x4000
 8009e0c:	f023 0370 	bic.w	r3, r3, #112	; 0x70
 8009e10:	b29b      	uxth	r3, r3
 8009e12:	bf48      	it	mi
 8009e14:	f483 5380 	eormi.w	r3, r3, #4096	; 0x1000
 8009e18:	048a      	lsls	r2, r1, #18
 8009e1a:	bf48      	it	mi
 8009e1c:	f483 5300 	eormi.w	r3, r3, #8192	; 0x2000
 8009e20:	f443 4300 	orr.w	r3, r3, #32768	; 0x8000
 8009e24:	f043 0380 	orr.w	r3, r3, #128	; 0x80
 8009e28:	6003      	str	r3, [r0, #0]
 8009e2a:	4770      	bx	lr

08009e2c <SetEPRxValid>:
 8009e2c:	0080      	lsls	r0, r0, #2
 8009e2e:	f100 4080 	add.w	r0, r0, #1073741824	; 0x40000000
 8009e32:	f500 40b8 	add.w	r0, r0, #23552	; 0x5c00
 8009e36:	6803      	ldr	r3, [r0, #0]
 8009e38:	f423 4380 	bic.w	r3, r3, #16384	; 0x4000
 8009e3c:	f023 0370 	bic.w	r3, r3, #112	; 0x70
 8009e40:	b29b      	uxth	r3, r3
 8009e42:	f483 5340 	eor.w	r3, r3, #12288	; 0x3000
 8009e46:	f443 4300 	orr.w	r3, r3, #32768	; 0x8000
 8009e4a:	f043 0380 	orr.w	r3, r3, #128	; 0x80
 8009e4e:	6003      	str	r3, [r0, #0]
 8009e50:	4770      	bx	lr

08009e52 <Clear_Status_Out>:
 8009e52:	0080      	lsls	r0, r0, #2
 8009e54:	f100 4080 	add.w	r0, r0, #1073741824	; 0x40000000
 8009e58:	f500 40b8 	add.w	r0, r0, #23552	; 0x5c00
 8009e5c:	6803      	ldr	r3, [r0, #0]
 8009e5e:	f423 73f8 	bic.w	r3, r3, #496	; 0x1f0
 8009e62:	051b      	lsls	r3, r3, #20
 8009e64:	0d1b      	lsrs	r3, r3, #20
 8009e66:	f443 4300 	orr.w	r3, r3, #32768	; 0x8000
 8009e6a:	f043 0380 	orr.w	r3, r3, #128	; 0x80
 8009e6e:	6003      	str	r3, [r0, #0]
 8009e70:	4770      	bx	lr

08009e72 <ClearDTOG_RX>:
 8009e72:	0080      	lsls	r0, r0, #2
 8009e74:	f100 4080 	add.w	r0, r0, #1073741824	; 0x40000000
 8009e78:	f500 40b8 	add.w	r0, r0, #23552	; 0x5c00
 8009e7c:	6803      	ldr	r3, [r0, #0]
 8009e7e:	045b      	lsls	r3, r3, #17
 8009e80:	bf41      	itttt	mi
 8009e82:	f640 730f 	movwmi	r3, #3855	; 0xf0f
 8009e86:	6802      	ldrmi	r2, [r0, #0]
 8009e88:	4013      	andmi	r3, r2
 8009e8a:	f443 4340 	orrmi.w	r3, r3, #49152	; 0xc000
 8009e8e:	bf44      	itt	mi
 8009e90:	f043 0380 	orrmi.w	r3, r3, #128	; 0x80
 8009e94:	6003      	strmi	r3, [r0, #0]
 8009e96:	4770      	bx	lr

08009e98 <ClearDTOG_TX>:
 8009e98:	0080      	lsls	r0, r0, #2
 8009e9a:	f100 4080 	add.w	r0, r0, #1073741824	; 0x40000000
 8009e9e:	f500 40b8 	add.w	r0, r0, #23552	; 0x5c00
 8009ea2:	6803      	ldr	r3, [r0, #0]
 8009ea4:	065b      	lsls	r3, r3, #25
 8009ea6:	bf41      	itttt	mi
 8009ea8:	f640 730f 	movwmi	r3, #3855	; 0xf0f
 8009eac:	6802      	ldrmi	r2, [r0, #0]
 8009eae:	4013      	andmi	r3, r2
 8009eb0:	f443 4300 	orrmi.w	r3, r3, #32768	; 0x8000
 8009eb4:	bf44      	itt	mi
 8009eb6:	f043 03c0 	orrmi.w	r3, r3, #192	; 0xc0
 8009eba:	6003      	strmi	r3, [r0, #0]
 8009ebc:	4770      	bx	lr
	...

08009ec0 <SetEPTxAddr>:
 8009ec0:	4b06      	ldr	r3, [pc, #24]	; (8009edc <SetEPTxAddr+0x1c>)
 8009ec2:	0849      	lsrs	r1, r1, #1
 8009ec4:	681b      	ldr	r3, [r3, #0]
 8009ec6:	0049      	lsls	r1, r1, #1
 8009ec8:	b29b      	uxth	r3, r3
 8009eca:	eb03 00c0 	add.w	r0, r3, r0, lsl #3
 8009ece:	f100 5000 	add.w	r0, r0, #536870912	; 0x20000000
 8009ed2:	f500 5040 	add.w	r0, r0, #12288	; 0x3000
 8009ed6:	0040      	lsls	r0, r0, #1
 8009ed8:	6001      	str	r1, [r0, #0]
 8009eda:	4770      	bx	lr
 8009edc:	40005c50 	andmi	r5, r0, r0, asr ip

08009ee0 <SetEPRxAddr>:
 8009ee0:	4b05      	ldr	r3, [pc, #20]	; (8009ef8 <SetEPRxAddr+0x18>)
 8009ee2:	0849      	lsrs	r1, r1, #1
 8009ee4:	681b      	ldr	r3, [r3, #0]
 8009ee6:	0049      	lsls	r1, r1, #1
 8009ee8:	b29b      	uxth	r3, r3
 8009eea:	eb03 00c0 	add.w	r0, r3, r0, lsl #3
 8009eee:	4b03      	ldr	r3, [pc, #12]	; (8009efc <SetEPRxAddr+0x1c>)
 8009ef0:	4403      	add	r3, r0
 8009ef2:	005b      	lsls	r3, r3, #1
 8009ef4:	6019      	str	r1, [r3, #0]
 8009ef6:	4770      	bx	lr
 8009ef8:	40005c50 	andmi	r5, r0, r0, asr ip
 8009efc:	20003004 	andcs	r3, r0, r4

08009f00 <GetEPTxAddr>:
 8009f00:	4b06      	ldr	r3, [pc, #24]	; (8009f1c <GetEPTxAddr+0x1c>)
 8009f02:	681b      	ldr	r3, [r3, #0]
 8009f04:	b29b      	uxth	r3, r3
 8009f06:	eb03 00c0 	add.w	r0, r3, r0, lsl #3
 8009f0a:	f100 5000 	add.w	r0, r0, #536870912	; 0x20000000
 8009f0e:	f500 5040 	add.w	r0, r0, #12288	; 0x3000
 8009f12:	0040      	lsls	r0, r0, #1
 8009f14:	6800      	ldr	r0, [r0, #0]
 8009f16:	b280      	uxth	r0, r0
 8009f18:	4770      	bx	lr
 8009f1a:	bf00      	nop
 8009f1c:	40005c50 	andmi	r5, r0, r0, asr ip

08009f20 <GetEPRxAddr>:
 8009f20:	4b05      	ldr	r3, [pc, #20]	; (8009f38 <GetEPRxAddr+0x18>)
 8009f22:	681b      	ldr	r3, [r3, #0]
 8009f24:	b29b      	uxth	r3, r3
 8009f26:	eb03 00c0 	add.w	r0, r3, r0, lsl #3
 8009f2a:	4b04      	ldr	r3, [pc, #16]	; (8009f3c <GetEPRxAddr+0x1c>)
 8009f2c:	4403      	add	r3, r0
 8009f2e:	005b      	lsls	r3, r3, #1
 8009f30:	6818      	ldr	r0, [r3, #0]
 8009f32:	b280      	uxth	r0, r0
 8009f34:	4770      	bx	lr
 8009f36:	bf00      	nop
 8009f38:	40005c50 	andmi	r5, r0, r0, asr ip
 8009f3c:	20003004 	andcs	r3, r0, r4

08009f40 <SetEPTxCount>:
 8009f40:	4b04      	ldr	r3, [pc, #16]	; (8009f54 <SetEPTxCount+0x14>)
 8009f42:	681b      	ldr	r3, [r3, #0]
 8009f44:	b29b      	uxth	r3, r3
 8009f46:	eb03 00c0 	add.w	r0, r3, r0, lsl #3
 8009f4a:	4b03      	ldr	r3, [pc, #12]	; (8009f58 <SetEPTxCount+0x18>)
 8009f4c:	4403      	add	r3, r0
 8009f4e:	005b      	lsls	r3, r3, #1
 8009f50:	6019      	str	r1, [r3, #0]
 8009f52:	4770      	bx	lr
 8009f54:	40005c50 	andmi	r5, r0, r0, asr ip
 8009f58:	20003002 	andcs	r3, r0, r2

08009f5c <SetEPRxCount>:
 8009f5c:	4b0d      	ldr	r3, [pc, #52]	; (8009f94 <SetEPRxCount+0x38>)
 8009f5e:	293e      	cmp	r1, #62	; 0x3e
 8009f60:	681b      	ldr	r3, [r3, #0]
 8009f62:	b29b      	uxth	r3, r3
 8009f64:	eb03 00c0 	add.w	r0, r3, r0, lsl #3
 8009f68:	4b0b      	ldr	r3, [pc, #44]	; (8009f98 <SetEPRxCount+0x3c>)
 8009f6a:	4403      	add	r3, r0
 8009f6c:	ea4f 0243 	mov.w	r2, r3, lsl #1
 8009f70:	d909      	bls.n	8009f86 <SetEPRxCount+0x2a>
 8009f72:	094b      	lsrs	r3, r1, #5
 8009f74:	06c8      	lsls	r0, r1, #27
 8009f76:	bf04      	itt	eq
 8009f78:	f103 33ff 	addeq.w	r3, r3, #4294967295
 8009f7c:	b29b      	uxtheq	r3, r3
 8009f7e:	029b      	lsls	r3, r3, #10
 8009f80:	f443 4300 	orr.w	r3, r3, #32768	; 0x8000
 8009f84:	e004      	b.n	8009f90 <SetEPRxCount+0x34>
 8009f86:	084b      	lsrs	r3, r1, #1
 8009f88:	07c9      	lsls	r1, r1, #31
 8009f8a:	bf48      	it	mi
 8009f8c:	3301      	addmi	r3, #1
 8009f8e:	029b      	lsls	r3, r3, #10
 8009f90:	6013      	str	r3, [r2, #0]
 8009f92:	4770      	bx	lr
 8009f94:	40005c50 	andmi	r5, r0, r0, asr ip
 8009f98:	20003006 	andcs	r3, r0, r6

08009f9c <GetEPRxCount>:
 8009f9c:	4b05      	ldr	r3, [pc, #20]	; (8009fb4 <GetEPRxCount+0x18>)
 8009f9e:	681b      	ldr	r3, [r3, #0]
 8009fa0:	b29b      	uxth	r3, r3
 8009fa2:	eb03 00c0 	add.w	r0, r3, r0, lsl #3
 8009fa6:	4b04      	ldr	r3, [pc, #16]	; (8009fb8 <GetEPRxCount+0x1c>)
 8009fa8:	4403      	add	r3, r0
 8009faa:	005b      	lsls	r3, r3, #1
 8009fac:	6818      	ldr	r0, [r3, #0]
 8009fae:	f3c0 0009 	ubfx	r0, r0, #0, #10
 8009fb2:	4770      	bx	lr
 8009fb4:	40005c50 	andmi	r5, r0, r0, asr ip
 8009fb8:	20003006 	andcs	r3, r0, r6

08009fbc <ByteSwap>:
 8009fbc:	b2c3      	uxtb	r3, r0
 8009fbe:	0a00      	lsrs	r0, r0, #8
 8009fc0:	ea40 2003 	orr.w	r0, r0, r3, lsl #8
 8009fc4:	4770      	bx	lr
	...

08009fc8 <USB_SIL_Init>:
 8009fc8:	4b04      	ldr	r3, [pc, #16]	; (8009fdc <USB_SIL_Init+0x14>)
 8009fca:	2000      	movs	r0, #0
 8009fcc:	4a04      	ldr	r2, [pc, #16]	; (8009fe0 <USB_SIL_Init+0x18>)
 8009fce:	6018      	str	r0, [r3, #0]
 8009fd0:	f44f 433f 	mov.w	r3, #48896	; 0xbf00
 8009fd4:	8013      	strh	r3, [r2, #0]
 8009fd6:	4a03      	ldr	r2, [pc, #12]	; (8009fe4 <USB_SIL_Init+0x1c>)
 8009fd8:	6013      	str	r3, [r2, #0]
 8009fda:	4770      	bx	lr
 8009fdc:	40005c44 	andmi	r5, r0, r4, asr #24
 8009fe0:	200018d8 	ldrdcs	r1, [r0], -r8
 8009fe4:	40005c40 	andmi	r5, r0, r0, asr #24

08009fe8 <USB_SIL_Write>:
 8009fe8:	b570      	push	{r4, r5, r6, lr}
 8009fea:	f000 057f 	and.w	r5, r0, #127	; 0x7f
 8009fee:	4614      	mov	r4, r2
 8009ff0:	4628      	mov	r0, r5
 8009ff2:	460e      	mov	r6, r1
 8009ff4:	f7ff ff84 	bl	8009f00 <GetEPTxAddr>
 8009ff8:	b2a4      	uxth	r4, r4
 8009ffa:	4601      	mov	r1, r0
 8009ffc:	4622      	mov	r2, r4
 8009ffe:	4630      	mov	r0, r6
 800a000:	f7ff fea2 	bl	8009d48 <UserToPMABufferCopy>
 800a004:	4628      	mov	r0, r5
 800a006:	4621      	mov	r1, r4
 800a008:	f7ff ff9a 	bl	8009f40 <SetEPTxCount>
 800a00c:	2000      	movs	r0, #0
 800a00e:	bd70      	pop	{r4, r5, r6, pc}

0800a010 <USB_SIL_Read>:
 800a010:	b570      	push	{r4, r5, r6, lr}
 800a012:	f000 057f 	and.w	r5, r0, #127	; 0x7f
 800a016:	4628      	mov	r0, r5
 800a018:	460e      	mov	r6, r1
 800a01a:	f7ff ffbf 	bl	8009f9c <GetEPRxCount>
 800a01e:	4604      	mov	r4, r0
 800a020:	4628      	mov	r0, r5
 800a022:	f7ff ff7d 	bl	8009f20 <GetEPRxAddr>
 800a026:	4622      	mov	r2, r4
 800a028:	4601      	mov	r1, r0
 800a02a:	4630      	mov	r0, r6
 800a02c:	f7ff fea4 	bl	8009d78 <PMAToUserBufferCopy>
 800a030:	4620      	mov	r0, r4
 800a032:	bd70      	pop	{r4, r5, r6, pc}

0800a034 <memset>:
 800a034:	b470      	push	{r4, r5, r6}
 800a036:	0784      	lsls	r4, r0, #30
 800a038:	d046      	beq.n	800a0c8 <memset+0x94>
 800a03a:	1e54      	subs	r4, r2, #1
 800a03c:	2a00      	cmp	r2, #0
 800a03e:	d041      	beq.n	800a0c4 <memset+0x90>
 800a040:	b2cd      	uxtb	r5, r1
 800a042:	4603      	mov	r3, r0
 800a044:	e002      	b.n	800a04c <memset+0x18>
 800a046:	1e62      	subs	r2, r4, #1
 800a048:	b3e4      	cbz	r4, 800a0c4 <memset+0x90>
 800a04a:	4614      	mov	r4, r2
 800a04c:	f803 5b01 	strb.w	r5, [r3], #1
 800a050:	079a      	lsls	r2, r3, #30
 800a052:	d1f8      	bne.n	800a046 <memset+0x12>
 800a054:	2c03      	cmp	r4, #3
 800a056:	d92e      	bls.n	800a0b6 <memset+0x82>
 800a058:	b2cd      	uxtb	r5, r1
 800a05a:	ea45 2505 	orr.w	r5, r5, r5, lsl #8
 800a05e:	2c0f      	cmp	r4, #15
 800a060:	ea45 4505 	orr.w	r5, r5, r5, lsl #16
 800a064:	d919      	bls.n	800a09a <memset+0x66>
 800a066:	4626      	mov	r6, r4
 800a068:	f103 0210 	add.w	r2, r3, #16
 800a06c:	3e10      	subs	r6, #16
 800a06e:	2e0f      	cmp	r6, #15
 800a070:	f842 5c10 	str.w	r5, [r2, #-16]
 800a074:	f842 5c0c 	str.w	r5, [r2, #-12]
 800a078:	f842 5c08 	str.w	r5, [r2, #-8]
 800a07c:	f842 5c04 	str.w	r5, [r2, #-4]
 800a080:	f102 0210 	add.w	r2, r2, #16
 800a084:	d8f2      	bhi.n	800a06c <memset+0x38>
 800a086:	f1a4 0210 	sub.w	r2, r4, #16
 800a08a:	f022 020f 	bic.w	r2, r2, #15
 800a08e:	f004 040f 	and.w	r4, r4, #15
 800a092:	3210      	adds	r2, #16
 800a094:	2c03      	cmp	r4, #3
 800a096:	4413      	add	r3, r2
 800a098:	d90d      	bls.n	800a0b6 <memset+0x82>
 800a09a:	461e      	mov	r6, r3
 800a09c:	4622      	mov	r2, r4
 800a09e:	3a04      	subs	r2, #4
 800a0a0:	2a03      	cmp	r2, #3
 800a0a2:	f846 5b04 	str.w	r5, [r6], #4
 800a0a6:	d8fa      	bhi.n	800a09e <memset+0x6a>
 800a0a8:	1f22      	subs	r2, r4, #4
 800a0aa:	f022 0203 	bic.w	r2, r2, #3
 800a0ae:	3204      	adds	r2, #4
 800a0b0:	4413      	add	r3, r2
 800a0b2:	f004 0403 	and.w	r4, r4, #3
 800a0b6:	b12c      	cbz	r4, 800a0c4 <memset+0x90>
 800a0b8:	b2c9      	uxtb	r1, r1
 800a0ba:	441c      	add	r4, r3
 800a0bc:	f803 1b01 	strb.w	r1, [r3], #1
 800a0c0:	42a3      	cmp	r3, r4
 800a0c2:	d1fb      	bne.n	800a0bc <memset+0x88>
 800a0c4:	bc70      	pop	{r4, r5, r6}
 800a0c6:	4770      	bx	lr
 800a0c8:	4614      	mov	r4, r2
 800a0ca:	4603      	mov	r3, r0
 800a0cc:	e7c2      	b.n	800a054 <memset+0x20>
 800a0ce:	bf00      	nop

0800a0d0 <_sbrk>:
 800a0d0:	4a04      	ldr	r2, [pc, #16]	; (800a0e4 <_sbrk+0x14>)
 800a0d2:	4905      	ldr	r1, [pc, #20]	; (800a0e8 <_sbrk+0x18>)
 800a0d4:	6813      	ldr	r3, [r2, #0]
 800a0d6:	2b00      	cmp	r3, #0
 800a0d8:	bf08      	it	eq
 800a0da:	460b      	moveq	r3, r1
 800a0dc:	4418      	add	r0, r3
 800a0de:	6010      	str	r0, [r2, #0]
 800a0e0:	4618      	mov	r0, r3
 800a0e2:	4770      	bx	lr
 800a0e4:	2000189c 	mulcs	r0, ip, r8
 800a0e8:	200018e0 	andcs	r1, r0, r0, ror #17

0800a0ec <DaysInMonth.lto_priv.42>:
 800a0ec:	1e1f1d1f 	mrcne	13, 0, r1, cr15, cr15, {0}
 800a0f0:	1f1f1e1f 	svcne	0x001f1e1f
 800a0f4:	1f1e1f1e 	svcne	0x001e1f1e

0800a0f8 <usart_conf.7002>:
 800a0f8:	0662b51c 			; <UNDEFINED> instruction: 0x0662b51c
 800a0fc:	01001400 	tsteq	r0, r0, lsl #8
 800a100:	d0000000 	andle	r0, r0, r0
 800a104:	00000008 	andeq	r0, r0, r8
 800a108:	010000e1 	smlatteq	r0, r1, r0, r0
 800a10c:	00000300 	andeq	r0, r0, r0, lsl #6
 800a110:	d8000000 	stmdale	r0, {}	; <UNPREDICTABLE>
 800a114:	62b53099 	adcsvs	r3, r5, #153	; 0x99

0800a115 <packets.7001>:
 800a115:	0662b530 			; <UNDEFINED> instruction: 0x0662b530
 800a119:	01000801 	tsteq	r0, r1, lsl #16
 800a11d:	00010002 	andeq	r0, r1, r2
 800a121:	13000000 	movwne	r0, #0
 800a125:	0662b5be 			; <UNDEFINED> instruction: 0x0662b5be
 800a129:	01000801 	tsteq	r0, r1, lsl #16
 800a12d:	00010012 	andeq	r0, r1, r2, lsl r0
 800a131:	23000000 	movwcs	r0, #0
 800a135:	0662b52e 	strbteq	fp, [r2], -lr, lsr #10
 800a139:	01000801 	tsteq	r0, r1, lsl #16
 800a13d:	00010006 	andeq	r0, r1, r6
 800a141:	17000000 	strne	r0, [r0, -r0]
 800a145:	62b52cda 	adcsvs	r2, r5, #55808	; 0xda00

0800a146 <filter_mode.6998>:
 800a146:	0662b52c 	strbteq	fp, [r2], -ip, lsr #10
 800a14a:	ff002424 			; <UNDEFINED> instruction: 0xff002424
 800a14e:	000208ff 	strdeq	r0, [r2], -pc	; <UNPREDICTABLE>
 800a152:	10000000 	andne	r0, r0, r0
 800a156:	05000027 	streq	r0, [r0, #-39]	; 0x27
 800a15a:	fa00fa00 	blx	8048962 <_lastdataromaddress+0x28962>
 800a15e:	2c006400 	cfstrscs	mvf6, [r0], {-0}
 800a162:	00000001 	andeq	r0, r0, r1
	...
 800a16e:	17000000 	strne	r0, [r0, -r0]
 800a172:	62b50eff 	adcsvs	r0, r5, #4080	; 0xff0

0800a173 <update.6999>:
 800a173:	0662b50e 	strbteq	fp, [r2], -lr, lsl #10
 800a177:	c8000608 	stmdagt	r0, {r3, r9, sl}
 800a17b:	01000100 	mrseq	r0, (UNDEF: 16)
 800a17f:	106ade00 	rsbne	sp, sl, r0, lsl #28

0800a182 <sbas.7000>:
 800a182:	0662b510 			; <UNDEFINED> instruction: 0x0662b510
 800a186:	00000816 	andeq	r0, r0, r6, lsl r8
 800a18a:	00000101 	andeq	r0, r0, r1, lsl #2
 800a18e:	26000000 	strcs	r0, [r0], -r0
 800a192:	41fc0097 			; <UNDEFINED> instruction: 0x41fc0097

0800a194 <Geofence.8917>:
 800a194:	1f8941fc 	svcne	0x008941fc
 800a198:	001f8416 	andseq	r8, pc, r6, lsl r4	; <UNPREDICTABLE>
 800a19c:	1e65f8ba 	mcrne	8, 3, pc, cr5, cr10, {5}	; <UNPREDICTABLE>
 800a1a0:	00f4c068 	rscseq	ip, r4, r8, rrx
 800a1a4:	1e398604 	cfmsuba32ne	mvax0, mvax8, mvfx9, mvfx4
 800a1a8:	00902b30 	addseq	r2, r0, r0, lsr fp
 800a1ac:	1d84f270 	sfmne	f7, 1, [r4, #448]	; 0x1c0
 800a1b0:	fbc1b48e 	blx	70773f2 <_Minimum_Stack_Size+0x70753f2>
 800a1b4:	1fe59dda 	svcne	0x00e59dda
 800a1b8:	fce3b81c 	stc2l	8, cr11, [r3], #112	; 0x70
 800a1bc:	2062fa00 	rsbcs	pc, r2, r0, lsl #20
 800a1c0:	faf382b2 	blx	7ceac90 <_Minimum_Stack_Size+0x7ce8c90>
 800a1c4:	22ee0c7e 	rsccs	r0, lr, #32256	; 0x7e00
 800a1c8:	fb72ea5c 	blx	9cc4b42 <_lastdataromaddress+0x1ca4b42>
 800a1cc:	2471b79e 	ldrbtcs	fp, [r1], #-1950	; 0x79e
 800a1d0:	ffa726e2 			; <UNDEFINED> instruction: 0xffa726e2
 800a1d4:	20e3a088 	rsccs	sl, r3, r8, lsl #1
 800a1d8:	ff585ca6 			; <UNDEFINED> instruction: 0xff585ca6

0800a1dc <excvt.6409>:
 800a1dc:	83828180 	orrhi	r8, r2, #128, 2
 800a1e0:	87868584 	strhi	r8, [r6, r4, lsl #11]
 800a1e4:	8b8a8988 	blhi	62ac80c <_Minimum_Stack_Size+0x62aa80c>
 800a1e8:	8f8e8d8c 	svchi	0x008e8d8c
 800a1ec:	93929190 	orrsls	r9, r2, #144, 2	; 0x24
 800a1f0:	97969594 			; <UNDEFINED> instruction: 0x97969594
 800a1f4:	9bad9998 	blls	6b7085c <_Minimum_Stack_Size+0x6b6e85c>
 800a1f8:	9fae9d8c 	svcls	0x00ae9d8c
 800a1fc:	a3a221a0 			; <UNDEFINED> instruction: 0xa3a221a0
 800a200:	a7a6a5a4 	strge	sl, [r6, r4, lsr #11]!
 800a204:	abaaa9a8 	blge	6ab48ac <_Minimum_Stack_Size+0x6ab28ac>
 800a208:	afaeadac 	svcge	0x00aeadac
 800a20c:	b3b2b1b0 			; <UNDEFINED> instruction: 0xb3b2b1b0
 800a210:	b7b6b5b4 			; <UNDEFINED> instruction: 0xb7b6b5b4
 800a214:	bbbab9b8 	bllt	6eb88fc <_Minimum_Stack_Size+0x6eb68fc>
 800a218:	bfbebdbc 	svclt	0x00bebdbc
 800a21c:	c3c2c1c0 	bicgt	ip, r2, #192, 2	; 0x30
 800a220:	c7c6c5c4 	strbgt	ip, [r6, r4, asr #11]
 800a224:	cbcac9c8 	blgt	72bc94c <_Minimum_Stack_Size+0x72ba94c>
 800a228:	cfcecdcc 	svcgt	0x00cecdcc
 800a22c:	d3d2d1d0 	bicsle	sp, r2, #208, 2	; 0x34
 800a230:	d7d6d5d4 			; <UNDEFINED> instruction: 0xd7d6d5d4
 800a234:	dbdad9d8 	blle	76c099c <_Minimum_Stack_Size+0x76be99c>
 800a238:	dfdedddc 	svcle	0x00dedddc
 800a23c:	c3c2c1c0 	bicgt	ip, r2, #192, 2	; 0x30
 800a240:	c7c6c5c4 	strbgt	ip, [r6, r4, asr #11]
 800a244:	cbcac9c8 	blgt	72bc96c <_Minimum_Stack_Size+0x72ba96c>
 800a248:	cfcecdcc 	svcgt	0x00cecdcc
 800a24c:	d3d2d1d0 	bicsle	sp, r2, #208, 2	; 0x34
 800a250:	f7d6d5d4 			; <UNDEFINED> instruction: 0xf7d6d5d4
 800a254:	dbdad9d8 	blle	76c09bc <_Minimum_Stack_Size+0x76be9bc>
 800a258:	9fdedddc 	svcls	0x00dedddc

0800a25c <LfnOfs.lto_priv.46>:
 800a25c:	07050301 	streq	r0, [r5, -r1, lsl #6]
 800a260:	12100e09 	andsne	r0, r0, #9, 28	; 0x90
 800a264:	1c181614 	ldcne	6, cr1, [r8], {20}
 800a268:	0061001e 	rsbeq	r0, r1, lr, lsl r0

0800a26a <tbl_lower.4267>:
 800a26a:	00620061 	rsbeq	r0, r2, r1, rrx
 800a26e:	00640063 	rsbeq	r0, r4, r3, rrx
 800a272:	00660065 	rsbeq	r0, r6, r5, rrx
 800a276:	00680067 	rsbeq	r0, r8, r7, rrx
 800a27a:	006a0069 	rsbeq	r0, sl, r9, rrx
 800a27e:	006c006b 	rsbeq	r0, ip, fp, rrx
 800a282:	006e006d 	rsbeq	r0, lr, sp, rrx
 800a286:	0070006f 	rsbseq	r0, r0, pc, rrx
 800a28a:	00720071 	rsbseq	r0, r2, r1, ror r0
 800a28e:	00740073 	rsbseq	r0, r4, r3, ror r0
 800a292:	00760075 	rsbseq	r0, r6, r5, ror r0
 800a296:	00780077 	rsbseq	r0, r8, r7, ror r0
 800a29a:	007a0079 	rsbseq	r0, sl, r9, ror r0
 800a29e:	00a200a1 	adceq	r0, r2, r1, lsr #1
 800a2a2:	00a500a3 	adceq	r0, r5, r3, lsr #1
 800a2a6:	00af00ac 	adceq	r0, pc, ip, lsr #1
 800a2aa:	00e100e0 	rsceq	r0, r1, r0, ror #1
 800a2ae:	00e300e2 	rsceq	r0, r3, r2, ror #1
 800a2b2:	00e500e4 	rsceq	r0, r5, r4, ror #1
 800a2b6:	00e700e6 	rsceq	r0, r7, r6, ror #1
 800a2ba:	00e900e8 	rsceq	r0, r9, r8, ror #1
 800a2be:	00eb00ea 	rsceq	r0, fp, sl, ror #1
 800a2c2:	00ed00ec 	rsceq	r0, sp, ip, ror #1
 800a2c6:	00ef00ee 	rsceq	r0, pc, lr, ror #1
 800a2ca:	00f100f0 	ldrshteq	r0, [r1], #0
 800a2ce:	00f300f2 	ldrshteq	r0, [r3], #2
 800a2d2:	00f500f4 	ldrshteq	r0, [r5], #4
 800a2d6:	00f800f6 	ldrshteq	r0, [r8], #6
 800a2da:	00fa00f9 	ldrshteq	r0, [sl], #9
 800a2de:	00fc00fb 	ldrshteq	r0, [ip], #11
 800a2e2:	00fe00fd 	ldrshteq	r0, [lr], #13
 800a2e6:	010100ff 	strdeq	r0, [r1, -pc]
 800a2ea:	01050103 	tsteq	r5, r3, lsl #2
 800a2ee:	01090107 	tsteq	r9, r7, lsl #2
 800a2f2:	010d010b 	tsteq	sp, fp, lsl #2
 800a2f6:	0111010f 	tsteq	r1, pc, lsl #2
 800a2fa:	01150113 	tsteq	r5, r3, lsl r1
 800a2fe:	01190117 	tsteq	r9, r7, lsl r1
 800a302:	011d011b 	tsteq	sp, fp, lsl r1
 800a306:	0121011f 	teqeq	r1, pc, lsl r1
 800a30a:	01250123 	teqeq	r5, r3, lsr #2
 800a30e:	01290127 	teqeq	r9, r7, lsr #2
 800a312:	012d012b 	teqeq	sp, fp, lsr #2
 800a316:	0131012f 	teqeq	r1, pc, lsr #2
 800a31a:	01350133 	teqeq	r5, r3, lsr r1
 800a31e:	013a0137 	teqeq	sl, r7, lsr r1
 800a322:	013e013c 	teqeq	lr, ip, lsr r1
 800a326:	01420140 	cmpeq	r2, r0, asr #2
 800a32a:	01460144 	cmpeq	r6, r4, asr #2
 800a32e:	014b0148 	cmpeq	fp, r8, asr #2
 800a332:	014f014d 	cmpeq	pc, sp, asr #2
 800a336:	01530151 	cmpeq	r3, r1, asr r1
 800a33a:	01570155 	cmpeq	r7, r5, asr r1
 800a33e:	015b0159 	cmpeq	fp, r9, asr r1
 800a342:	015f015d 	cmpeq	pc, sp, asr r1	; <UNPREDICTABLE>
 800a346:	01630161 	cmneq	r3, r1, ror #2
 800a34a:	01670165 	cmneq	r7, r5, ror #2
 800a34e:	016b0169 	cmneq	fp, r9, ror #2
 800a352:	016f016d 	cmneq	pc, sp, ror #2
 800a356:	01730171 	cmneq	r3, r1, ror r1
 800a35a:	01770175 	cmneq	r7, r5, ror r1
 800a35e:	017c017a 	cmneq	ip, sl, ror r1
 800a362:	0192017e 	orrseq	r0, r2, lr, ror r1
 800a366:	03b203b1 			; <UNDEFINED> instruction: 0x03b203b1
 800a36a:	03b403b3 			; <UNDEFINED> instruction: 0x03b403b3
 800a36e:	03b603b5 			; <UNDEFINED> instruction: 0x03b603b5
 800a372:	03b803b7 			; <UNDEFINED> instruction: 0x03b803b7
 800a376:	03ba03b9 			; <UNDEFINED> instruction: 0x03ba03b9
 800a37a:	03bc03bb 			; <UNDEFINED> instruction: 0x03bc03bb
 800a37e:	03be03bd 			; <UNDEFINED> instruction: 0x03be03bd
 800a382:	03c003bf 	biceq	r0, r0, #-67108862	; 0xfc000002
 800a386:	03c303c1 	biceq	r0, r3, #67108867	; 0x4000003
 800a38a:	03c503c4 	biceq	r0, r5, #196, 6	; 0x10000003
 800a38e:	03c703c6 	biceq	r0, r7, #402653187	; 0x18000003
 800a392:	03c903c8 	biceq	r0, r9, #200, 6	; 0x20000003
 800a396:	043003ca 	ldrteq	r0, [r0], #-970	; 0x3ca
 800a39a:	04320431 	ldrteq	r0, [r2], #-1073	; 0x431
 800a39e:	04340433 	ldrteq	r0, [r4], #-1075	; 0x433
 800a3a2:	04360435 	ldrteq	r0, [r6], #-1077	; 0x435
 800a3a6:	04380437 	ldrteq	r0, [r8], #-1079	; 0x437
 800a3aa:	043a0439 	ldrteq	r0, [sl], #-1081	; 0x439
 800a3ae:	043c043b 	ldrteq	r0, [ip], #-1083	; 0x43b
 800a3b2:	043e043d 	ldrteq	r0, [lr], #-1085	; 0x43d
 800a3b6:	0440043f 	strbeq	r0, [r0], #-1087	; 0x43f
 800a3ba:	04420441 	strbeq	r0, [r2], #-1089	; 0x441
 800a3be:	04440443 	strbeq	r0, [r4], #-1091	; 0x443
 800a3c2:	04460445 	strbeq	r0, [r6], #-1093	; 0x445
 800a3c6:	04480447 	strbeq	r0, [r8], #-1095	; 0x447
 800a3ca:	044a0449 	strbeq	r0, [sl], #-1097	; 0x449
 800a3ce:	044c044b 	strbeq	r0, [ip], #-1099	; 0x44b
 800a3d2:	044e044d 	strbeq	r0, [lr], #-1101	; 0x44d
 800a3d6:	0451044f 	ldrbeq	r0, [r1], #-1103	; 0x44f
 800a3da:	04530452 	ldrbeq	r0, [r3], #-1106	; 0x452
 800a3de:	04550454 	ldrbeq	r0, [r5], #-1108	; 0x454
 800a3e2:	04570456 	ldrbeq	r0, [r7], #-1110	; 0x456
 800a3e6:	04590458 	ldrbeq	r0, [r9], #-1112	; 0x458
 800a3ea:	045b045a 	ldrbeq	r0, [fp], #-1114	; 0x45a
 800a3ee:	045e045c 	ldrbeq	r0, [lr], #-1116	; 0x45c
 800a3f2:	2170045f 	cmncs	r0, pc, asr r4
 800a3f6:	21722171 	cmncs	r2, r1, ror r1
 800a3fa:	21742173 	cmncs	r4, r3, ror r1
 800a3fe:	21762175 	cmncs	r6, r5, ror r1
 800a402:	21782177 	cmncs	r8, r7, ror r1
 800a406:	217a2179 	cmncs	sl, r9, ror r1
 800a40a:	217c217b 	cmncs	ip, fp, ror r1
 800a40e:	217e217d 	cmncs	lr, sp, ror r1
 800a412:	ff41217f 			; <UNDEFINED> instruction: 0xff41217f
 800a416:	ff43ff42 			; <UNDEFINED> instruction: 0xff43ff42
 800a41a:	ff45ff44 			; <UNDEFINED> instruction: 0xff45ff44
 800a41e:	ff47ff46 			; <UNDEFINED> instruction: 0xff47ff46
 800a422:	ff49ff48 			; <UNDEFINED> instruction: 0xff49ff48
 800a426:	ff4bff4a 			; <UNDEFINED> instruction: 0xff4bff4a
 800a42a:	ff4dff4c 			; <UNDEFINED> instruction: 0xff4dff4c
 800a42e:	ff4fff4e 			; <UNDEFINED> instruction: 0xff4fff4e
 800a432:	ff51ff50 			; <UNDEFINED> instruction: 0xff51ff50
 800a436:	ff53ff52 			; <UNDEFINED> instruction: 0xff53ff52
 800a43a:	ff55ff54 			; <UNDEFINED> instruction: 0xff55ff54
 800a43e:	ff57ff56 			; <UNDEFINED> instruction: 0xff57ff56
 800a442:	ff59ff58 			; <UNDEFINED> instruction: 0xff59ff58
 800a446:	0000ff5a 	andeq	pc, r0, sl, asr pc	; <UNPREDICTABLE>

0800a44a <tbl_upper.4268>:
 800a44a:	00420041 	subeq	r0, r2, r1, asr #32
 800a44e:	00440043 	subeq	r0, r4, r3, asr #32
 800a452:	00460045 	subeq	r0, r6, r5, asr #32
 800a456:	00480047 	subeq	r0, r8, r7, asr #32
 800a45a:	004a0049 	subeq	r0, sl, r9, asr #32
 800a45e:	004c004b 	subeq	r0, ip, fp, asr #32
 800a462:	004e004d 	subeq	r0, lr, sp, asr #32
 800a466:	0050004f 	subseq	r0, r0, pc, asr #32
 800a46a:	00520051 	subseq	r0, r2, r1, asr r0
 800a46e:	00540053 	subseq	r0, r4, r3, asr r0
 800a472:	00560055 	subseq	r0, r6, r5, asr r0
 800a476:	00580057 	subseq	r0, r8, r7, asr r0
 800a47a:	005a0059 	subseq	r0, sl, r9, asr r0
 800a47e:	ffe00021 			; <UNDEFINED> instruction: 0xffe00021
 800a482:	ffe5ffe1 			; <UNDEFINED> instruction: 0xffe5ffe1
 800a486:	ffe3ffe2 			; <UNDEFINED> instruction: 0xffe3ffe2
 800a48a:	00c100c0 	sbceq	r0, r1, r0, asr #1
 800a48e:	00c300c2 	sbceq	r0, r3, r2, asr #1
 800a492:	00c500c4 	sbceq	r0, r5, r4, asr #1
 800a496:	00c700c6 	sbceq	r0, r7, r6, asr #1
 800a49a:	00c900c8 	sbceq	r0, r9, r8, asr #1
 800a49e:	00cb00ca 	sbceq	r0, fp, sl, asr #1
 800a4a2:	00cd00cc 	sbceq	r0, sp, ip, asr #1
 800a4a6:	00cf00ce 	sbceq	r0, pc, lr, asr #1
 800a4aa:	00d100d0 	ldrsbeq	r0, [r1], #0
 800a4ae:	00d300d2 	ldrsbeq	r0, [r3], #2
 800a4b2:	00d500d4 	ldrsbeq	r0, [r5], #4
 800a4b6:	00d800d6 	ldrsbeq	r0, [r8], #6
 800a4ba:	00da00d9 	ldrsbeq	r0, [sl], #9
 800a4be:	00dc00db 	ldrsbeq	r0, [ip], #11
 800a4c2:	00de00dd 	ldrsbeq	r0, [lr], #13
 800a4c6:	01000178 	tsteq	r0, r8, ror r1
 800a4ca:	01040102 	tsteq	r4, r2, lsl #2
 800a4ce:	01080106 	tsteq	r8, r6, lsl #2
 800a4d2:	010c010a 	tsteq	ip, sl, lsl #2
 800a4d6:	0110010e 	tsteq	r0, lr, lsl #2
 800a4da:	01140112 	tsteq	r4, r2, lsl r1
 800a4de:	01180116 	tsteq	r8, r6, lsl r1
 800a4e2:	011c011a 	tsteq	ip, sl, lsl r1
 800a4e6:	0120011e 	teqeq	r0, lr, lsl r1
 800a4ea:	01240122 	teqeq	r4, r2, lsr #2
 800a4ee:	01280126 	teqeq	r8, r6, lsr #2
 800a4f2:	012c012a 	teqeq	ip, sl, lsr #2
 800a4f6:	0130012e 	teqeq	r0, lr, lsr #2
 800a4fa:	01340132 	teqeq	r4, r2, lsr r1
 800a4fe:	01390136 	teqeq	r9, r6, lsr r1
 800a502:	013d013b 	teqeq	sp, fp, lsr r1
 800a506:	0141013f 	cmpeq	r1, pc, lsr r1
 800a50a:	01450143 	cmpeq	r5, r3, asr #2
 800a50e:	014a0147 	cmpeq	sl, r7, asr #2
 800a512:	014e014c 	cmpeq	lr, ip, asr #2
 800a516:	01520150 	cmpeq	r2, r0, asr r1
 800a51a:	01560154 	cmpeq	r6, r4, asr r1
 800a51e:	015a0158 	cmpeq	sl, r8, asr r1
 800a522:	015e015c 	cmpeq	lr, ip, asr r1
 800a526:	01620160 	cmneq	r2, r0, ror #2
 800a52a:	01660164 	cmneq	r6, r4, ror #2
 800a52e:	016a0168 	cmneq	sl, r8, ror #2
 800a532:	016e016c 	cmneq	lr, ip, ror #2
 800a536:	01720170 	cmneq	r2, r0, ror r1
 800a53a:	01760174 	cmneq	r6, r4, ror r1
 800a53e:	017b0179 	cmneq	fp, r9, ror r1
 800a542:	0191017d 	orrseq	r0, r1, sp, ror r1
 800a546:	03920391 	orrseq	r0, r2, #1140850690	; 0x44000002
 800a54a:	03940393 	orrseq	r0, r4, #1275068418	; 0x4c000002
 800a54e:	03960395 	orrseq	r0, r6, #1409286146	; 0x54000002
 800a552:	03980397 	orrseq	r0, r8, #1543503874	; 0x5c000002
 800a556:	039a0399 	orrseq	r0, sl, #1677721602	; 0x64000002
 800a55a:	039c039b 	orrseq	r0, ip, #1811939330	; 0x6c000002
 800a55e:	039e039d 	orrseq	r0, lr, #1946157058	; 0x74000002
 800a562:	03a0039f 	moveq	r0, #2080374786	; 0x7c000002
 800a566:	03a303a1 			; <UNDEFINED> instruction: 0x03a303a1
 800a56a:	03a503a4 			; <UNDEFINED> instruction: 0x03a503a4
 800a56e:	03a703a6 			; <UNDEFINED> instruction: 0x03a703a6
 800a572:	03a903a8 			; <UNDEFINED> instruction: 0x03a903a8
 800a576:	041003aa 	ldreq	r0, [r0], #-938	; 0x3aa
 800a57a:	04120411 	ldreq	r0, [r2], #-1041	; 0x411
 800a57e:	04140413 	ldreq	r0, [r4], #-1043	; 0x413
 800a582:	04160415 	ldreq	r0, [r6], #-1045	; 0x415
 800a586:	04180417 	ldreq	r0, [r8], #-1047	; 0x417
 800a58a:	041a0419 	ldreq	r0, [sl], #-1049	; 0x419
 800a58e:	041c041b 	ldreq	r0, [ip], #-1051	; 0x41b
 800a592:	041e041d 	ldreq	r0, [lr], #-1053	; 0x41d
 800a596:	0420041f 	strteq	r0, [r0], #-1055	; 0x41f
 800a59a:	04220421 	strteq	r0, [r2], #-1057	; 0x421
 800a59e:	04240423 	strteq	r0, [r4], #-1059	; 0x423
 800a5a2:	04260425 	strteq	r0, [r6], #-1061	; 0x425
 800a5a6:	04280427 	strteq	r0, [r8], #-1063	; 0x427
 800a5aa:	042a0429 	strteq	r0, [sl], #-1065	; 0x429
 800a5ae:	042c042b 	strteq	r0, [ip], #-1067	; 0x42b
 800a5b2:	042e042d 	strteq	r0, [lr], #-1069	; 0x42d
 800a5b6:	0401042f 	streq	r0, [r1], #-1071	; 0x42f
 800a5ba:	04030402 	streq	r0, [r3], #-1026	; 0x402
 800a5be:	04050404 	streq	r0, [r5], #-1028	; 0x404
 800a5c2:	04070406 	streq	r0, [r7], #-1030	; 0x406
 800a5c6:	04090408 	streq	r0, [r9], #-1032	; 0x408
 800a5ca:	040b040a 	streq	r0, [fp], #-1034	; 0x40a
 800a5ce:	040e040c 	streq	r0, [lr], #-1036	; 0x40c
 800a5d2:	2160040f 	cmncs	r0, pc, lsl #8
 800a5d6:	21622161 	cmncs	r2, r1, ror #2
 800a5da:	21642163 	cmncs	r4, r3, ror #2
 800a5de:	21662165 	cmncs	r6, r5, ror #2
 800a5e2:	21682167 	cmncs	r8, r7, ror #2
 800a5e6:	216a2169 	cmncs	sl, r9, ror #2
 800a5ea:	216c216b 	cmncs	ip, fp, ror #2
 800a5ee:	216e216d 	cmncs	lr, sp, ror #2
 800a5f2:	ff21216f 			; <UNDEFINED> instruction: 0xff21216f
 800a5f6:	ff23ff22 			; <UNDEFINED> instruction: 0xff23ff22
 800a5fa:	ff25ff24 			; <UNDEFINED> instruction: 0xff25ff24
 800a5fe:	ff27ff26 			; <UNDEFINED> instruction: 0xff27ff26
 800a602:	ff29ff28 			; <UNDEFINED> instruction: 0xff29ff28
 800a606:	ff2bff2a 			; <UNDEFINED> instruction: 0xff2bff2a
 800a60a:	ff2dff2c 			; <UNDEFINED> instruction: 0xff2dff2c
 800a60e:	ff2fff2e 			; <UNDEFINED> instruction: 0xff2fff2e
 800a612:	ff31ff30 			; <UNDEFINED> instruction: 0xff31ff30
 800a616:	ff33ff32 			; <UNDEFINED> instruction: 0xff33ff32
 800a61a:	ff35ff34 			; <UNDEFINED> instruction: 0xff35ff34
 800a61e:	ff37ff36 			; <UNDEFINED> instruction: 0xff37ff36
 800a622:	ff39ff38 			; <UNDEFINED> instruction: 0xff39ff38
 800a626:	0000ff3a 	andeq	pc, r0, sl, lsr pc	; <UNPREDICTABLE>
 800a62a:	01000413 	tsteq	r0, r3, lsl r4
 800a62e:	00110001 	andseq	r0, r1, r1
 800a632:	00012011 	andeq	r2, r1, r1, lsl r0
 800a636:	0312118a 	tsteq	r2, #-2147483614	; 0x80000022
 800a63a:	0a000622 	beq	800beca <_eidata+0x88e>
 800a63e:	06011211 			; <UNDEFINED> instruction: 0x06011211
 800a642:	01121180 	tsteq	r2, r0, lsl #3
 800a646:	11118500 	tstne	r1, r0, lsl #10
 800a64a:	91d30102 	bicsls	r0, r3, r2, lsl #2

0800a64e <Tbl.lto_priv.53>:
 800a64e:	000020ac 	andeq	r2, r0, ip, lsr #1
 800a652:	0192201a 	orrseq	r2, r2, sl, lsl r0
 800a656:	2026201e 	eorcs	r2, r6, lr, lsl r0
 800a65a:	20212020 	eorcs	r2, r1, r0, lsr #32
 800a65e:	203002c6 	eorscs	r0, r0, r6, asr #5
 800a662:	20390160 	eorscs	r0, r9, r0, ror #2
 800a666:	00000152 	andeq	r0, r0, r2, asr r1
 800a66a:	0000017d 	andeq	r0, r0, sp, ror r1
 800a66e:	20180000 	andscs	r0, r8, r0
 800a672:	201c2019 	andscs	r2, ip, r9, lsl r0
 800a676:	2022201d 	eorcs	r2, r2, sp, lsl r0
 800a67a:	20142013 	andscs	r2, r4, r3, lsl r0
 800a67e:	212202dc 	ldrdcs	r0, [r2, -ip]!
 800a682:	203a0161 	eorscs	r0, sl, r1, ror #2
 800a686:	00000153 	andeq	r0, r0, r3, asr r1
 800a68a:	0178017e 	cmneq	r8, lr, ror r1
 800a68e:	00a100a0 	adceq	r0, r1, r0, lsr #1
 800a692:	00a300a2 	adceq	r0, r3, r2, lsr #1
 800a696:	00a500a4 	adceq	r0, r5, r4, lsr #1
 800a69a:	00a700a6 	adceq	r0, r7, r6, lsr #1
 800a69e:	00a900a8 	adceq	r0, r9, r8, lsr #1
 800a6a2:	00ab00aa 	adceq	r0, fp, sl, lsr #1
 800a6a6:	00ad00ac 	adceq	r0, sp, ip, lsr #1
 800a6aa:	00af00ae 	adceq	r0, pc, lr, lsr #1
 800a6ae:	00b100b0 	ldrhteq	r0, [r1], r0
 800a6b2:	00b300b2 	ldrhteq	r0, [r3], r2
 800a6b6:	00b500b4 	ldrhteq	r0, [r5], r4
 800a6ba:	00b700b6 	ldrhteq	r0, [r7], r6
 800a6be:	00b900b8 	ldrhteq	r0, [r9], r8
 800a6c2:	00bb00ba 	ldrhteq	r0, [fp], sl
 800a6c6:	00bd00bc 	ldrhteq	r0, [sp], ip
 800a6ca:	00bf00be 	ldrhteq	r0, [pc], lr
 800a6ce:	00c100c0 	sbceq	r0, r1, r0, asr #1
 800a6d2:	00c300c2 	sbceq	r0, r3, r2, asr #1
 800a6d6:	00c500c4 	sbceq	r0, r5, r4, asr #1
 800a6da:	00c700c6 	sbceq	r0, r7, r6, asr #1
 800a6de:	00c900c8 	sbceq	r0, r9, r8, asr #1
 800a6e2:	00cb00ca 	sbceq	r0, fp, sl, asr #1
 800a6e6:	00cd00cc 	sbceq	r0, sp, ip, asr #1
 800a6ea:	00cf00ce 	sbceq	r0, pc, lr, asr #1
 800a6ee:	00d100d0 	ldrsbeq	r0, [r1], #0
 800a6f2:	00d300d2 	ldrsbeq	r0, [r3], #2
 800a6f6:	00d500d4 	ldrsbeq	r0, [r5], #4
 800a6fa:	00d700d6 	ldrsbeq	r0, [r7], #6
 800a6fe:	00d900d8 	ldrsbeq	r0, [r9], #8
 800a702:	00db00da 	ldrsbeq	r0, [fp], #10
 800a706:	00dd00dc 	ldrsbeq	r0, [sp], #12
 800a70a:	00df00de 	ldrsbeq	r0, [pc], #14	; <UNPREDICTABLE>
 800a70e:	00e100e0 	rsceq	r0, r1, r0, ror #1
 800a712:	00e300e2 	rsceq	r0, r3, r2, ror #1
 800a716:	00e500e4 	rsceq	r0, r5, r4, ror #1
 800a71a:	00e700e6 	rsceq	r0, r7, r6, ror #1
 800a71e:	00e900e8 	rsceq	r0, r9, r8, ror #1
 800a722:	00eb00ea 	rsceq	r0, fp, sl, ror #1
 800a726:	00ed00ec 	rsceq	r0, sp, ip, ror #1
 800a72a:	00ef00ee 	rsceq	r0, pc, lr, ror #1
 800a72e:	00f100f0 	ldrshteq	r0, [r1], #0
 800a732:	00f300f2 	ldrshteq	r0, [r3], #2
 800a736:	00f500f4 	ldrshteq	r0, [r5], #4
 800a73a:	00f700f6 	ldrshteq	r0, [r7], #6
 800a73e:	00f900f8 	ldrshteq	r0, [r9], #8
 800a742:	00fb00fa 	ldrshteq	r0, [fp], #10
 800a746:	00fd00fc 	ldrshteq	r0, [sp], #12
 800a74a:	00ff00fe 	ldrshteq	r0, [pc], #14

0800a74e <MASS_StringInterface>:
 800a74e:	00530310 	subseq	r0, r3, r0, lsl r3
 800a752:	00200054 	eoreq	r0, r0, r4, asr r0
 800a756:	0061004d 	rsbeq	r0, r1, sp, asr #32
 800a75a:	00730073 	rsbseq	r0, r3, r3, ror r0

0800a75e <MASS_StringProduct>:
 800a75e:	0052032e 	subseq	r0, r2, lr, lsr #6
 800a762:	0063006f 	rsbeq	r0, r3, pc, rrx
 800a766:	006f006b 	rsbeq	r0, pc, fp, rrx
 800a76a:	006e006f 	rsbeq	r0, lr, pc, rrx
 800a76e:	004c0020 	subeq	r0, ip, r0, lsr #32
 800a772:	00750061 	rsbseq	r0, r5, r1, rrx
 800a776:	0063006e 	rsbeq	r0, r3, lr, rrx
 800a77a:	00650068 	rsbeq	r0, r5, r8, rrx
 800a77e:	00200072 	eoreq	r0, r0, r2, ror r0
 800a782:	006f0042 	rsbeq	r0, pc, r2, asr #32
 800a786:	00720061 	rsbseq	r0, r2, r1, rrx
 800a78a:	03320064 	teqeq	r2, #100	; 0x64

0800a78c <MASS_StringVendor>:
 800a78c:	00550332 	subseq	r0, r5, r2, lsr r3
 800a790:	0069006e 	rsbeq	r0, r9, lr, rrx
 800a794:	00650076 	rsbeq	r0, r5, r6, ror r0
 800a798:	00730072 	rsbseq	r0, r3, r2, ror r0
 800a79c:	00740069 	rsbseq	r0, r4, r9, rrx
 800a7a0:	00200079 	eoreq	r0, r0, r9, ror r0
 800a7a4:	0066006f 	rsbeq	r0, r6, pc, rrx
 800a7a8:	004e0020 	subeq	r0, lr, r0, lsr #32
 800a7ac:	0074006f 	rsbseq	r0, r4, pc, rrx
 800a7b0:	00690074 	rsbeq	r0, r9, r4, ror r0
 800a7b4:	0067006e 	rsbeq	r0, r7, lr, rrx
 800a7b8:	00610068 	rsbeq	r0, r1, r8, rrx
 800a7bc:	0304006d 	movweq	r0, #16493	; 0x406d

0800a7be <MASS_StringLangID>:
 800a7be:	04090304 	streq	r0, [r9], #-772	; 0x304

0800a7c2 <MASS_ConfigDescriptor>:
 800a7c2:	00200209 	eoreq	r0, r0, r9, lsl #4
 800a7c6:	c0000101 	andgt	r0, r0, r1, lsl #2
 800a7ca:	000409fa 	strdeq	r0, [r4], -sl
 800a7ce:	06080200 	streq	r0, [r8], -r0, lsl #4
 800a7d2:	05070450 	streq	r0, [r7, #-1104]	; 0x450
 800a7d6:	00400281 	subeq	r0, r0, r1, lsl #5
 800a7da:	02050700 	andeq	r0, r5, #0, 14
 800a7de:	00004002 	andeq	r4, r0, r2
 800a7e2:	69740043 	ldmdbvs	r4!, {r0, r1, r6}^
 800a7e6:	742e656d 	strtvc	r6, [lr], #-1389	; 0x56d
 800a7ea:	52007478 	andpl	r7, r0, #120, 8	; 0x78000000
 800a7ee:	73204354 	teqvc	r0, #84, 6	; 0x50000001
 800a7f2:	74207465 	strtvc	r7, [r0], #-1125	; 0x465
 800a7f6:	6425206f 	strtvs	r2, [r5], #-111	; 0x6f
 800a7fa:	2f64252f 	svccs	0x0064252f
 800a7fe:	25206425 	strcs	r6, [r0, #-1061]!	; 0x425
 800a802:	64253a64 	strtvs	r3, [r5], #-2660	; 0xa64
 800a806:	0a64253a 	beq	9913cf6 <_lastdataromaddress+0x18f3cf6>
 800a80a:	74657300 	strbtvc	r7, [r5], #-768	; 0x300
 800a80e:	676e6974 			; <UNDEFINED> instruction: 0x676e6974
 800a812:	61642e73 	smcvs	17123	; 0x42e3
 800a816:	30250074 	eorcc	r0, r5, r4, ror r0
 800a81a:	252d6432 	strcs	r6, [sp, #-1074]!	; 0x432
 800a81e:	2d643230 	sfmcs	f3, 2, [r4, #-192]!	; 0xffffff40
 800a822:	64323025 	ldrtvs	r3, [r2], #-37	; 0x25
 800a826:	32302554 	eorscc	r2, r0, #84, 10	; 0x15000000
 800a82a:	30252d64 	eorcc	r2, r5, r4, ror #26
 800a82e:	252d6432 	strcs	r6, [sp, #-1074]!	; 0x432
 800a832:	2d643230 	sfmcs	f3, 2, [r4, #-192]!	; 0xffffff40
 800a836:	632e7325 	teqvs	lr, #-1811939328	; 0x94000000
 800a83a:	4c007673 	stcmi	6, cr7, [r0], {115}	; 0x73
 800a83e:	4600676f 	strmi	r6, [r0], -pc, ror #14
 800a842:	73467461 	movtvc	r7, #25697	; 0x6461
 800a846:	69726420 	ldmdbvs	r2!, {r5, sl, sp, lr}^
 800a84a:	65206576 	strvs	r6, [r0, #-1398]!	; 0x576
 800a84e:	726f7272 	rsbvc	r7, pc, #536870919	; 0x20000007
 800a852:	0d642520 	cfstr64eq	mvdx2, [r4, #-128]!	; 0xffffff80
 800a856:	6f4e000a 	svcvs	0x004e000a
 800a85a:	44537520 	ldrbmi	r7, [r3], #-1312	; 0x520
 800a85e:	72616320 	rsbvc	r6, r1, #32, 6	; 0x80000000
 800a862:	6e692064 	cdpvs	0, 6, cr2, cr9, cr4, {3}
 800a866:	74726573 	ldrbtvc	r6, [r2], #-1395	; 0x573
 800a86a:	0d3f6465 	cfldrseq	mvf6, [pc, #-404]!	; 800a6dc <Tbl.lto_priv.53+0x8e>
 800a86e:	675f000a 	ldrbvs	r0, [pc, -sl]
 800a872:	2e6f7279 	mcrcs	2, 3, r7, cr15, cr9, {3}
 800a876:	00766177 	rsbseq	r6, r6, r7, ror r1
 800a87a:	2d657250 	sfmcs	f7, 2, [r5, #-320]!	; 0xfffffec0
 800a87e:	6f6c6c41 	svcvs	0x006c6c41
 800a882:	69746163 	ldmdbvs	r4!, {r0, r1, r5, r6, r8, sp, lr}^
 800a886:	65206e6f 	strvs	r6, [r0, #-3695]!	; 0xe6f
 800a88a:	726f7272 	rsbvc	r7, pc, #536870919	; 0x20000007
 800a88e:	53000a0d 	movwpl	r0, #2573	; 0xa0d
 800a892:	206b6565 	rsbcs	r6, fp, r5, ror #10
 800a896:	6f727265 	svcvs	0x00727265
 800a89a:	000a0d72 	andeq	r0, sl, r2, ror sp
 800a89e:	616c6953 	cmnvs	ip, r3, asr r9
 800a8a2:	203a7362 	eorscs	r7, sl, r2, ror #6
 800a8a6:	78323025 	ldmdavc	r2!, {r0, r2, r5, ip, sp}
 800a8aa:	6953000a 	ldmdbvs	r3, {r1, r3}^
 800a8ae:	7362616c 	cmnvc	r2, #108, 2
 800a8b2:	74656420 	strbtvc	r6, [r5], #-1056	; 0x420
 800a8b6:	20746365 	rsbscs	r6, r4, r5, ror #6
 800a8ba:	6f727265 	svcvs	0x00727265
 800a8be:	67202c72 			; <UNDEFINED> instruction: 0x67202c72
 800a8c2:	003a746f 	eorseq	r7, sl, pc, ror #8
 800a8c6:	6c6c6548 	cfstr64vs	mvdx6, [ip], #-288	; 0xfffffee0
 800a8ca:	7266206f 	rsbvc	r2, r6, #111	; 0x6f
 800a8ce:	72206d6f 	eorvc	r6, r0, #7104	; 0x1bc0
 800a8d2:	6f6b636f 	svcvs	0x006b636f
 800a8d6:	70206e6f 	eorvc	r6, r0, pc, ror #28
 800a8da:	656a6f72 	strbvs	r6, [sl, #-3954]!	; 0xf72
 800a8de:	000a7463 	andeq	r7, sl, r3, ror #8
 800a8e2:	64323025 	ldrtvs	r3, [r2], #-37	; 0x25
 800a8e6:	3230252d 	eorscc	r2, r0, #188743680	; 0xb400000
 800a8ea:	30252d64 	eorcc	r2, r5, r4, ror #26
 800a8ee:	25546432 	ldrbcs	r6, [r4, #-1074]	; 0x432
 800a8f2:	3a643230 	bcc	99171ba <_lastdataromaddress+0x18f71ba>
 800a8f6:	64323025 	ldrtvs	r3, [r2], #-37	; 0x25
 800a8fa:	3230253a 	eorscc	r2, r0, #243269632	; 0xe800000
 800a8fe:	42000a64 	andmi	r0, r0, #100, 20	; 0x64000
 800a902:	65747461 	ldrbvs	r7, [r4, #-1121]!	; 0x461
 800a906:	203a7972 	eorscs	r7, sl, r2, ror r9
 800a90a:	56663325 	strbtpl	r3, [r6], -r5, lsr #6
 800a90e:	6954000a 	ldmdbvs	r4, {r1, r3}^
 800a912:	002c656d 	eoreq	r6, ip, sp, ror #10
 800a916:	2c74614c 	ldfcse	f6, [r4], #-304	; 0xfffffed0
 800a91a:	676e6f4c 	strbvs	r6, [lr, -ip, asr #30]!
 800a91e:	746c412c 	strbtvc	r4, [ip], #-300	; 0x12c
 800a922:	6c6f562c 	stclvs	6, cr5, [pc], #-176	; 800a878 <MASS_ConfigDescriptor+0xb6>
 800a926:	65676174 	strbvs	r6, [r7, #-372]!	; 0x174
 800a92a:	7875412c 	ldmdavc	r5!, {r2, r3, r5, r8, lr}^
 800a92e:	6c6f565f 	stclvs	6, cr5, [pc], #-380	; 800a7b8 <MASS_StringVendor+0x2c>
 800a932:	65676174 	strbvs	r6, [r7, #-372]!	; 0x174
 800a936:	5f59582c 	svcpl	0x0059582c
 800a93a:	6f727947 	svcvs	0x00727947
 800a93e:	475f5a2c 	ldrbmi	r5, [pc, -ip, lsr #20]
 800a942:	2c6f7279 	sfmcs	f7, 2, [pc], #-484	; 800a764 <MASS_StringProduct+0x6>
 800a946:	706d6554 	rsbvc	r6, sp, r4, asr r5
 800a94a:	74617265 	strbtvc	r7, [r1], #-613	; 0x265
 800a94e:	2c657275 	sfmcs	f7, 2, [r5], #-468	; 0xfffffe2c
 800a952:	696c7055 	stmdbvs	ip!, {r0, r2, r4, r6, ip, sp, lr}^
 800a956:	42286b6e 	eormi	r6, r8, #112640	; 0x1b800
 800a95a:	73657479 	cmnvc	r5, #2030043136	; 0x79000000
 800a95e:	70552c29 	subsvc	r2, r5, r9, lsr #24
 800a962:	6b6e696c 	blvs	9ba4f1a <_lastdataromaddress+0x1b84f1a>
 800a966:	6d6f435f 	stclvs	3, cr4, [pc, #-380]!	; 800a7f0 <MASS_ConfigDescriptor+0x2e>
 800a96a:	646e616d 	strbtvs	r6, [lr], #-365	; 0x16d
 800a96e:	67616c46 	strbvs	r6, [r1, -r6, asr #24]!
 800a972:	75432c73 	strbvc	r2, [r3, #-3187]	; 0xc73
 800a976:	776f6474 			; <UNDEFINED> instruction: 0x776f6474
 800a97a:	70532c6e 	subsvc	r2, r3, lr, ror #24
 800a97e:	492c6e69 	stmdbmi	ip!, {r0, r3, r5, r6, r9, sl, fp, sp, lr}
 800a982:	422c646e 	eormi	r6, ip, #1845493760	; 0x6e000000
 800a986:	6f747475 	svcvs	0x00747475
 800a98a:	7270206e 	rsbsvc	r2, r0, #110	; 0x6e
 800a98e:	0d737365 	ldcleq	3, cr7, [r3, #-404]!	; 0xfffffe6c
 800a992:	5024000a 	eorpl	r0, r4, sl
 800a996:	2c584255 	lfmcs	f4, 2, [r8], {85}	; 0x55
 800a99a:	472c3034 			; <UNDEFINED> instruction: 0x472c3034
 800a99e:	302c4c4c 	eorcc	r4, ip, ip, asr #24
 800a9a2:	302c302c 	eorcc	r3, ip, ip, lsr #32
 800a9a6:	352a302c 	strcc	r3, [sl, #-44]!	; 0x2c
 800a9aa:	000a0d43 	andeq	r0, sl, r3, asr #26
 800a9ae:	42555024 	subsmi	r5, r5, #36	; 0x24
 800a9b2:	30342c58 	eorscc	r2, r4, r8, asr ip
 800a9b6:	41445a2c 	cmpmi	r4, ip, lsr #20
 800a9ba:	302c302c 	eorcc	r3, ip, ip, lsr #32
 800a9be:	302c302c 	eorcc	r3, ip, ip, lsr #32
 800a9c2:	0d34342a 	cfldrseq	mvf3, [r4, #-168]!	; 0xffffff58
 800a9c6:	5024000a 	eorpl	r0, r4, sl
 800a9ca:	2c584255 	lfmcs	f4, 2, [r8], {85}	; 0x55
 800a9ce:	562c3034 			; <UNDEFINED> instruction: 0x562c3034
 800a9d2:	302c4754 	eorcc	r4, ip, r4, asr r7
 800a9d6:	302c302c 	eorcc	r3, ip, ip, lsr #32
 800a9da:	352a302c 	strcc	r3, [sl, #-44]!	; 0x2c
 800a9de:	000a0d45 	andeq	r0, sl, r5, asr #26
 800a9e2:	42555024 	subsmi	r5, r5, #36	; 0x24
 800a9e6:	30342c58 	eorscc	r2, r4, r8, asr ip
 800a9ea:	5653472c 	ldrbpl	r4, [r3], -ip, lsr #14
 800a9ee:	302c302c 	eorcc	r3, ip, ip, lsr #32
 800a9f2:	302c302c 	eorcc	r3, ip, ip, lsr #32
 800a9f6:	0d39352a 	cfldr32eq	mvfx3, [r9, #-168]!	; 0xffffff58
 800a9fa:	5024000a 	eorpl	r0, r4, sl
 800a9fe:	2c584255 	lfmcs	f4, 2, [r8], {85}	; 0x55
 800aa02:	472c3034 			; <UNDEFINED> instruction: 0x472c3034
 800aa06:	302c4153 	eorcc	r4, ip, r3, asr r1
 800aa0a:	302c302c 	eorcc	r3, ip, ip, lsr #32
 800aa0e:	342a302c 	strtcc	r3, [sl], #-44	; 0x2c
 800aa12:	000a0d45 	andeq	r0, sl, r5, asr #26
 800aa16:	42555024 	subsmi	r5, r5, #36	; 0x24
 800aa1a:	30342c58 	eorscc	r2, r4, r8, asr ip
 800aa1e:	434d522c 	movtmi	r5, #53804	; 0xd22c
 800aa22:	302c302c 	eorcc	r3, ip, ip, lsr #32
 800aa26:	302c302c 	eorcc	r3, ip, ip, lsr #32
 800aa2a:	0d37342a 	cfldrseq	mvf3, [r7, #-168]!	; 0xffffff58
 800aa2e:	5024000a 	eorpl	r0, r4, sl
 800aa32:	2c584255 	lfmcs	f4, 2, [r8], {85}	; 0x55
 800aa36:	472c3034 			; <UNDEFINED> instruction: 0x472c3034
 800aa3a:	302c4147 	eorcc	r4, ip, r7, asr #2
 800aa3e:	302c302c 	eorcc	r3, ip, ip, lsr #32
 800aa42:	352a302c 	strcc	r3, [sl, #-44]!	; 0x2c
 800aa46:	000a0d41 	andeq	r0, sl, r1, asr #26
 800aa4a:	206b6341 	rsbcs	r6, fp, r1, asr #6
 800aa4e:	6f727245 	svcvs	0x00727245
 800aa52:	552d2072 	strpl	r2, [sp, #-114]!	; 0x72
 800aa56:	74726173 	ldrbtvc	r6, [r2], #-371	; 0x173
 800aa5a:	6e6f6320 	cdpvs	3, 6, cr6, cr15, cr0, {1}
 800aa5e:	0d676966 	stcleq	9, cr6, [r7, #-408]!	; 0xfffffe68
 800aa62:	6341000a 	movtvs	r0, #4106	; 0x100a
 800aa66:	7245206b 	subvc	r2, r5, #107	; 0x6b
 800aa6a:	20726f72 	rsbscs	r6, r2, r2, ror pc
 800aa6e:	6361502d 	cmnvs	r1, #45	; 0x2d
 800aa72:	7374656b 	cmnvc	r4, #448790528	; 0x1ac00000
 800aa76:	6e6f6320 	cdpvs	3, 6, cr6, cr15, cr0, {1}
 800aa7a:	0d676966 	stcleq	9, cr6, [r7, #-408]!	; 0xfffffe68
 800aa7e:	6341000a 	movtvs	r0, #4106	; 0x100a
 800aa82:	7245206b 	subvc	r2, r5, #107	; 0x6b
 800aa86:	20726f72 	rsbscs	r6, r2, r2, ror pc
 800aa8a:	6c69462d 	stclvs	6, cr4, [r9], #-180	; 0xffffff4c
 800aa8e:	20726574 	rsbscs	r6, r2, r4, ror r5
 800aa92:	666e6f63 	strbtvs	r6, [lr], -r3, ror #30
 800aa96:	0a0d6769 	beq	8364842 <_lastdataromaddress+0x344842>
 800aa9a:	6b634100 	blvs	98daea2 <_lastdataromaddress+0x18baea2>
 800aa9e:	72724520 	rsbsvc	r4, r2, #32, 10	; 0x8000000
 800aaa2:	2d20726f 	sfmcs	f7, 4, [r0, #-444]!	; 0xfffffe44
 800aaa6:	61647055 	qdsubvs	r7, r5, r4
 800aaaa:	63206574 	teqvs	r0, #116, 10	; 0x1d000000
 800aaae:	69666e6f 	stmdbvs	r6!, {r0, r1, r2, r3, r5, r6, r9, sl, fp, sp, lr}^
 800aab2:	000a0d67 	andeq	r0, sl, r7, ror #26
 800aab6:	206b6341 	rsbcs	r6, fp, r1, asr #6
 800aaba:	6f727245 	svcvs	0x00727245
 800aabe:	532d2072 	teqpl	sp, #114	; 0x72
 800aac2:	20534142 	subscs	r4, r3, r2, asr #2
 800aac6:	666e6f63 	strbtvs	r6, [lr], -r3, ror #30
 800aaca:	0a0d6769 	beq	8364876 <_lastdataromaddress+0x344876>
 800aace:	646e4900 	strbtvs	r4, [lr], #-2304	; 0x900
 800aad2:	20726f6f 	rsbscs	r6, r2, pc, ror #30
 800aad6:	65646f6d 	strbvs	r6, [r4, #-3949]!	; 0xf6d
 800aada:	52000a0d 	andpl	r0, r0, #53248	; 0xd000
 800aade:	6f6b636f 	svcvs	0x006b636f
 800aae2:	70206e6f 	eorvc	r6, r0, pc, ror #28
 800aae6:	656a6f72 	strbvs	r6, [sl, #-3954]!	; 0xf72
 800aaea:	253a7463 	ldrcs	r7, [sl, #-1123]!	; 0x463
 800aaee:	61732064 	cmnvs	r3, r4, rrx
 800aaf2:	000a7374 	andeq	r7, sl, r4, ror r3
 800aaf6:	6b636f52 	blvs	98e6846 <_lastdataromaddress+0x18c6846>
 800aafa:	206e6f6f 	rsbcs	r6, lr, pc, ror #30
 800aafe:	6a6f7270 	bvs	9be74c6 <_lastdataromaddress+0x1bc74c6>
 800ab02:	3a746365 	bcc	9d2389e <_lastdataromaddress+0x1d0389e>
 800ab06:	63657220 	cmnvs	r5, #32, 4
 800ab0a:	65766965 	ldrbvs	r6, [r6, #-2405]!	; 0x965
 800ab0e:	25203a64 	strcs	r3, [r0, #-2660]!	; 0xa64
 800ab12:	0d000a73 	vstreq	s0, [r0, #-460]	; 0xfffffe34
 800ab16:	746f470a 	strbtvc	r4, [pc], #-1802	; 800ab1e <MASS_ConfigDescriptor+0x35c>
 800ab1a:	53504720 	cmppl	r0, #32, 14	; 0x800000
 800ab1e:	78696620 	stmdavc	r9!, {r5, r9, sl, sp, lr}^
 800ab22:	6c25003a 	stcvs	0, cr0, [r5], #-232	; 0xffffff18
 800ab26:	6c252c64 	stcvs	12, cr2, [r5], #-400	; 0xfffffe70
 800ab2a:	6c252c64 	stcvs	12, cr2, [r5], #-400	; 0xfffffe70
 800ab2e:	6c252c64 	stcvs	12, cr2, [r5], #-400	; 0xfffffe70
 800ab32:	6c252c64 	stcvs	12, cr2, [r5], #-400	; 0xfffffe70
 800ab36:	6c252c64 	stcvs	12, cr2, [r5], #-400	; 0xfffffe70
 800ab3a:	6c252c64 	stcvs	12, cr2, [r5], #-400	; 0xfffffe70
 800ab3e:	6c252c64 	stcvs	12, cr2, [r5], #-400	; 0xfffffe70
 800ab42:	6c252c64 	stcvs	12, cr2, [r5], #-400	; 0xfffffe70
 800ab46:	31252c64 	teqcc	r5, r4, ror #24
 800ab4a:	000a0d78 	andeq	r0, sl, r8, ror sp
 800ab4e:	73252424 	teqvc	r5, #36, 8	; 0x24000000
 800ab52:	2c64252c 	cfstr64cs	mvdx2, [r4], #-176	; 0xffffff50
 800ab56:	64323025 	ldrtvs	r3, [r2], #-37	; 0x25
 800ab5a:	3230253a 	eorscc	r2, r0, #243269632	; 0xe800000
 800ab5e:	33252c64 	teqcc	r5, #100, 24	; 0x6400
 800ab62:	33252c66 	teqcc	r5, #26112	; 0x6600
 800ab66:	31252c66 	teqcc	r5, r6, ror #24
 800ab6a:	31252c66 	teqcc	r5, r6, ror #24
 800ab6e:	31252c66 	teqcc	r5, r6, ror #24
 800ab72:	31252c66 	teqcc	r5, r6, ror #24
 800ab76:	31252c66 	teqcc	r5, r6, ror #24
 800ab7a:	64252c66 	strtvs	r2, [r5], #-3174	; 0xc66
 800ab7e:	2c64252c 	cfstr64cs	mvdx2, [r4], #-176	; 0xffffff50
 800ab82:	2c783225 	lfmcs	f3, 2, [r8], #-148	; 0xffffff6c
 800ab86:	2c783225 	lfmcs	f3, 2, [r8], #-148	; 0xffffff6c
 800ab8a:	2c663125 	stfcse	f3, [r6], #-148	; 0xffffff6c
 800ab8e:	00663225 	rsbeq	r3, r6, r5, lsr #4
 800ab92:	006f6f46 	rsbeq	r6, pc, r6, asr #30
 800ab96:	3430252a 	ldrtcc	r2, [r0], #-1322	; 0x52a
 800ab9a:	25000a78 	strcs	r0, [r0, #-2680]	; 0xa78
 800ab9e:	252c0064 	strcs	r0, [ip, #-100]!	; 0x64
 800aba2:	0d000a64 	vstreq	s0, [r0, #-400]	; 0xfffffe70
 800aba6:	676f4c0a 	strbvs	r4, [pc, -sl, lsl #24]!
 800abaa:	20726567 	rsbscs	r6, r2, r7, ror #10
 800abae:	6e727574 	mrcvs	5, 3, r7, cr2, cr4, {3}
 800abb2:	6f206465 	svcvs	0x00206465
 800abb6:	0a0d6666 	beq	8364556 <_lastdataromaddress+0x344556>
 800abba:	550a0d00 	strpl	r0, [sl, #-3328]	; 0xd00
 800abbe:	63204253 	teqvs	r0, #805306373	; 0x30000005
 800abc2:	656c6261 	strbvs	r6, [ip, #-609]!	; 0x261
 800abc6:	736e6920 	cmnvc	lr, #32, 18	; 0x80000
 800abca:	65747265 	ldrbvs	r7, [r4, #-613]!	; 0x265
 800abce:	000a0d64 	andeq	r0, sl, r4, ror #26
 800abd2:	6f4c0a0d 	svcvs	0x004c0a0d
 800abd6:	61422077 	hvcvs	8711	; 0x2207
 800abda:	72657474 	rsbvc	r7, r5, #116, 8	; 0x74000000
 800abde:	000a0d79 	andeq	r0, sl, r9, ror sp
 800abe2:	75746553 	ldrbvc	r6, [r4, #-1363]!	; 0x553
 800abe6:	50472070 	subpl	r2, r7, r0, ror r0
 800abea:	6b6f2053 	blvs	9bd2d3e <_lastdataromaddress+0x1bb2d3e>
 800abee:	61202d20 	teqvs	r0, r0, lsr #26
 800abf2:	74696177 	strbtvc	r6, [r9], #-375	; 0x177
 800abf6:	20676e69 	rsbcs	r6, r7, r9, ror #28
 800abfa:	2c786966 	ldclcs	9, cr6, [r8], #-408	; 0xfffffe68
 800abfe:	746e6520 	strbtvc	r6, [lr], #-1312	; 0x520
 800ac02:	31207265 	teqcc	r0, r5, ror #4
 800ac06:	726f6620 	rsbvc	r6, pc, #32, 12	; 0x2000000
 800ac0a:	646e6920 	strbtvs	r6, [lr], #-2336	; 0x920
 800ac0e:	20726f6f 	rsbscs	r6, r2, pc, ror #30
 800ac12:	65646f6d 	strbvs	r6, [r4, #-3949]!	; 0xf6d
 800ac16:	24000a0d 	strcs	r0, [r0], #-2573	; 0xa0d

0800ac19 <Silabs_Header>:
 800ac19:	4f522424 	svcmi	0x00522424
 800ac1d:	3a2a224b 	bcc	8a93551 <_lastdataromaddress+0xa73551>
 800ac21:	7c3f3e3c 	ldcvc	14, cr3, [pc], #-240	; 800ab38 <MASS_ConfigDescriptor+0x376>
 800ac25:	2c2b007f 	stccs	0, cr0, [fp], #-508	; 0xfffffe04
 800ac29:	5d5b3d3b 	ldclpl	13, cr3, [fp, #-236]	; 0xffffff14
 800ac2d:	696e2800 	stmdbvs	lr!, {fp, sp}^
 800ac31:	0f00296c 	svceq	0x0000296c

0800ac34 <L3GD20_setup>:
 800ac34:	4000290f 	andmi	r2, r0, pc, lsl #18
 800ac38:	01125f53 	tsteq	r2, r3, asr pc

0800ac3a <MASS_DeviceDescriptor>:
 800ac3a:	02000112 	andeq	r0, r0, #-2147483644	; 0x80000004
 800ac3e:	40000000 	andmi	r0, r0, r0
 800ac42:	57200483 	strpl	r0, [r0, -r3, lsl #9]!
 800ac46:	02010200 	andeq	r0, r1, #0, 4
 800ac4a:	00430103 	subeq	r0, r3, r3, lsl #2
	...

0800ac50 <_init>:
 800ac50:	b5f8      	push	{r3, r4, r5, r6, r7, lr}
 800ac52:	bf00      	nop
 800ac54:	bcf8      	pop	{r3, r4, r5, r6, r7}
 800ac56:	bc08      	pop	{r3}
 800ac58:	469e      	mov	lr, r3
 800ac5a:	4770      	bx	lr

0800ac5c <_fini>:
 800ac5c:	b5f8      	push	{r3, r4, r5, r6, r7, lr}
 800ac5e:	bf00      	nop
 800ac60:	bcf8      	pop	{r3, r4, r5, r6, r7}
 800ac62:	bc08      	pop	{r3}
 800ac64:	469e      	mov	lr, r3
 800ac66:	4770      	bx	lr

Disassembly of section .data:

20000000 <_data>:
20000000:	02028000 	andeq	r8, r2, #0
20000004:	00000020 	andeq	r0, r0, r0, lsr #32
20000008:	20696e55 	rsbcs	r6, r9, r5, asr lr
2000000c:	74746f4e 	ldrbtvc	r6, [r4], #-3918	; 0xf4e
20000010:	74614420 	strbtvc	r4, [r1], #-1056	; 0x420
20000014:	676f6c61 	strbvs	r6, [pc, -r1, ror #24]!
20000018:	20726567 	rsbscs	r6, r2, r7, ror #10
2000001c:	74696e75 	strbtvc	r6, [r9], #-3701	; 0xe75
20000020:	20302e31 	eorscs	r2, r0, r1, lsr lr

20000024 <Standard_Inquiry_Data2>:
20000024:	02028000 	andeq	r8, r2, #0
20000028:	00000020 	andeq	r0, r0, r0, lsr #32
2000002c:	204d5453 	subcs	r5, sp, r3, asr r4
20000030:	20202020 	eorcs	r2, r0, r0, lsr #32
20000034:	444e414e 	strbmi	r4, [lr], #-334	; 0x14e
20000038:	616c4620 	cmnvs	ip, r0, lsr #12
2000003c:	44206873 	strtmi	r6, [r0], #-2163	; 0x873
20000040:	206b7369 	rsbcs	r7, fp, r9, ror #6
20000044:	20302e31 	eorscs	r2, r0, r1, lsr lr

20000048 <Mode_Sense6_data>:
20000048:	00000003 	andeq	r0, r0, r3

2000004c <Mode_Sense10_data>:
2000004c:	00000600 	andeq	r0, r0, r0, lsl #12
20000050:	00000000 	andeq	r0, r0, r0

20000054 <ReadFormatCapacity_Data>:
20000054:	08000000 	stmdaeq	r0, {}	; <UNPREDICTABLE>
20000058:	00000000 	andeq	r0, r0, r0
2000005c:	00000002 	andeq	r0, r0, r2

20000060 <pEpInt_IN>:
20000060:	080038b5 	stmdaeq	r0, {r0, r2, r4, r5, r7, fp, ip, sp}
20000064:	08009b2d 	stmdaeq	r0, {r0, r2, r3, r5, r8, r9, fp, ip, pc}
20000068:	08009b2d 	stmdaeq	r0, {r0, r2, r3, r5, r8, r9, fp, ip, pc}
2000006c:	08009b2d 	stmdaeq	r0, {r0, r2, r3, r5, r8, r9, fp, ip, pc}
20000070:	08009b2d 	stmdaeq	r0, {r0, r2, r3, r5, r8, r9, fp, ip, pc}
20000074:	08009b2d 	stmdaeq	r0, {r0, r2, r3, r5, r8, r9, fp, ip, pc}
20000078:	08009b2d 	stmdaeq	r0, {r0, r2, r3, r5, r8, r9, fp, ip, pc}

2000007c <pEpInt_OUT>:
2000007c:	08009b2d 	stmdaeq	r0, {r0, r2, r3, r5, r8, r9, fp, ip, pc}
20000080:	080035d1 	stmdaeq	r0, {r0, r4, r6, r7, r8, sl, ip, sp}
20000084:	08009b2d 	stmdaeq	r0, {r0, r2, r3, r5, r8, r9, fp, ip, pc}
20000088:	08009b2d 	stmdaeq	r0, {r0, r2, r3, r5, r8, r9, fp, ip, pc}
2000008c:	08009b2d 	stmdaeq	r0, {r0, r2, r3, r5, r8, r9, fp, ip, pc}
20000090:	08009b2d 	stmdaeq	r0, {r0, r2, r3, r5, r8, r9, fp, ip, pc}
20000094:	08009b2d 	stmdaeq	r0, {r0, r2, r3, r5, r8, r9, fp, ip, pc}

20000098 <rw_workbyte.7474>:
20000098:	0000ffff 	strdeq	pc, [r0], -pc	; <UNPREDICTABLE>

2000009c <Device_Property>:
2000009c:	080073c5 	stmdaeq	r0, {r0, r2, r6, r7, r8, r9, ip, sp, lr}
200000a0:	080072e9 	stmdaeq	r0, {r0, r3, r5, r6, r7, r9, ip, sp, lr}
200000a4:	080071a3 	stmdaeq	r0, {r0, r1, r5, r7, r8, ip, sp, lr}
200000a8:	080071a1 	stmdaeq	r0, {r0, r5, r7, r8, ip, sp, lr}
200000ac:	08007169 	stmdaeq	r0, {r0, r3, r5, r6, r8, ip, sp, lr}
200000b0:	0800726d 	stmdaeq	r0, {r0, r2, r3, r5, r6, r9, ip, sp, lr}
200000b4:	08007159 	stmdaeq	r0, {r0, r3, r4, r6, r8, ip, sp, lr}
200000b8:	08007261 	stmdaeq	r0, {r0, r5, r6, r9, ip, sp, lr}
200000bc:	08007255 	stmdaeq	r0, {r0, r2, r4, r6, r9, ip, sp, lr}
200000c0:	08007235 	stmdaeq	r0, {r0, r2, r4, r5, r9, ip, sp, lr}
200000c4:	00000000 	andeq	r0, r0, r0
200000c8:	00000040 	andeq	r0, r0, r0, asr #32

200000cc <fSuspendEnabled>:
200000cc:	00000001 	andeq	r0, r0, r1

200000d0 <I2C_jobs>:
200000d0:	a608016a 	strge	r0, [r8], -sl, ror #2
200000d4:	00000000 	andeq	r0, r0, r0
200000d8:	2006006a 	andcs	r0, r6, sl, rrx
200000dc:	0800ac34 	stmdaeq	r0, {r2, r4, r5, sl, fp, sp, pc}
200000e0:	00020052 	andeq	r0, r2, r2, asr r0
200000e4:	00000000 	andeq	r0, r0, r0
200000e8:	02070152 	andeq	r0, r7, #-2147483628	; 0x80000014
200000ec:	00000000 	andeq	r0, r0, r0

200000f0 <Stat.lto_priv.39>:
200000f0:	00000001 	andeq	r0, r0, r1

200000f4 <Outdiv>:
200000f4:	00010304 	andeq	r0, r1, r4, lsl #6

200000f5 <Device_Table>:
200000f5:	70000103 	andvc	r0, r0, r3, lsl #2

200000f8 <Scsi_Sense_Data>:
200000f8:	00000070 	andeq	r0, r0, r0, ror r0
200000fc:	0a000000 	beq	20000104 <Scsi_Sense_Data+0xc>
	...

2000010c <String_Descriptor>:
2000010c:	0800a7be 	stmdaeq	r0, {r1, r2, r3, r4, r5, r7, r8, r9, sl, sp, pc}
20000110:	00000004 	andeq	r0, r0, r4
20000114:	0800a78c 	stmdaeq	r0, {r2, r3, r7, r8, r9, sl, sp, pc}
20000118:	00000032 	andeq	r0, r0, r2, lsr r0
2000011c:	0800a75e 	stmdaeq	r0, {r1, r2, r3, r4, r6, r8, r9, sl, sp, pc}
20000120:	0000002e 	andeq	r0, r0, lr, lsr #32
20000124:	20000144 	andcs	r0, r0, r4, asr #2
20000128:	0000001a 	andeq	r0, r0, sl, lsl r0
2000012c:	0800a74e 	stmdaeq	r0, {r1, r2, r3, r6, r8, r9, sl, sp, pc}
20000130:	00000010 	andeq	r0, r0, r0, lsl r0

20000134 <Config_Descriptor>:
20000134:	0800a7c2 	stmdaeq	r0, {r1, r6, r7, r8, r9, sl, sp, pc}
20000138:	00000020 	andeq	r0, r0, r0, lsr #32

2000013c <Device_Descriptor>:
2000013c:	0800ac3a 	stmdaeq	r0, {r1, r3, r4, r5, sl, fp, sp, pc}
20000140:	00000012 	andeq	r0, r0, r2, lsl r0

20000144 <MASS_StringSerial>:
20000144:	0053031a 	subseq	r0, r3, sl, lsl r3
20000148:	004d0054 	subeq	r0, sp, r4, asr r0
2000014c:	00320033 	eorseq	r0, r2, r3, lsr r0
20000150:	00300031 	eorseq	r0, r0, r1, lsr r0
	...

20000160 <User_Standard_Requests>:
20000160:	08009b2d 	stmdaeq	r0, {r0, r2, r3, r5, r8, r9, fp, ip, pc}
20000164:	080072b5 	stmdaeq	r0, {r0, r2, r4, r5, r7, r9, ip, sp, lr}
20000168:	08009b2d 	stmdaeq	r0, {r0, r2, r3, r5, r8, r9, fp, ip, pc}
2000016c:	08009b2d 	stmdaeq	r0, {r0, r2, r3, r5, r8, r9, fp, ip, pc}
20000170:	08009b2d 	stmdaeq	r0, {r0, r2, r3, r5, r8, r9, fp, ip, pc}
20000174:	0800721d 	stmdaeq	r0, {r0, r2, r3, r4, r9, ip, sp, lr}
20000178:	08009b2d 	stmdaeq	r0, {r0, r2, r3, r5, r8, r9, fp, ip, pc}
2000017c:	08009b2d 	stmdaeq	r0, {r0, r2, r3, r5, r8, r9, fp, ip, pc}
20000180:	080071a5 	stmdaeq	r0, {r0, r2, r5, r7, r8, ip, sp, lr}

20000184 <__malloc_av_>:
	...
2000018c:	20000184 	andcs	r0, r0, r4, lsl #3
20000190:	20000184 	andcs	r0, r0, r4, lsl #3
20000194:	2000018c 	andcs	r0, r0, ip, lsl #3
20000198:	2000018c 	andcs	r0, r0, ip, lsl #3
2000019c:	20000194 	mulcs	r0, r4, r1
200001a0:	20000194 	mulcs	r0, r4, r1
200001a4:	2000019c 	mulcs	r0, ip, r1
200001a8:	2000019c 	mulcs	r0, ip, r1
200001ac:	200001a4 	andcs	r0, r0, r4, lsr #3
200001b0:	200001a4 	andcs	r0, r0, r4, lsr #3
200001b4:	200001ac 	andcs	r0, r0, ip, lsr #3
200001b8:	200001ac 	andcs	r0, r0, ip, lsr #3
200001bc:	200001b4 			; <UNDEFINED> instruction: 0x200001b4
200001c0:	200001b4 			; <UNDEFINED> instruction: 0x200001b4
200001c4:	200001bc 			; <UNDEFINED> instruction: 0x200001bc
200001c8:	200001bc 			; <UNDEFINED> instruction: 0x200001bc
200001cc:	200001c4 	andcs	r0, r0, r4, asr #3
200001d0:	200001c4 	andcs	r0, r0, r4, asr #3
200001d4:	200001cc 	andcs	r0, r0, ip, asr #3
200001d8:	200001cc 	andcs	r0, r0, ip, asr #3
200001dc:	200001d4 	ldrdcs	r0, [r0], -r4
200001e0:	200001d4 	ldrdcs	r0, [r0], -r4
200001e4:	200001dc 	ldrdcs	r0, [r0], -ip
200001e8:	200001dc 	ldrdcs	r0, [r0], -ip
200001ec:	200001e4 	andcs	r0, r0, r4, ror #3
200001f0:	200001e4 	andcs	r0, r0, r4, ror #3
200001f4:	200001ec 	andcs	r0, r0, ip, ror #3
200001f8:	200001ec 	andcs	r0, r0, ip, ror #3
200001fc:	200001f4 	strdcs	r0, [r0], -r4
20000200:	200001f4 	strdcs	r0, [r0], -r4
20000204:	200001fc 	strdcs	r0, [r0], -ip
20000208:	200001fc 	strdcs	r0, [r0], -ip
2000020c:	20000204 	andcs	r0, r0, r4, lsl #4
20000210:	20000204 	andcs	r0, r0, r4, lsl #4
20000214:	2000020c 	andcs	r0, r0, ip, lsl #4
20000218:	2000020c 	andcs	r0, r0, ip, lsl #4
2000021c:	20000214 	andcs	r0, r0, r4, lsl r2
20000220:	20000214 	andcs	r0, r0, r4, lsl r2
20000224:	2000021c 	andcs	r0, r0, ip, lsl r2
20000228:	2000021c 	andcs	r0, r0, ip, lsl r2
2000022c:	20000224 	andcs	r0, r0, r4, lsr #4
20000230:	20000224 	andcs	r0, r0, r4, lsr #4
20000234:	2000022c 	andcs	r0, r0, ip, lsr #4
20000238:	2000022c 	andcs	r0, r0, ip, lsr #4
2000023c:	20000234 	andcs	r0, r0, r4, lsr r2
20000240:	20000234 	andcs	r0, r0, r4, lsr r2
20000244:	2000023c 	andcs	r0, r0, ip, lsr r2
20000248:	2000023c 	andcs	r0, r0, ip, lsr r2
2000024c:	20000244 	andcs	r0, r0, r4, asr #4
20000250:	20000244 	andcs	r0, r0, r4, asr #4
20000254:	2000024c 	andcs	r0, r0, ip, asr #4
20000258:	2000024c 	andcs	r0, r0, ip, asr #4
2000025c:	20000254 	andcs	r0, r0, r4, asr r2
20000260:	20000254 	andcs	r0, r0, r4, asr r2
20000264:	2000025c 	andcs	r0, r0, ip, asr r2
20000268:	2000025c 	andcs	r0, r0, ip, asr r2
2000026c:	20000264 	andcs	r0, r0, r4, ror #4
20000270:	20000264 	andcs	r0, r0, r4, ror #4
20000274:	2000026c 	andcs	r0, r0, ip, ror #4
20000278:	2000026c 	andcs	r0, r0, ip, ror #4
2000027c:	20000274 	andcs	r0, r0, r4, ror r2
20000280:	20000274 	andcs	r0, r0, r4, ror r2
20000284:	2000027c 	andcs	r0, r0, ip, ror r2
20000288:	2000027c 	andcs	r0, r0, ip, ror r2
2000028c:	20000284 	andcs	r0, r0, r4, lsl #5
20000290:	20000284 	andcs	r0, r0, r4, lsl #5
20000294:	2000028c 	andcs	r0, r0, ip, lsl #5
20000298:	2000028c 	andcs	r0, r0, ip, lsl #5
2000029c:	20000294 	mulcs	r0, r4, r2
200002a0:	20000294 	mulcs	r0, r4, r2
200002a4:	2000029c 	mulcs	r0, ip, r2
200002a8:	2000029c 	mulcs	r0, ip, r2
200002ac:	200002a4 	andcs	r0, r0, r4, lsr #5
200002b0:	200002a4 	andcs	r0, r0, r4, lsr #5
200002b4:	200002ac 	andcs	r0, r0, ip, lsr #5
200002b8:	200002ac 	andcs	r0, r0, ip, lsr #5
200002bc:	200002b4 			; <UNDEFINED> instruction: 0x200002b4
200002c0:	200002b4 			; <UNDEFINED> instruction: 0x200002b4
200002c4:	200002bc 			; <UNDEFINED> instruction: 0x200002bc
200002c8:	200002bc 			; <UNDEFINED> instruction: 0x200002bc
200002cc:	200002c4 	andcs	r0, r0, r4, asr #5
200002d0:	200002c4 	andcs	r0, r0, r4, asr #5
200002d4:	200002cc 	andcs	r0, r0, ip, asr #5
200002d8:	200002cc 	andcs	r0, r0, ip, asr #5
200002dc:	200002d4 	ldrdcs	r0, [r0], -r4
200002e0:	200002d4 	ldrdcs	r0, [r0], -r4
200002e4:	200002dc 	ldrdcs	r0, [r0], -ip
200002e8:	200002dc 	ldrdcs	r0, [r0], -ip
200002ec:	200002e4 	andcs	r0, r0, r4, ror #5
200002f0:	200002e4 	andcs	r0, r0, r4, ror #5
200002f4:	200002ec 	andcs	r0, r0, ip, ror #5
200002f8:	200002ec 	andcs	r0, r0, ip, ror #5
200002fc:	200002f4 	strdcs	r0, [r0], -r4
20000300:	200002f4 	strdcs	r0, [r0], -r4
20000304:	200002fc 	strdcs	r0, [r0], -ip
20000308:	200002fc 	strdcs	r0, [r0], -ip
2000030c:	20000304 	andcs	r0, r0, r4, lsl #6
20000310:	20000304 	andcs	r0, r0, r4, lsl #6
20000314:	2000030c 	andcs	r0, r0, ip, lsl #6
20000318:	2000030c 	andcs	r0, r0, ip, lsl #6
2000031c:	20000314 	andcs	r0, r0, r4, lsl r3
20000320:	20000314 	andcs	r0, r0, r4, lsl r3
20000324:	2000031c 	andcs	r0, r0, ip, lsl r3
20000328:	2000031c 	andcs	r0, r0, ip, lsl r3
2000032c:	20000324 	andcs	r0, r0, r4, lsr #6
20000330:	20000324 	andcs	r0, r0, r4, lsr #6
20000334:	2000032c 	andcs	r0, r0, ip, lsr #6
20000338:	2000032c 	andcs	r0, r0, ip, lsr #6
2000033c:	20000334 	andcs	r0, r0, r4, lsr r3
20000340:	20000334 	andcs	r0, r0, r4, lsr r3
20000344:	2000033c 	andcs	r0, r0, ip, lsr r3
20000348:	2000033c 	andcs	r0, r0, ip, lsr r3
2000034c:	20000344 	andcs	r0, r0, r4, asr #6
20000350:	20000344 	andcs	r0, r0, r4, asr #6
20000354:	2000034c 	andcs	r0, r0, ip, asr #6
20000358:	2000034c 	andcs	r0, r0, ip, asr #6
2000035c:	20000354 	andcs	r0, r0, r4, asr r3
20000360:	20000354 	andcs	r0, r0, r4, asr r3
20000364:	2000035c 	andcs	r0, r0, ip, asr r3
20000368:	2000035c 	andcs	r0, r0, ip, asr r3
2000036c:	20000364 	andcs	r0, r0, r4, ror #6
20000370:	20000364 	andcs	r0, r0, r4, ror #6
20000374:	2000036c 	andcs	r0, r0, ip, ror #6
20000378:	2000036c 	andcs	r0, r0, ip, ror #6
2000037c:	20000374 	andcs	r0, r0, r4, ror r3
20000380:	20000374 	andcs	r0, r0, r4, ror r3
20000384:	2000037c 	andcs	r0, r0, ip, ror r3
20000388:	2000037c 	andcs	r0, r0, ip, ror r3
2000038c:	20000384 	andcs	r0, r0, r4, lsl #7
20000390:	20000384 	andcs	r0, r0, r4, lsl #7
20000394:	2000038c 	andcs	r0, r0, ip, lsl #7
20000398:	2000038c 	andcs	r0, r0, ip, lsl #7
2000039c:	20000394 	mulcs	r0, r4, r3
200003a0:	20000394 	mulcs	r0, r4, r3
200003a4:	2000039c 	mulcs	r0, ip, r3
200003a8:	2000039c 	mulcs	r0, ip, r3
200003ac:	200003a4 	andcs	r0, r0, r4, lsr #7
200003b0:	200003a4 	andcs	r0, r0, r4, lsr #7
200003b4:	200003ac 	andcs	r0, r0, ip, lsr #7
200003b8:	200003ac 	andcs	r0, r0, ip, lsr #7
200003bc:	200003b4 			; <UNDEFINED> instruction: 0x200003b4
200003c0:	200003b4 			; <UNDEFINED> instruction: 0x200003b4
200003c4:	200003bc 			; <UNDEFINED> instruction: 0x200003bc
200003c8:	200003bc 			; <UNDEFINED> instruction: 0x200003bc
200003cc:	200003c4 	andcs	r0, r0, r4, asr #7
200003d0:	200003c4 	andcs	r0, r0, r4, asr #7
200003d4:	200003cc 	andcs	r0, r0, ip, asr #7
200003d8:	200003cc 	andcs	r0, r0, ip, asr #7
200003dc:	200003d4 	ldrdcs	r0, [r0], -r4
200003e0:	200003d4 	ldrdcs	r0, [r0], -r4
200003e4:	200003dc 	ldrdcs	r0, [r0], -ip
200003e8:	200003dc 	ldrdcs	r0, [r0], -ip
200003ec:	200003e4 	andcs	r0, r0, r4, ror #7
200003f0:	200003e4 	andcs	r0, r0, r4, ror #7
200003f4:	200003ec 	andcs	r0, r0, ip, ror #7
200003f8:	200003ec 	andcs	r0, r0, ip, ror #7
200003fc:	200003f4 	strdcs	r0, [r0], -r4
20000400:	200003f4 	strdcs	r0, [r0], -r4
20000404:	200003fc 	strdcs	r0, [r0], -ip
20000408:	200003fc 	strdcs	r0, [r0], -ip
2000040c:	20000404 	andcs	r0, r0, r4, lsl #8
20000410:	20000404 	andcs	r0, r0, r4, lsl #8
20000414:	2000040c 	andcs	r0, r0, ip, lsl #8
20000418:	2000040c 	andcs	r0, r0, ip, lsl #8
2000041c:	20000414 	andcs	r0, r0, r4, lsl r4
20000420:	20000414 	andcs	r0, r0, r4, lsl r4
20000424:	2000041c 	andcs	r0, r0, ip, lsl r4
20000428:	2000041c 	andcs	r0, r0, ip, lsl r4
2000042c:	20000424 	andcs	r0, r0, r4, lsr #8
20000430:	20000424 	andcs	r0, r0, r4, lsr #8
20000434:	2000042c 	andcs	r0, r0, ip, lsr #8
20000438:	2000042c 	andcs	r0, r0, ip, lsr #8
2000043c:	20000434 	andcs	r0, r0, r4, lsr r4
20000440:	20000434 	andcs	r0, r0, r4, lsr r4
20000444:	2000043c 	andcs	r0, r0, ip, lsr r4
20000448:	2000043c 	andcs	r0, r0, ip, lsr r4
2000044c:	20000444 	andcs	r0, r0, r4, asr #8
20000450:	20000444 	andcs	r0, r0, r4, asr #8
20000454:	2000044c 	andcs	r0, r0, ip, asr #8
20000458:	2000044c 	andcs	r0, r0, ip, asr #8
2000045c:	20000454 	andcs	r0, r0, r4, asr r4
20000460:	20000454 	andcs	r0, r0, r4, asr r4
20000464:	2000045c 	andcs	r0, r0, ip, asr r4
20000468:	2000045c 	andcs	r0, r0, ip, asr r4
2000046c:	20000464 	andcs	r0, r0, r4, ror #8
20000470:	20000464 	andcs	r0, r0, r4, ror #8
20000474:	2000046c 	andcs	r0, r0, ip, ror #8
20000478:	2000046c 	andcs	r0, r0, ip, ror #8
2000047c:	20000474 	andcs	r0, r0, r4, ror r4
20000480:	20000474 	andcs	r0, r0, r4, ror r4
20000484:	2000047c 	andcs	r0, r0, ip, ror r4
20000488:	2000047c 	andcs	r0, r0, ip, ror r4
2000048c:	20000484 	andcs	r0, r0, r4, lsl #9
20000490:	20000484 	andcs	r0, r0, r4, lsl #9
20000494:	2000048c 	andcs	r0, r0, ip, lsl #9
20000498:	2000048c 	andcs	r0, r0, ip, lsl #9
2000049c:	20000494 	mulcs	r0, r4, r4
200004a0:	20000494 	mulcs	r0, r4, r4
200004a4:	2000049c 	mulcs	r0, ip, r4
200004a8:	2000049c 	mulcs	r0, ip, r4
200004ac:	200004a4 	andcs	r0, r0, r4, lsr #9
200004b0:	200004a4 	andcs	r0, r0, r4, lsr #9
200004b4:	200004ac 	andcs	r0, r0, ip, lsr #9
200004b8:	200004ac 	andcs	r0, r0, ip, lsr #9
200004bc:	200004b4 			; <UNDEFINED> instruction: 0x200004b4
200004c0:	200004b4 			; <UNDEFINED> instruction: 0x200004b4
200004c4:	200004bc 			; <UNDEFINED> instruction: 0x200004bc
200004c8:	200004bc 			; <UNDEFINED> instruction: 0x200004bc
200004cc:	200004c4 	andcs	r0, r0, r4, asr #9
200004d0:	200004c4 	andcs	r0, r0, r4, asr #9
200004d4:	200004cc 	andcs	r0, r0, ip, asr #9
200004d8:	200004cc 	andcs	r0, r0, ip, asr #9
200004dc:	200004d4 	ldrdcs	r0, [r0], -r4
200004e0:	200004d4 	ldrdcs	r0, [r0], -r4
200004e4:	200004dc 	ldrdcs	r0, [r0], -ip
200004e8:	200004dc 	ldrdcs	r0, [r0], -ip
200004ec:	200004e4 	andcs	r0, r0, r4, ror #9
200004f0:	200004e4 	andcs	r0, r0, r4, ror #9
200004f4:	200004ec 	andcs	r0, r0, ip, ror #9
200004f8:	200004ec 	andcs	r0, r0, ip, ror #9
200004fc:	200004f4 	strdcs	r0, [r0], -r4
20000500:	200004f4 	strdcs	r0, [r0], -r4
20000504:	200004fc 	strdcs	r0, [r0], -ip
20000508:	200004fc 	strdcs	r0, [r0], -ip
2000050c:	20000504 	andcs	r0, r0, r4, lsl #10
20000510:	20000504 	andcs	r0, r0, r4, lsl #10
20000514:	2000050c 	andcs	r0, r0, ip, lsl #10
20000518:	2000050c 	andcs	r0, r0, ip, lsl #10
2000051c:	20000514 	andcs	r0, r0, r4, lsl r5
20000520:	20000514 	andcs	r0, r0, r4, lsl r5
20000524:	2000051c 	andcs	r0, r0, ip, lsl r5
20000528:	2000051c 	andcs	r0, r0, ip, lsl r5
2000052c:	20000524 	andcs	r0, r0, r4, lsr #10
20000530:	20000524 	andcs	r0, r0, r4, lsr #10
20000534:	2000052c 	andcs	r0, r0, ip, lsr #10
20000538:	2000052c 	andcs	r0, r0, ip, lsr #10
2000053c:	20000534 	andcs	r0, r0, r4, lsr r5
20000540:	20000534 	andcs	r0, r0, r4, lsr r5
20000544:	2000053c 	andcs	r0, r0, ip, lsr r5
20000548:	2000053c 	andcs	r0, r0, ip, lsr r5
2000054c:	20000544 	andcs	r0, r0, r4, asr #10
20000550:	20000544 	andcs	r0, r0, r4, asr #10
20000554:	2000054c 	andcs	r0, r0, ip, asr #10
20000558:	2000054c 	andcs	r0, r0, ip, asr #10
2000055c:	20000554 	andcs	r0, r0, r4, asr r5
20000560:	20000554 	andcs	r0, r0, r4, asr r5
20000564:	2000055c 	andcs	r0, r0, ip, asr r5
20000568:	2000055c 	andcs	r0, r0, ip, asr r5
2000056c:	20000564 	andcs	r0, r0, r4, ror #10
20000570:	20000564 	andcs	r0, r0, r4, ror #10
20000574:	2000056c 	andcs	r0, r0, ip, ror #10
20000578:	2000056c 	andcs	r0, r0, ip, ror #10
2000057c:	20000574 	andcs	r0, r0, r4, ror r5
20000580:	20000574 	andcs	r0, r0, r4, ror r5
20000584:	2000057c 	andcs	r0, r0, ip, ror r5
20000588:	2000057c 	andcs	r0, r0, ip, ror r5

2000058c <__malloc_trim_threshold>:
2000058c:	00020000 	andeq	r0, r2, r0

20000590 <__malloc_sbrk_base>:
20000590:	ffffffff 			; <UNDEFINED> instruction: 0xffffffff

20000594 <ADCPrescTable>:
20000594:	08060402 	stmdaeq	r6, {r1, sl}

20000598 <APBAHBPrescTable>:
20000598:	00000000 	andeq	r0, r0, r0
2000059c:	04030201 	streq	r0, [r3], #-513	; 0x201
200005a0:	04030201 	streq	r0, [r3], #-513	; 0x201
200005a4:	09080706 	stmdbeq	r8, {r1, r2, r8, r9, sl}

200005a8 <impure_data>:
200005a8:	00000000 	andeq	r0, r0, r0
200005ac:	20000894 	mulcs	r0, r4, r8
200005b0:	200008fc 	strdcs	r0, [r0], -ip
200005b4:	20000964 	andcs	r0, r0, r4, ror #18
	...
200005dc:	0800ac4c 	stmdaeq	r0, {r2, r3, r6, sl, fp, sp, pc}
	...
20000650:	00000001 	andeq	r0, r0, r1
20000654:	00000000 	andeq	r0, r0, r0
20000658:	abcd330e 	blge	1f34d298 <_lastdataromaddress+0x1732d298>
2000065c:	e66d1234 			; <UNDEFINED> instruction: 0xe66d1234
20000660:	0005deec 	andeq	sp, r5, ip, ror #29
20000664:	0000000b 	andeq	r0, r0, fp
	...

200009d0 <_impure_ptr>:
200009d0:	200005a8 	andcs	r0, r0, r8, lsr #11

Disassembly of section .bss:

200009d8 <_bss>:
	...

20000e00 <bootsource>:
20000e00:	00000000 	andeq	r0, r0, r0

20000e04 <rputchar.lto_priv.38>:
20000e04:	00000000 	andeq	r0, r0, r0

20000e08 <Data_Buffer>:
20000e08:	00000000 	andeq	r0, r0, r0

20000e0c <Battery_Voltage>:
20000e0c:	00000000 	andeq	r0, r0, r0

20000e10 <FatFs.lto_priv.52>:
20000e10:	00000000 	andeq	r0, r0, r0

20000e14 <FATFS_Obj>:
	...

20001044 <f_err_code>:
	...

20001046 <TIM_TimeBaseStructure>:
	...

20001050 <TIM_OCInitStructure>:
	...

20001060 <Gyro_XY_Rate>:
20001060:	00000000 	andeq	r0, r0, r0

20001064 <Gyro_Z_Rate>:
20001064:	00000000 	andeq	r0, r0, r0

20001068 <Ind_Voltage>:
20001068:	00000000 	andeq	r0, r0, r0

2000106c <Auto_volt>:
2000106c:	00000000 	andeq	r0, r0, r0

20001070 <Ignition_Selftest>:
	...

20001072 <AutoSequence>:
	...

20001074 <Gyro_x_buffer>:
	...

20001080 <Gyro_y_buffer>:
	...

2000108c <Gyro_z_buffer>:
	...

20001098 <Gyro_wav_stuffer>:
	...

2000109a <I2C1error>:
	...

2000109c <L3GD20_Data_Buffer>:
	...

200010a4 <System_state_Global>:
200010a4:	00000000 	andeq	r0, r0, r0

200010a8 <Aux_Voltage>:
200010a8:	00000000 	andeq	r0, r0, r0

200010ac <Gyro_Temperature>:
200010ac:	00000000 	andeq	r0, r0, r0

200010b0 <Auto_spin>:
200010b0:	00000000 	andeq	r0, r0, r0

200010b4 <Shutdown_System>:
200010b4:	00000000 	andeq	r0, r0, r0

200010b8 <Fsid>:
200010b8:	00000000 	andeq	r0, r0, r0

200010bc <Mass_Memory_Size>:
	...

200010c4 <SCSI_LBA>:
200010c4:	00000000 	andeq	r0, r0, r0

200010c8 <SCSI_BlkLen>:
200010c8:	00000000 	andeq	r0, r0, r0

200010cc <ReadCapacity10_Data>:
	...

200010d4 <Length.7887>:
200010d4:	00000000 	andeq	r0, r0, r0

200010d8 <Used_CMD18.7888>:
200010d8:	00000000 	andeq	r0, r0, r0

200010dc <Block_offset>:
200010dc:	00000000 	andeq	r0, r0, r0

200010e0 <Sd_Spi_Called_From_USB_MSC>:
	...

200010e1 <buf>:
	...

20001161 <CardType.lto_priv.45>:
20001161:	00000000 	andeq	r0, r0, r0

20001164 <wIstr>:
	...

20001166 <Low_Battery_Warning>:
	...

20001167 <AFROESC_Data_Buffer>:
20001167:	00000000 	andeq	r0, r0, r0
2000116b:	00000000 	andeq	r0, r0, r0

2000116e <AFROESC_Throttle>:
	...

20001170 <Timer1.lto_priv.40>:
20001170:	00000000 	andeq	r0, r0, r0

20001174 <Timer2.lto_priv.41>:
20001174:	00000000 	andeq	r0, r0, r0

20001178 <pv.7597>:
20001178:	00000000 	andeq	r0, r0, r0

2000117c <com.8341>:
2000117c:	00000000 	andeq	r0, r0, r0

20001180 <Spin_Rate>:
20001180:	00000000 	andeq	r0, r0, r0

20001184 <Spin_Rate_LPF>:
20001184:	00000000 	andeq	r0, r0, r0

20001188 <button.8340>:
	...

20001189 <Button_hold_tim>:
20001189:	00000000 	andeq	r0, r0, r0

2000118c <Last_Button_Press.8338>:
2000118c:	00000000 	andeq	r0, r0, r0

20001190 <System_state_counter.8339>:
	...

20001191 <job>:
	...

20001192 <subaddress_sent.6914>:
	...

20001193 <index.6916>:
	...

20001194 <final_stop.6915>:
20001194:	00000000 	andeq	r0, r0, r0

20001198 <tx_buffer.7989>:
20001198:	00000000 	andeq	r0, r0, r0
	...

2000119e <rx_buffer.7988>:
	...

200011a8 <unhandled_tx_data.7991>:
	...

200011a9 <Channel_tx>:
	...

200011aa <bytes_read.7990>:
	...

200011ac <Silabs_Rx_Buffer>:
	...

200011b8 <Channel_rx>:
200011b8:	00000000 	andeq	r0, r0, r0

200011bc <print_string>:
	...

200012bc <Silabs_Tx_Buffer>:
	...

200012c8 <Silabs_spi_state>:
200012c8:	00000000 	andeq	r0, r0, r0

200012cc <tx_data_local.8025>:
200012cc:	00000000 	andeq	r0, r0, r0

200012d0 <tx_bytes_local.8023>:
200012d0:	00000000 	andeq	r0, r0, r0

200012d4 <rx_data_local.8026>:
200012d4:	00000000 	andeq	r0, r0, r0

200012d8 <rx_bytes_local.8024>:
200012d8:	00000000 	andeq	r0, r0, r0

200012dc <callback_local.8029>:
200012dc:	00000000 	andeq	r0, r0, r0

200012e0 <Millis>:
200012e0:	00000000 	andeq	r0, r0, r0

200012e4 <CTS_Low.lto_priv.35>:
200012e4:	00000000 	andeq	r0, r0, r0

200012e8 <Silabs_driver_state>:
	...

200012e9 <State.6949>:
	...

200012ea <Class.6950>:
	...

200012eb <Id.6951>:
	...

200012ec <Lenght.6955>:
	...

200012ee <Counter.6954>:
	...

200012ef <Gps>:
	...

20001322 <Checksum_1.6952>:
	...

20001323 <Checksum_2.6953>:
	...

20001324 <Gps_Buffer>:
	...

20001330 <FATFS_logfile>:
	...

20001554 <FATFS_info>:
	...

20001574 <FATFS_wavfile_gyro>:
	...

20001798 <Usart1_rx_buff>:
	...

200017a4 <Mass_Block_Count>:
	...

200017ac <CBW>:
	...

200017cc <Mass_Block_Size>:
	...

200017d4 <Bot_State>:
200017d4:	00000000 	andeq	r0, r0, r0

200017d8 <Counter>:
200017d8:	00000000 	andeq	r0, r0, r0

200017dc <Data_Len>:
	...

200017de <TransferState>:
	...

200017e0 <W_Offset.7899>:
200017e0:	00000000 	andeq	r0, r0, r0

200017e4 <W_Length.7900>:
200017e4:	00000000 	andeq	r0, r0, r0

200017e8 <Idx>:
200017e8:	00000000 	andeq	r0, r0, r0

200017ec <Bulk_Data_Buff>:
	...

2000182c <CSW>:
	...

2000183c <ResumeS>:
2000183c:	00000000 	andeq	r0, r0, r0

20001840 <a>:
20001840:	00000000 	andeq	r0, r0, r0

20001844 <Jobs>:
20001844:	00000000 	andeq	r0, r0, r0

20001848 <Completed_Jobs>:
20001848:	00000000 	andeq	r0, r0, r0

2000184c <file_opened>:
2000184c:	00000000 	andeq	r0, r0, r0

20001850 <bDeviceState>:
20001850:	00000000 	andeq	r0, r0, r0

20001854 <Status>:
20001854:	00000000 	andeq	r0, r0, r0

20001858 <Page00_Inquiry_Data>:
20001858:	00000000 	andeq	r0, r0, r0
	...

2000185d <bIntPackSOF>:
2000185d:	00000000 	andeq	r0, r0, r0

20001860 <Max_Lun>:
20001860:	00000000 	andeq	r0, r0, r0

20001864 <__malloc_max_total_mem>:
20001864:	00000000 	andeq	r0, r0, r0

20001868 <__malloc_max_sbrked_mem>:
20001868:	00000000 	andeq	r0, r0, r0

2000186c <__malloc_top_pad>:
2000186c:	00000000 	andeq	r0, r0, r0

20001870 <__malloc_current_mallinfo>:
	...

20001898 <Data_Mul_MaxPacketSize>:
20001898:	00000000 	andeq	r0, r0, r0

2000189c <heap_end.4079>:
2000189c:	00000000 	andeq	r0, r0, r0

200018a0 <errno>:
200018a0:	00000000 	andeq	r0, r0, r0

200018a4 <StatusInfo>:
200018a4:	00000000 	andeq	r0, r0, r0

200018a8 <SaveState>:
200018a8:	00000000 	andeq	r0, r0, r0

200018ac <pProperty>:
200018ac:	00000000 	andeq	r0, r0, r0

200018b0 <EPindex>:
200018b0:	00000000 	andeq	r0, r0, r0

200018b4 <Device_Info>:
	...

200018d0 <pUser_Standard_Requests>:
200018d0:	00000000 	andeq	r0, r0, r0

200018d4 <pInformation>:
200018d4:	00000000 	andeq	r0, r0, r0

200018d8 <wInterrupt_Mask>:
	...

200018da <SaveRState>:
	...

200018dc <SaveTState>:
200018dc:	00000000 	andeq	r0, r0, r0

Disassembly of section ._usrstack:

200018e0 <_susrstack>:
	...

Disassembly of section .comment:

00000000 <.comment>:
   0:	3a434347 	bcc	10d0d24 <_Minimum_Stack_Size+0x10ced24>
   4:	4e472820 	cdpmi	8, 4, cr2, cr7, cr0, {1}
   8:	6f542055 	svcvs	0x00542055
   c:	20736c6f 	rsbscs	r6, r3, pc, ror #24
  10:	20726f66 	rsbscs	r6, r2, r6, ror #30
  14:	204d5241 	subcs	r5, sp, r1, asr #4
  18:	65626d45 	strbvs	r6, [r2, #-3397]!	; 0xd45
  1c:	64656464 	strbtvs	r6, [r5], #-1124	; 0x464
  20:	6f725020 	svcvs	0x00725020
  24:	73736563 	cmnvc	r3, #415236096	; 0x18c00000
  28:	2973726f 	ldmdbcs	r3!, {r0, r1, r2, r3, r5, r6, r9, ip, sp, lr}^
  2c:	392e3420 	stmdbcc	lr!, {r5, sl, ip, sp}
  30:	3220332e 	eorcc	r3, r0, #-1207959552	; 0xb8000000
  34:	31343130 	teqcc	r4, r0, lsr r1
  38:	20393131 	eorscs	r3, r9, r1, lsr r1
  3c:	6c657228 	sfmvs	f7, 2, [r5], #-160	; 0xffffff60
  40:	65736165 	ldrbvs	r6, [r3, #-357]!	; 0x165
  44:	415b2029 	cmpmi	fp, r9, lsr #32
  48:	652f4d52 	strvs	r4, [pc, #-3410]!	; fffff2fe <BootRAM+0xef6fa9f>
  4c:	6465626d 	strbtvs	r6, [r5], #-621	; 0x26d
  50:	2d646564 	cfstr64cs	mvdx6, [r4, #-400]!	; 0xfffffe70
  54:	2d395f34 	ldccs	15, cr5, [r9, #-208]!	; 0xffffff30
  58:	6e617262 	cdpvs	2, 6, cr7, cr1, cr2, {3}
  5c:	72206863 	eorvc	r6, r0, #6488064	; 0x630000
  60:	73697665 	cmnvc	r9, #105906176	; 0x6500000
  64:	206e6f69 	rsbcs	r6, lr, r9, ror #30
  68:	32383132 	eorscc	r3, r8, #-2147483636	; 0x8000000c
  6c:	005d3837 	subseq	r3, sp, r7, lsr r8

Disassembly of section .ARM.attributes:

00000000 <.ARM.attributes>:
   0:	00002841 	andeq	r2, r0, r1, asr #16
   4:	61656100 	cmnvs	r5, r0, lsl #2
   8:	01006962 	tsteq	r0, r2, ror #18
   c:	0000001e 	andeq	r0, r0, lr, lsl r0
  10:	4d2d3705 	stcmi	7, cr3, [sp, #-20]!	; 0xffffffec
  14:	070a0600 	streq	r0, [sl, -r0, lsl #12]
  18:	1202094d 	andne	r0, r2, #1261568	; 0x134000
  1c:	15011404 	strne	r1, [r1, #-1028]	; 0x404
  20:	18031701 	stmdane	r3, {r0, r8, r9, sl, ip}
  24:	22011a01 	andcs	r1, r1, #4096	; 0x1000
  28:	Address 0x00000028 is out of bounds.


Disassembly of section .debug_frame:

00000000 <.debug_frame>:
   0:	0000000c 	andeq	r0, r0, ip
   4:	ffffffff 			; <UNDEFINED> instruction: 0xffffffff
   8:	7c020001 	stcvc	0, cr0, [r2], {1}
   c:	000d0c0e 	andeq	r0, sp, lr, lsl #24
  10:	0000000c 	andeq	r0, r0, ip
  14:	00000000 	andeq	r0, r0, r0
  18:	08007888 	stmdaeq	r0, {r3, r7, fp, ip, sp, lr}
  1c:	00000010 	andeq	r0, r0, r0, lsl r0
  20:	0000000c 	andeq	r0, r0, ip
	...
  2c:	00000010 	andeq	r0, r0, r0, lsl r0
  30:	0000000c 	andeq	r0, r0, ip
  34:	ffffffff 			; <UNDEFINED> instruction: 0xffffffff
  38:	7c020001 	stcvc	0, cr0, [r2], {1}
  3c:	000d0c0e 	andeq	r0, sp, lr, lsl #24
  40:	00000040 	andeq	r0, r0, r0, asr #32
  44:	00000030 	andeq	r0, r0, r0, lsr r0
  48:	08007898 	stmdaeq	r0, {r3, r4, r7, fp, ip, sp, lr}
  4c:	00000504 	andeq	r0, r0, r4, lsl #10
  50:	84240e42 	strthi	r0, [r4], #-3650	; 0xe42
  54:	86088509 	strhi	r8, [r8], -r9, lsl #10
  58:	88068707 	stmdahi	r6, {r0, r1, r2, r8, r9, sl, pc}
  5c:	8a048905 	bhi	122478 <_Minimum_Stack_Size+0x120478>
  60:	8e028b03 	vmlahi.f64	d8, d2, d3
  64:	300e4401 	andcc	r4, lr, r1, lsl #8
  68:	240e0a68 	strcs	r0, [lr], #-2664	; 0xa68
  6c:	97020b42 	strls	r0, [r2, -r2, asr #22]
  70:	42240e0a 	eormi	r0, r4, #10, 28	; 0xa0
  74:	0e0a520b 	cdpeq	2, 0, cr5, cr10, cr11, {0}
  78:	020b4224 	andeq	r4, fp, #36, 4	; 0x40000002
  7c:	240e0aa5 	strcs	r0, [lr], #-2725	; 0xaa5
  80:	00000b42 	andeq	r0, r0, r2, asr #22
  84:	0000000c 	andeq	r0, r0, ip
  88:	ffffffff 			; <UNDEFINED> instruction: 0xffffffff
  8c:	7c020001 	stcvc	0, cr0, [r2], {1}
  90:	000d0c0e 	andeq	r0, sp, lr, lsl #24
  94:	00000024 	andeq	r0, r0, r4, lsr #32
  98:	00000084 	andeq	r0, r0, r4, lsl #1
  9c:	08007d9c 	stmdaeq	r0, {r2, r3, r4, r7, r8, sl, fp, ip, sp, lr}
  a0:	00000062 	andeq	r0, r0, r2, rrx
  a4:	840c0e42 	strhi	r0, [ip], #-3650	; 0xe42
  a8:	86028503 	strhi	r8, [r2], -r3, lsl #10
  ac:	c60a5601 	strgt	r5, [sl], -r1, lsl #12
  b0:	000ec4c5 	andeq	ip, lr, r5, asr #9
  b4:	c4570b41 	ldrbgt	r0, [r7], #-2881	; 0xb41
  b8:	000ec6c5 	andeq	ip, lr, r5, asr #13
  bc:	0000000c 	andeq	r0, r0, ip
  c0:	ffffffff 			; <UNDEFINED> instruction: 0xffffffff
  c4:	7c020001 	stcvc	0, cr0, [r2], {1}
  c8:	000d0c0e 	andeq	r0, sp, lr, lsl #24
  cc:	0000000c 	andeq	r0, r0, ip
  d0:	000000bc 	strheq	r0, [r0], -ip
  d4:	08007e00 	stmdaeq	r0, {r9, sl, fp, ip, sp, lr}
  d8:	00000002 	andeq	r0, r0, r2
  dc:	0000000c 	andeq	r0, r0, ip
  e0:	000000bc 	strheq	r0, [r0], -ip
  e4:	08007e04 	stmdaeq	r0, {r2, r9, sl, fp, ip, sp, lr}
  e8:	00000002 	andeq	r0, r0, r2
  ec:	0000000c 	andeq	r0, r0, ip
  f0:	ffffffff 			; <UNDEFINED> instruction: 0xffffffff
  f4:	7c020001 	stcvc	0, cr0, [r2], {1}
  f8:	000d0c0e 	andeq	r0, sp, lr, lsl #24
  fc:	00000018 	andeq	r0, r0, r8, lsl r0
 100:	000000ec 	andeq	r0, r0, ip, ror #1
 104:	08007e08 	stmdaeq	r0, {r3, r9, sl, fp, ip, sp, lr}
 108:	00000024 	andeq	r0, r0, r4, lsr #32
 10c:	83100e41 	tsthi	r0, #1040	; 0x410
 110:	85038404 	strhi	r8, [r3, #-1028]	; 0x404
 114:	00018e02 	andeq	r8, r1, r2, lsl #28
 118:	0000000c 	andeq	r0, r0, ip
 11c:	ffffffff 			; <UNDEFINED> instruction: 0xffffffff
 120:	7c020001 	stcvc	0, cr0, [r2], {1}
 124:	000d0c0e 	andeq	r0, sp, lr, lsl #24
 128:	00000014 	andeq	r0, r0, r4, lsl r0
 12c:	00000118 	andeq	r0, r0, r8, lsl r1
 130:	08007e2c 	stmdaeq	r0, {r2, r3, r5, r9, sl, fp, ip, sp, lr}
 134:	0000003e 	andeq	r0, r0, lr, lsr r0
 138:	84080e42 	strhi	r0, [r8], #-3650	; 0xe42
 13c:	00018e02 	andeq	r8, r1, r2, lsl #28
 140:	0000000c 	andeq	r0, r0, ip
 144:	ffffffff 			; <UNDEFINED> instruction: 0xffffffff
 148:	7c020001 	stcvc	0, cr0, [r2], {1}
 14c:	000d0c0e 	andeq	r0, sp, lr, lsl #24
 150:	00000038 	andeq	r0, r0, r8, lsr r0
 154:	00000140 	andeq	r0, r0, r0, asr #2
 158:	08007e6c 	stmdaeq	r0, {r2, r3, r5, r6, r9, sl, fp, ip, sp, lr}
 15c:	000000cc 	andeq	r0, r0, ip, asr #1
 160:	840c0e42 	strhi	r0, [ip], #-3650	; 0xe42
 164:	86028503 	strhi	r8, [r2], -r3, lsl #10
 168:	c60a7501 	strgt	r7, [sl], -r1, lsl #10
 16c:	000ec4c5 	andeq	ip, lr, r5, asr #9
 170:	0a670b41 	beq	19c2e7c <_Minimum_Stack_Size+0x19c0e7c>
 174:	0ec6c5c4 	cdpeq	5, 12, cr12, cr6, cr4, {6}
 178:	420b4100 	andmi	r4, fp, #0, 2
 17c:	c6c5c40a 	strbgt	ip, [r5], sl, lsl #8
 180:	0b41000e 	bleq	10401c0 <_Minimum_Stack_Size+0x103e1c0>
 184:	c6c5c442 	strbgt	ip, [r5], r2, asr #8
 188:	0000000e 	andeq	r0, r0, lr
 18c:	0000000c 	andeq	r0, r0, ip
 190:	ffffffff 			; <UNDEFINED> instruction: 0xffffffff
 194:	7c020001 	stcvc	0, cr0, [r2], {1}
 198:	000d0c0e 	andeq	r0, sp, lr, lsl #24
 19c:	0000000c 	andeq	r0, r0, ip
 1a0:	0000018c 	andeq	r0, r0, ip, lsl #3
 1a4:	08007f38 	stmdaeq	r0, {r3, r4, r5, r8, r9, sl, fp, ip, sp, lr}
 1a8:	000000ba 	strheq	r0, [r0], -sl
 1ac:	0000000c 	andeq	r0, r0, ip
 1b0:	ffffffff 			; <UNDEFINED> instruction: 0xffffffff
 1b4:	7c020001 	stcvc	0, cr0, [r2], {1}
 1b8:	000d0c0e 	andeq	r0, sp, lr, lsl #24
 1bc:	0000000c 	andeq	r0, r0, ip
 1c0:	000001ac 	andeq	r0, r0, ip, lsr #3
 1c4:	08007ff4 	stmdaeq	r0, {r2, r4, r5, r6, r7, r8, r9, sl, fp, ip, sp, lr}
 1c8:	0000005c 	andeq	r0, r0, ip, asr r0
 1cc:	0000000c 	andeq	r0, r0, ip
 1d0:	ffffffff 			; <UNDEFINED> instruction: 0xffffffff
 1d4:	7c020001 	stcvc	0, cr0, [r2], {1}
 1d8:	000d0c0e 	andeq	r0, sp, lr, lsl #24
 1dc:	00000040 	andeq	r0, r0, r0, asr #32
 1e0:	000001cc 	andeq	r0, r0, ip, asr #3
 1e4:	08008050 	stmdaeq	r0, {r4, r6, pc}
 1e8:	00000092 	muleq	r0, r2, r0
 1ec:	84100e47 	ldrhi	r0, [r0], #-3655	; 0xe47
 1f0:	86038504 	strhi	r8, [r3], -r4, lsl #10
 1f4:	77018702 	strvc	r8, [r1, -r2, lsl #14]
 1f8:	c4c5c6c7 	strbgt	ip, [r5], #1735	; 0x6c7
 1fc:	0e43000e 	cdpeq	0, 4, cr0, cr3, cr14, {0}
 200:	85048410 	strhi	r8, [r4, #-1040]	; 0x410
 204:	87028603 	strhi	r8, [r2, -r3, lsl #12]
 208:	c40a4201 	strgt	r4, [sl], #-513	; 0x201
 20c:	0ec7c6c5 	cdpeq	6, 12, cr12, cr7, cr5, {6}
 210:	420b4100 	andmi	r4, fp, #0, 2
 214:	c6c5c40a 	strbgt	ip, [r5], sl, lsl #8
 218:	41000ec7 	smlabtmi	r0, r7, lr, r0
 21c:	0000000b 	andeq	r0, r0, fp
 220:	0000000c 	andeq	r0, r0, ip
 224:	ffffffff 			; <UNDEFINED> instruction: 0xffffffff
 228:	7c020001 	stcvc	0, cr0, [r2], {1}
 22c:	000d0c0e 	andeq	r0, sp, lr, lsl #24
 230:	00000020 	andeq	r0, r0, r0, lsr #32
 234:	00000220 	andeq	r0, r0, r0, lsr #4
 238:	080080e4 	stmdaeq	r0, {r2, r5, r6, r7, pc}
 23c:	00000066 	andeq	r0, r0, r6, rrx
 240:	840c0e44 	strhi	r0, [ip], #-3652	; 0xe44
 244:	86028503 	strhi	r8, [r2], -r3, lsl #10
 248:	c60a6c01 	strgt	r6, [sl], -r1, lsl #24
 24c:	000ec4c5 	andeq	ip, lr, r5, asr #9
 250:	00000b41 	andeq	r0, r0, r1, asr #22
 254:	0000000c 	andeq	r0, r0, ip
 258:	ffffffff 			; <UNDEFINED> instruction: 0xffffffff
 25c:	7c020001 	stcvc	0, cr0, [r2], {1}
 260:	000d0c0e 	andeq	r0, sp, lr, lsl #24
 264:	0000001c 	andeq	r0, r0, ip, lsl r0
 268:	00000254 	andeq	r0, r0, r4, asr r2
 26c:	0800814c 	stmdaeq	r0, {r2, r3, r6, r8, pc}
 270:	0000009c 	muleq	r0, ip, r0
 274:	83180e41 	tsthi	r8, #1040	; 0x410
 278:	85058406 	strhi	r8, [r5, #-1030]	; 0x406
 27c:	87038604 	strhi	r8, [r3, -r4, lsl #12]
 280:	00018e02 	andeq	r8, r1, r2, lsl #28
 284:	00000040 	andeq	r0, r0, r0, asr #32
 288:	00000254 	andeq	r0, r0, r4, asr r2
 28c:	080081e8 	stmdaeq	r0, {r3, r5, r6, r7, r8, pc}
 290:	000001b0 			; <UNDEFINED> instruction: 0x000001b0
 294:	84180e44 	ldrhi	r0, [r8], #-3652	; 0xe44
 298:	86058506 	strhi	r8, [r5], -r6, lsl #10
 29c:	88038704 	stmdahi	r3, {r2, r8, r9, sl, pc}
 2a0:	02018e02 	andeq	r8, r1, #2, 28
 2a4:	c7c8ce4b 	strbgt	ip, [r8, fp, asr #28]
 2a8:	0ec4c5c6 	cdpeq	5, 12, cr12, cr4, cr6, {6}
 2ac:	180e4300 	stmdane	lr, {r8, r9, lr}
 2b0:	05850684 	streq	r0, [r5, #1668]	; 0x684
 2b4:	03870486 	orreq	r0, r7, #-2046820352	; 0x86000000
 2b8:	018e0288 	orreq	r0, lr, r8, lsl #5
 2bc:	c5c40a5d 	strbgt	r0, [r4, #2653]	; 0xa5d
 2c0:	cec8c7c6 	cdpgt	7, 12, cr12, cr8, cr6, {6}
 2c4:	0b42000e 	bleq	1080304 <_Minimum_Stack_Size+0x107e304>
 2c8:	0000000c 	andeq	r0, r0, ip
 2cc:	ffffffff 			; <UNDEFINED> instruction: 0xffffffff
 2d0:	7c020001 	stcvc	0, cr0, [r2], {1}
 2d4:	000d0c0e 	andeq	r0, sp, lr, lsl #24
 2d8:	00000020 	andeq	r0, r0, r0, lsr #32
 2dc:	000002c8 	andeq	r0, r0, r8, asr #5
 2e0:	00000000 	andeq	r0, r0, r0
 2e4:	0000001a 	andeq	r0, r0, sl, lsl r0
 2e8:	83100e41 	tsthi	r0, #1040	; 0x410
 2ec:	85038404 	strhi	r8, [r3, #-1028]	; 0x404
 2f0:	4a018e02 	bmi	63b00 <_Minimum_Stack_Size+0x61b00>
 2f4:	c3c4c5ce 	bicgt	ip, r4, #864026624	; 0x33800000
 2f8:	0000000e 	andeq	r0, r0, lr
 2fc:	00000020 	andeq	r0, r0, r0, lsr #32
 300:	000002c8 	andeq	r0, r0, r8, asr #5
 304:	00000000 	andeq	r0, r0, r0
 308:	00000088 	andeq	r0, r0, r8, lsl #1
 30c:	84100e46 	ldrhi	r0, [r0], #-3654	; 0xe46
 310:	86038504 	strhi	r8, [r3], -r4, lsl #10
 314:	79018e02 	stmdbvc	r1, {r1, r9, sl, fp, pc}
 318:	c4c5c6ce 	strbgt	ip, [r5], #1742	; 0x6ce
 31c:	0000000e 	andeq	r0, r0, lr
 320:	0000000c 	andeq	r0, r0, ip
 324:	ffffffff 			; <UNDEFINED> instruction: 0xffffffff
 328:	7c020001 	stcvc	0, cr0, [r2], {1}
 32c:	000d0c0e 	andeq	r0, sp, lr, lsl #24
 330:	00000020 	andeq	r0, r0, r0, lsr #32
 334:	00000320 	andeq	r0, r0, r0, lsr #6
 338:	0800a034 	stmdaeq	r0, {r2, r4, r5, sp, pc}
 33c:	0000009a 	muleq	r0, sl, r0
 340:	840c0e41 	strhi	r0, [ip], #-3649	; 0xe41
 344:	86028503 	strhi	r8, [r2], -r3, lsl #10
 348:	0a480201 	beq	1200b54 <_Minimum_Stack_Size+0x11feb54>
 34c:	0ec4c5c6 	cdpeq	5, 12, cr12, cr4, cr6, {6}
 350:	000b4100 	andeq	r4, fp, r0, lsl #2
 354:	0000000c 	andeq	r0, r0, ip
 358:	ffffffff 			; <UNDEFINED> instruction: 0xffffffff
 35c:	7c020001 	stcvc	0, cr0, [r2], {1}
 360:	000d0c0e 	andeq	r0, sp, lr, lsl #24
 364:	0000000c 	andeq	r0, r0, ip
 368:	00000354 	andeq	r0, r0, r4, asr r3
 36c:	0800a0d0 	stmdaeq	r0, {r4, r6, r7, sp, pc}
 370:	0000001c 	andeq	r0, r0, ip, lsl r0
